Microsoft (R) COFF/PE Dumper Version 14.31.31104.0
Copyright (C) Microsoft Corporation.  All rights reserved.


Dump of file gmsh.dll

File Type: DLL

  Section contains the following exports for gmsh.dll

    00000000 characteristics
           0 time date stamp
        0.00 version
           0 ordinal base
       19364 number of functions
       19363 number of names

    ordinal hint RVA      name

          1    0 013D7528 ANNkdDim
          2    1 013D74B8 ANNkdFRDim
          3    2 013D74D0 ANNkdFRMaxErr
          4    3 013D74E0 ANNkdFRPointMK
          5    4 013D74D8 ANNkdFRPts
          6    5 013D74EC ANNkdFRPtsInRange
          7    6 013D74E8 ANNkdFRPtsVisited
          8    7 013D74C0 ANNkdFRQ
          9    8 013D74C8 ANNkdFRSqRad
         10    9 013D7538 ANNkdMaxErr
         11    A 013D7548 ANNkdPointMK
         12    B 013D7540 ANNkdPts
         13    C 013D7530 ANNkdQ
         14    D 013D74B0 ANNmaxPtsVisited
         15    E 013D7518 ANNprBoxPQ
         16    F 013D74F8 ANNprDim
         17   10 013D74F0 ANNprEps
         18   11 013D7508 ANNprMaxErr
         19   12 013D7520 ANNprPointMK
         20   13 013D7510 ANNprPts
         21   14 013D7500 ANNprQ
         22   15 013D74B4 ANNptsVisited
         23   16 013C3680 AnnotateOptions_Number
         24   17 013D4EC0 AnnotateOptions_String
         25   18 013C4D00 BoundaryAnglesOptions_Number
         26   19 013D5550 BoundaryAnglesOptions_String
         27   1A 013C4150 BubblesOptions_Number
         28   1B 013D5230 BubblesOptions_String
         29   1C 00A6E230 CCbigguy_addmult
         30   1D 00A6DE70 CCbigguy_bigguytod
         31   1E 00A6E130 CCbigguy_ceil
         32   1F 00A6E190 CCbigguy_cmp
         33   20 00A6DFE0 CCbigguy_dtobigguy
         34   21 00A6DF80 CCbigguy_itobigguy
         35   22 00A6DE10 CCbigguy_sread
         36   23 00A6DDB0 CCbigguy_swrite
         37   24 00A72470 CCcut_SRK_buildgraph
         38   25 00A718C0 CCcut_SRK_defluff
         39   26 00A72DD0 CCcut_SRK_expand
         40   27 00A72BC0 CCcut_SRK_free_expinfo
         41   28 00A72C20 CCcut_SRK_free_graph
         42   29 00A72830 CCcut_SRK_grab_edges
         43   2A 00A72A80 CCcut_SRK_grab_nodes
         44   2B 00A71E50 CCcut_SRK_identify_nodes
         45   2C 00A72160 CCcut_SRK_identify_one_triangles
         46   2D 00A71CD0 CCcut_SRK_identify_ones
         47   2E 00A713D0 CCcut_SRK_identify_paths
         48   2F 00A71A50 CCcut_SRK_identify_paths_to_edges
         49   30 00A70DA0 CCcut_SRK_identify_pr_edges
         50   31 00A72C80 CCcut_SRK_init_callback
         51   32 00A72A70 CCcut_SRK_init_expinfo
         52   33 00A72C00 CCcut_SRK_init_graph
         53   34 00A70C60 CCcut_SRK_subtour_shrink
         54   35 00A72CA0 CCcut_SRK_trivial
         55   36 00A6E460 CCcut_connect_components
         56   37 00A705D0 CCcut_linsub
         57   38 00A6FCB0 CCcut_mincut
         58   39 00A6EA60 CCcut_mincut_st
         59   3A 00A70570 CCcut_violated_cuts
         60   3B 00A72FB0 CCedgegen_edges
         61   3C 00A76DA0 CCedgegen_init_edgegengroup
         62   3D 00A7A0D0 CCedgegen_junk_k_nearest
         63   3E 00A7A820 CCedgegen_junk_nearest_neighbor_tour
         64   3F 00A79CD0 CCedgegen_junk_node_k_nearest
         65   40 00A7A330 CCedgegen_junk_node_nearest
         66   41 00A76DC0 CCedgegen_read
         67   42 00A77C00 CCedgegen_x_k_nearest
         68   43 00A7A580 CCedgegen_x_nearest_neighbor_tour
         69   44 00A79960 CCedgegen_x_node_k_nearest
         70   45 00A7A100 CCedgegen_x_node_nearest
         71   46 00A78780 CCedgegen_x_node_quadrant_k_nearest
         72   47 00A7A0A0 CCedgegen_x_quadrant_k_nearest
         73   48 00A783E0 CCedgegen_xnear_build
         74   49 00A7A040 CCedgegen_xnear_free
         75   4A 00A7ABB0 CCfmatch_fractional_2match
         76   4B 00A86340 CCkdtree_3opt_tour
         77   4C 00A84030 CCkdtree_boruvka_tour
         78   4D 00A7EA40 CCkdtree_build
         79   4E 00A7F690 CCkdtree_delete
         80   4F 00A7F720 CCkdtree_delete_all
         81   50 00A83520 CCkdtree_far_add_tour
         82   51 00A81940 CCkdtree_fixed_radius_nearest
         83   52 00A7F310 CCkdtree_free
         84   53 00A82E80 CCkdtree_greedy_tour
         85   54 00A7F910 CCkdtree_k_nearest
         86   55 00A823C0 CCkdtree_nearest_neighbor_2match
         87   56 00A821F0 CCkdtree_nearest_neighbor_tour
         88   57 00A80420 CCkdtree_node_k_nearest
         89   58 00A81440 CCkdtree_node_nearest
         90   59 00A7FFB0 CCkdtree_node_quadrant_k_nearest
         91   5A 00A82960 CCkdtree_prim_spanningtree
         92   5B 00A83A30 CCkdtree_qboruvka_tour
         93   5C 00A80600 CCkdtree_quadrant_k_nearest
         94   5D 00A84920 CCkdtree_twoopt_tour
         95   5E 00A7F7D0 CCkdtree_undelete
         96   5F 00A7F860 CCkdtree_undelete_all
         97   60 00A87FD0 CClinkern_flipper_cycle
         98   61 00A88070 CClinkern_flipper_finish
         99   62 00A881D0 CClinkern_flipper_flip
        100   63 00A880A0 CClinkern_flipper_free_world
        101   64 00A87B70 CClinkern_flipper_init
        102   65 00A880B0 CClinkern_flipper_next
        103   66 00A88140 CClinkern_flipper_prev
        104   67 00A88980 CClinkern_flipper_sequence
        105   68 00A88CD0 CClinkern_tour
        106   69 00A8F8E0 CClp_addcols
        107   6A 00A8F880 CClp_addrows
        108   6B 00A8FB80 CClp_basis
        109   6C 00A8F9D0 CClp_delete_column
        110   6D 00A8F950 CClp_delete_row
        111   6E 00A8FA10 CClp_delete_set_of_columns
        112   6F 00A8F990 CClp_delete_set_of_rows
        113   70 00A8F7E0 CClp_dualopt
        114   71 00A8FE40 CClp_dump_lp
        115   72 00A8F6D0 CClp_free
        116   73 00A8FAD0 CClp_free_basis
        117   74 00A8FB00 CClp_get_basis_and_norms
        118   75 00A8FC00 CClp_getbasis_and_norms
        119   76 00A8FF30 CClp_getfarkasmultipliers
        120   77 00A8FE80 CClp_getgoodlist
        121   78 00A8FDF0 CClp_getweight
        122   79 00A8F6A0 CClp_init
        123   7A 00A8FAA0 CClp_init_basis
        124   7B 00A8F640 CClp_init_struct
        125   7C 00A8F810 CClp_limited_dualopt
        126   7D 00A8FB40 CClp_load_basis_and_norms
        127   7E 00A8FBC0 CClp_loadbasis
        128   7F 00A8FC40 CClp_loadbasis_and_norms
        129   80 00A8F700 CClp_loadlp
        130   81 00A8FD80 CClp_nonzeros
        131   82 00A8FD40 CClp_objval
        132   83 00A8F7A0 CClp_opt
        133   84 00A8FD00 CClp_pi_range
        134   85 00A8FF70 CClp_pivotin
        135   86 00A8F850 CClp_primalopt
        136   87 00A8FCC0 CClp_rc
        137   88 00A8FA50 CClp_setbnd
        138   89 00A8FDB0 CClp_status
        139   8A 00A8FED0 CClp_strongbranch
        140   8B 00A8FC80 CClp_x
        141   8C 00A94810 CCtsp_add_branchhistory_to_lp
        142   8D 00AAD7A0 CCtsp_add_cut
        143   8E 00AAEE40 CCtsp_add_cut_to_cutlist
        144   8F 00AAC2C0 CCtsp_add_cuts_to_queue
        145   90 00AACFC0 CCtsp_add_multiple_rows
        146   91 00A9A8A0 CCtsp_add_node_to_lpclique
        147   92 00AAEEC0 CCtsp_add_nzlist_to_lp
        148   93 00A9D4D0 CCtsp_add_to_cutpool
        149   94 00A9D5D0 CCtsp_add_to_cutpool_lpcut_in
        150   95 00AAFE70 CCtsp_add_vars_to_lp
        151   96 00AADEB0 CCtsp_addbad_variables
        152   97 00A9A720 CCtsp_array_to_lpclique
        153   98 00A987D0 CCtsp_array_to_subtour
        154   99 00A98020 CCtsp_bb_cutting
        155   9A 00A94A40 CCtsp_bb_find_branch
        156   9B 00AA97E0 CCtsp_bb_init_lp
        157   9C 00A94D00 CCtsp_bb_splitprob
        158   9D 00A8FFA0 CCtsp_bfs_brancher
        159   9E 00A9CFB0 CCtsp_branch_cutpool_cliques
        160   9F 00AAB080 CCtsp_build_lpadj
        161   A0 00AAAF00 CCtsp_build_lpgraph
        162   A1 00A9B6C0 CCtsp_buildcut_abort
        163   A2 00A9B400 CCtsp_buildcut_addclique
        164   A3 00A9B390 CCtsp_buildcut_begin
        165   A4 00A9B750 CCtsp_buildcut_finish
        166   A5 00A98450 CCtsp_call_x_heuristic
        167   A6 00A935D0 CCtsp_check_integral
        168   A7 00A95D30 CCtsp_clique_count
        169   A8 00A95E90 CCtsp_clique_delta
        170   A9 00A95D70 CCtsp_clique_to_array
        171   AA 00A98650 CCtsp_connect_cuts
        172   AB 00A9A550 CCtsp_copy_lpclique
        173   AC 00A9A3B0 CCtsp_copy_lpcut_in
        174   AD 00AAC310 CCtsp_cutprice
        175   AE 00A96150 CCtsp_cutting_loop
        176   AF 00AB0520 CCtsp_delete_cut
        177   B0 00AAF240 CCtsp_delete_cut_from_cutlist
        178   B1 00A9AA00 CCtsp_delete_node_from_lpclique
        179   B2 00A9D720 CCtsp_display_cutpool
        180   B3 00A91180 CCtsp_do_interactive_branch
        181   B4 00AB1060 CCtsp_dump_x
        182   B5 00A953A0 CCtsp_dumptour
        183   B6 00A90B00 CCtsp_easy_dfs_brancher
        184   B7 00A9F8A0 CCtsp_edge_elimination
        185   B8 00A9D890 CCtsp_edgehash_add
        186   B9 00A9D9B0 CCtsp_edgehash_del
        187   BA 00A9DA30 CCtsp_edgehash_delall
        188   BB 00A9DA90 CCtsp_edgehash_find
        189   BC 00A9DAF0 CCtsp_edgehash_free
        190   BD 00A9D7F0 CCtsp_edgehash_init
        191   BE 00AA1DF0 CCtsp_edgelist_to_genadj
        192   BF 00AB0110 CCtsp_eliminate_variables
        193   C0 00A9E520 CCtsp_exact_dual
        194   C1 00A9DBB0 CCtsp_exact_price
        195   C2 00A98BC0 CCtsp_exact_subtours
        196   C3 00A93DE0 CCtsp_execute_branch
        197   C4 00A94310 CCtsp_execute_unbranch
        198   C5 00A9AEA0 CCtsp_file_cuts
        199   C6 00A9B170 CCtsp_file_cuts_write
        200   C7 00A91750 CCtsp_find_branch
        201   C8 00A92930 CCtsp_find_branch_cliques
        202   C9 00A91EC0 CCtsp_find_branch_edge
        203   CA 00AAB250 CCtsp_find_edge
        204   CB 00A9B780 CCtsp_find_pure_handle
        205   CC 00AA0450 CCtsp_free_bigdual
        206   CD 00A91530 CCtsp_free_branchobj
        207   CE 00A95680 CCtsp_free_cliquehash
        208   CF 00A9C160 CCtsp_free_cutpool
        209   D0 00AA0F50 CCtsp_free_edgegenerator
        210   D1 00AADE70 CCtsp_free_lpclique
        211   D2 00AAD700 CCtsp_free_lpcut_in
        212   D3 00AABDF0 CCtsp_free_lpgraph
        213   D4 00AAD040 CCtsp_free_lprow
        214   D5 00AA4D60 CCtsp_free_qsparsify
        215   D6 00AAA880 CCtsp_free_tsp_lp_struct
        216   D7 00AA14C0 CCtsp_generate_edges
        217   D8 00AABE50 CCtsp_get_lp_result
        218   D9 00AADBF0 CCtsp_infeas_recover
        219   DA 00A91510 CCtsp_init_branchobj
        220   DB 00A95610 CCtsp_init_cliquehash
        221   DC 00A9BD10 CCtsp_init_cutpool
        222   DD 00A96070 CCtsp_init_cutselect
        223   DE 00AA06B0 CCtsp_init_edgegenerator
        224   DF 00AA9860 CCtsp_init_lp
        225   E0 00A9A880 CCtsp_init_lpclique
        226   E1 00A9A380 CCtsp_init_lpcut_in
        227   E2 00AABDE0 CCtsp_init_lpgraph_struct
        228   E3 00AACF90 CCtsp_init_lprow
        229   E4 00AA96F0 CCtsp_init_tighten_info
        230   E5 00AAA680 CCtsp_init_tsp_lp_struct
        231   E6 00AABD20 CCtsp_inspect_full_edges
        232   E7 00A95CD0 CCtsp_is_clique_marked
        233   E8 00A9AE50 CCtsp_lpclique_compare
        234   E9 00AAC3D0 CCtsp_lpcut_in_nzlist
        235   EA 00A996D0 CCtsp_lpcut_to_lpcut_in
        236   EB 00A959F0 CCtsp_mark_clique
        237   EC 00A95A50 CCtsp_mark_clique_and_neighbors
        238   ED 00A95C40 CCtsp_mark_clique_and_neighbors_double
        239   EE 00A95AE0 CCtsp_mark_cut
        240   EF 00A95B70 CCtsp_mark_cut_and_neighbors
        241   F0 00A9C600 CCtsp_price_cuts
        242   F1 00A97F30 CCtsp_pricing_loop
        243   F2 00A91570 CCtsp_print_branchhistory
        244   F3 00A9ADD0 CCtsp_print_lpclique
        245   F4 00A9AB70 CCtsp_print_lpcut_in
        246   F5 00AA9700 CCtsp_print_tighten_info
        247   F6 00AA1FB0 CCtsp_prob_file_delete
        248   F7 00AA3F10 CCtsp_prob_getbasis
        249   F8 00AA2FD0 CCtsp_prob_getchildren
        250   F9 00AA3880 CCtsp_prob_getcuts
        251   FA 00AA3320 CCtsp_prob_getedges
        252   FB 00AA4770 CCtsp_prob_getexactdual
        253   FC 00AA2F50 CCtsp_prob_getexactlb
        254   FD 00AA4590 CCtsp_prob_getfixed
        255   FE 00AA4350 CCtsp_prob_getfulladj
        256   FF 00AA4AE0 CCtsp_prob_gethistory
        257  100 00AA2E10 CCtsp_prob_getid
        258  101 00AA3090 CCtsp_prob_getinfeasible
        259  102 00AA2F10 CCtsp_prob_getlb
        260  103 00AA2D10 CCtsp_prob_getname
        261  104 00AA2F90 CCtsp_prob_getnnodes
        262  105 00AA4160 CCtsp_prob_getnorms
        263  106 00AA2E90 CCtsp_prob_getparent
        264  107 00AA3050 CCtsp_prob_getprocessed
        265  108 00AA3010 CCtsp_prob_getreal
        266  109 00AA3150 CCtsp_prob_gettour
        267  10A 00AA2ED0 CCtsp_prob_getub
        268  10B 00AA3E40 CCtsp_prob_putbasis
        269  10C 00AA2FF0 CCtsp_prob_putchildren
        270  10D 00AA34B0 CCtsp_prob_putcuts
        271  10E 00AA3250 CCtsp_prob_putedges
        272  10F 00AA46C0 CCtsp_prob_putexactdual
        273  110 00AA2F70 CCtsp_prob_putexactlb
        274  111 00AA4510 CCtsp_prob_putfixed
        275  112 00AA4280 CCtsp_prob_putfulladj
        276  113 00AA4990 CCtsp_prob_puthistory
        277  114 00AA2E70 CCtsp_prob_putid
        278  115 00AA30B0 CCtsp_prob_putinfeasible
        279  116 00AA2F30 CCtsp_prob_putlb
        280  117 00AA2DA0 CCtsp_prob_putname
        281  118 00AA2FB0 CCtsp_prob_putnnodes
        282  119 00AA40E0 CCtsp_prob_putnorms
        283  11A 00AA2EB0 CCtsp_prob_putparent
        284  11B 00AA3070 CCtsp_prob_putprocessed
        285  11C 00AA3030 CCtsp_prob_putreal
        286  11D 00AA30D0 CCtsp_prob_puttour
        287  11E 00AA2EF0 CCtsp_prob_putub
        288  11F 00AA2CA0 CCtsp_prob_rclose
        289  120 00AA2500 CCtsp_prob_read
        290  121 00AA2540 CCtsp_prob_read_name
        291  122 00AA2CD0 CCtsp_prob_wclose
        292  123 00AA28D0 CCtsp_prob_write
        293  124 00AA2920 CCtsp_prob_write_name
        294  125 00AAC440 CCtsp_process_cuts
        295  126 00AA4EA0 CCtsp_qsparsify
        296  127 00AAA7C0 CCtsp_read_probfile
        297  128 00AAA820 CCtsp_read_probfile_id
        298  129 00A956B0 CCtsp_register_clique
        299  12A 00AAED60 CCtsp_register_cliques
        300  12B 00AA1070 CCtsp_reset_edgegenerator
        301  12C 00A9C390 CCtsp_search_cutpool
        302  12D 00A9C710 CCtsp_search_cutpool_cliques
        303  12E 00A9A600 CCtsp_seglist_to_lpclique
        304  12F 00A988C0 CCtsp_segment_cuts
        305  130 00A98AB0 CCtsp_segment_to_subtour
        306  131 00A951D0 CCtsp_splitprob
        307  132 00A97900 CCtsp_subtour_loop
        308  133 00AA5C40 CCtsp_teething
        309  134 00A998E0 CCtsp_teething_lp
        310  135 00A93AA0 CCtsp_test_cut_branch
        311  136 00A9B8C0 CCtsp_test_pseudocomb
        312  137 00A9A150 CCtsp_test_pure_comb
        313  138 00A9BC20 CCtsp_test_teeth_disjoint
        314  139 00A98DE0 CCtsp_tighten_lp
        315  13A 00AA8F60 CCtsp_tighten_lpcut
        316  13B 00AA7FA0 CCtsp_tighten_lpcut_in
        317  13C 00A958F0 CCtsp_unregister_clique
        318  13D 00AADCE0 CCtsp_unregister_cliques
        319  13E 00AAAD50 CCtsp_update_result
        320  13F 00AA04C0 CCtsp_verify_infeasible_lp
        321  140 00AA0590 CCtsp_verify_lp_prune
        322  141 00A9C2C0 CCtsp_write_cutpool
        323  142 00AB09F0 CCtsp_write_probfile_id
        324  143 00AB0560 CCtsp_write_probfile_sav
        325  144 00AB1530 CCtsp_x_greedy_tour
        326  145 00AB12F0 CCtsp_x_greedy_tour_lk
        327  146 00AB1BB0 CCutil_allocrus
        328  147 00AB3330 CCutil_att_edgelen
        329  148 00AB20C0 CCutil_bigchunk_free_world
        330  149 00AB1E70 CCutil_bigchunkalloc
        331  14A 00AB2080 CCutil_bigchunkfree
        332  14B 00AB20A0 CCutil_bigchunkquery
        333  14C 00AB2400 CCutil_bix_getopt
        334  14D 013D8288 CCutil_bix_optarg
        335  14E 013C5144 CCutil_bix_optind
        336  14F 00AB3430 CCutil_crystal_edgelen
        337  150 013D8290 CCutil_dat_edgelen
        338  151 00AB7D30 CCutil_datagroup_perm
        339  152 00AB2A90 CCutil_dheap_changekey
        340  153 00AB2790 CCutil_dheap_delete
        341  154 00AB29B0 CCutil_dheap_deletemin
        342  155 00AB26D0 CCutil_dheap_findmin
        343  156 00AB2610 CCutil_dheap_free
        344  157 00AB2560 CCutil_dheap_init
        345  158 00AB26F0 CCutil_dheap_insert
        346  159 00AB2660 CCutil_dheap_resize
        347  15A 00ABB190 CCutil_double_perm_quicksort
        348  15B 00AB33D0 CCutil_dsjrand_edgelen
        349  15C 00AB3530 CCutil_dsjrand_init
        350  15D 00AB2B40 CCutil_edge_to_cycle
        351  15E 00AB3020 CCutil_euclid3d_edgelen
        352  15F 00AB2EE0 CCutil_euclid_ceiling_edgelen
        353  160 00AB2F40 CCutil_euclid_edgelen
        354  161 00AB3560 CCutil_freedatagroup
        355  162 00AB1C40 CCutil_freerus
        356  163 00AB3B10 CCutil_genhash_delete
        357  164 00AB3BC0 CCutil_genhash_delete_h
        358  165 00AB3D50 CCutil_genhash_free
        359  166 00AB3C60 CCutil_genhash_hash
        360  167 00AB36D0 CCutil_genhash_init
        361  168 00AB37C0 CCutil_genhash_insert
        362  169 00AB3800 CCutil_genhash_insert_h
        363  16A 00AB3C80 CCutil_genhash_lookup
        364  16B 00AB3CF0 CCutil_genhash_lookup_h
        365  16C 00AB3A00 CCutil_genhash_replace
        366  16D 00AB3A90 CCutil_genhash_replace_h
        367  16E 00AB39C0 CCutil_genhash_u_data
        368  16F 00AB31F0 CCutil_geographic_edgelen
        369  170 00AB82D0 CCutil_getcycle
        370  171 00AB8170 CCutil_getcycle_edgelist
        371  172 00AB3ED0 CCutil_getdata
        372  173 00AB7FA0 CCutil_getedgelist
        373  174 00AB8000 CCutil_getedgelist_n
        374  175 00AB8380 CCutil_getedges_double
        375  176 00AB65A0 CCutil_getmaster
        376  177 00AB6BA0 CCutil_getnodeweights
        377  178 00AB6E40 CCutil_gettsplib
        378  179 00AB30A0 CCutil_ibm_edgelen
        379  17A 00AB2DE0 CCutil_init_dat_edgelen
        380  17B 00ABAFD0 CCutil_int_array_quicksort
        381  17C 00ABB0B0 CCutil_int_perm_quicksort
        382  17D 00ABAE40 CCutil_linked_radixsort
        383  17E 00ABB5C0 CCutil_lprand
        384  17F 00AB33B0 CCutil_matrix_edgelen
        385  180 00AB2FB0 CCutil_max_edgelen
        386  181 00ABB610 CCutil_nextprime
        387  182 00ABB670 CCutil_our_gcd
        388  183 00AB8D00 CCutil_priority_changekey
        389  184 00AB8C80 CCutil_priority_delete
        390  185 00AB8CB0 CCutil_priority_deletemin
        391  186 00AB8B70 CCutil_priority_findmin
        392  187 00AB8B40 CCutil_priority_free
        393  188 00AB8AB0 CCutil_priority_init
        394  189 00AB8BB0 CCutil_priority_insert
        395  18A 00AB3620 CCutil_readint
        396  18B 00ABB6F0 CCutil_real_zeit
        397  18C 00AB1C80 CCutil_reallocrus
        398  18D 00AB1DD0 CCutil_reallocrus_count
        399  18E 00AB1D10 CCutil_reallocrus_scale
        400  18F 00ABB280 CCutil_rselect
        401  190 00ABAD90 CCutil_sbits
        402  191 00ABAC60 CCutil_sclose
        403  192 00ABADC0 CCutil_sdelete_file
        404  193 00ABAE10 CCutil_sdelete_file_backup
        405  194 00AB91C0 CCutil_sdopen
        406  195 00ABAA70 CCutil_sflush
        407  196 00AB8D10 CCutil_sopen
        408  197 00ABB4C0 CCutil_sprand
        409  198 00AB9D60 CCutil_sread
        410  199 00AB9E90 CCutil_sread_bits
        411  19A 00AB9E10 CCutil_sread_char
        412  19B 00ABA510 CCutil_sread_double
        413  19C 00ABA7C0 CCutil_sread_double_r
        414  19D 00ABA2F0 CCutil_sread_int
        415  19E 00ABA400 CCutil_sread_int_r
        416  19F 00ABA170 CCutil_sread_short
        417  1A0 00ABA230 CCutil_sread_short_r
        418  1A1 00ABA0C0 CCutil_sread_string
        419  1A2 00ABAC50 CCutil_srewind
        420  1A3 00ABAB50 CCutil_sseek
        421  1A4 00ABAAE0 CCutil_stell
        422  1A5 00ABB6B0 CCutil_strrchr
        423  1A6 00AB9360 CCutil_swrite
        424  1A7 00AB9490 CCutil_swrite_bits
        425  1A8 00AB9410 CCutil_swrite_char
        426  1A9 00AB98D0 CCutil_swrite_double
        427  1AA 00AB9820 CCutil_swrite_int
        428  1AB 00AB9790 CCutil_swrite_short
        429  1AC 00AB9680 CCutil_swrite_string
        430  1AD 00AB8800 CCutil_writecycle
        431  1AE 00AB86D0 CCutil_writecycle_edgelist
        432  1AF 00AB85F0 CCutil_writeedges
        433  1B0 00AB8920 CCutil_writeedges_double
        434  1B1 00AB6270 CCutil_writemaster
        435  1B2 00ABB6E0 CCutil_zeit
        436  1B3 008F7D40 CoarsenGraphNlevels
        437  1B4 01382020 ColorString
        438  1B5 008CFA30 ComputeAccuracy
        439  1B6 008FA790 ComputeBFSOrdering
        440  1B7 008CFCD0 ComputeMean
        441  1B8 008CFC00 ComputeMedianRFP
        442  1B9 008CFAE0 ComputeROCn
        443  1BA 008CFD10 ComputeStdDev
        444  1BB 013C47A0 CrackOptions_Number
        445  1BC 013C3620 CurlOptions_Number
        446  1BD 013C3F90 CurvedMeshOptions_Number
        447  1BE 013C2A70 CutBoxOptions_Number
        448  1BF 013C2860 CutGridOptions_Number
        449  1C0 013C45D0 CutMeshOptions_Number
        450  1C1 013C20F0 CutParametricOptions_Number
        451  1C2 013D49D0 CutParametricOptions_String
        452  1C3 013C1D20 CutPlaneOptions_Number
        453  1C4 013C1E60 CutSphereOptions_Number
        454  1C5 013C4390 DiscretizationErrorOptions_Number
        455  1C6 013C3E20 DistanceOptions_Number
        456  1C7 013C3650 DivergenceOptions_Number
        457  1C8 013C22E0 EigenvaluesOptions_Number
        458  1C9 013C2290 EigenvectorsOptions_Number
        459  1CA 013C3F10 ExtractEdgesOptions_Number
        460  1CB 013C3430 ExtractElementsOptions_Number
        461  1CC 013D9890 FAILED_NODE
        462  1CD 013D2768 FF
        463  1CE 013C40D0 FieldFromAmplitudePhaseOptions_Number
        464  1CF 013D51F0 FieldFromAmplitudePhaseOptions_String
        465  1D0 013D9650 G
        466  1D1 008C5870 GKDecodeBase64
        467  1D2 008C5790 GKEncodeBase64
        468  1D3 013C1D10 GMSH_PluginEntry
        469  1D4 00760EB0 GMSH_RegisterAnalyseMeshQualityPlugin
        470  1D5 0074FD00 GMSH_RegisterAnnotatePlugin
        471  1D6 00791280 GMSH_RegisterBoundaryAnglesPlugin
        472  1D7 00765F80 GMSH_RegisterBubblesPlugin
        473  1D8 0077C450 GMSH_RegisterCrackPlugin
        474  1D9 0074D020 GMSH_RegisterCurlPlugin
        475  1DA 00763BA0 GMSH_RegisterCurvedBndDistPlugin
        476  1DB 00719F90 GMSH_RegisterCutBoxPlugin
        477  1DC 00715A90 GMSH_RegisterCutGridPlugin
        478  1DD 00773350 GMSH_RegisterCutMeshPlugin
        479  1DE 0070A190 GMSH_RegisterCutParametricPlugin
        480  1DF 00708080 GMSH_RegisterCutPlanePlugin
        481  1E0 00708680 GMSH_RegisterCutSpherePlugin
        482  1E1 00771210 GMSH_RegisterDiscretizationErrorPlugin
        483  1E2 0075C5A0 GMSH_RegisterDistancePlugin
        484  1E3 0074E130 GMSH_RegisterDivergencePlugin
        485  1E4 00711260 GMSH_RegisterEigenvaluesPlugin
        486  1E5 0070FD10 GMSH_RegisterEigenvectorsPlugin
        487  1E6 0075E360 GMSH_RegisterExtractEdgesPlugin
        488  1E7 007468A0 GMSH_RegisterExtractElementsPlugin
        489  1E8 00764CF0 GMSH_RegisterFieldFromAmplitudePhasePlugin
        490  1E9 007806F0 GMSH_RegisterGaussPointsPlugin
        491  1EA 0074C0B0 GMSH_RegisterGradientPlugin
        492  1EB 00755380 GMSH_RegisterHarmonicToTimePlugin
        493  1EC 00756390 GMSH_RegisterHomologyComputationPlugin
        494  1ED 00758CF0 GMSH_RegisterHomologyPostProcessingPlugin
        495  1EE 0074AF60 GMSH_RegisterIntegratePlugin
        496  1EF 00791950 GMSH_RegisterInvisiblePlugin
        497  1F0 00708A30 GMSH_RegisterIsosurfacePlugin
        498  1F1 0070CDC0 GMSH_RegisterLambda2Plugin
        499  1F2 00737F00 GMSH_RegisterLongituteLatitudePlugin
        500  1F3 00746D30 GMSH_RegisterMakeSimplexPlugin
        501  1F4 007432B0 GMSH_RegisterMathEvalPlugin
        502  1F5 007915A0 GMSH_RegisterMeshSizeFieldViewPlugin
        503  1F6 0077DF70 GMSH_RegisterMeshSubEntitiesPlugin
        504  1F7 0077EA70 GMSH_RegisterMeshVolumePlugin
        505  1F8 007540D0 GMSH_RegisterMinMaxPlugin
        506  1F9 007453F0 GMSH_RegisterModifyComponentsPlugin
        507  1FA 00755B30 GMSH_RegisterModulusPhasePlugin
        508  1FB 0076B9F0 GMSH_RegisterNearToFarFieldPlugin
        509  1FC 0075F1A0 GMSH_RegisterNearestNeighborPlugin
        510  1FD 00775E70 GMSH_RegisterNewViewPlugin
        511  1FE 00715120 GMSH_RegisterParticlesPlugin
        512  1FF 00751EC0 GMSH_RegisterProbePlugin
        513  200 00750410 GMSH_RegisterRemovePlugin
        514  201 00772080 GMSH_RegisterScal2TensPlugin
        515  202 00773120 GMSH_RegisterScal2VecPlugin
        516  203 0077ED70 GMSH_RegisterShowNeighborElementsPlugin
        517  204 007780E0 GMSH_RegisterSimplePartitionPlugin
        518  205 0073FE40 GMSH_RegisterSkinPlugin
        519  206 00708BE0 GMSH_RegisterSmoothPlugin
        520  207 00773F00 GMSH_RegisterSpanningTreePlugin
        521  208 0073CEF0 GMSH_RegisterSphericalRaisePlugin
        522  209 007137D0 GMSH_RegisterStreamLinesPlugin
        523  20A 0078F500 GMSH_RegisterSummationPlugin
        524  20B 0073BBF0 GMSH_RegisterTetrahedralizePlugin
        525  20C 007374D0 GMSH_RegisterTransformPlugin
        526  20D 00739CA0 GMSH_RegisterTriangulatePlugin
        527  20E 00780D20 GMSH_RegisterVoroMetalPlugin
        528  20F 0073C800 GMSH_RegisterWarpPlugin
        529  210 013ABDB0 GQH1
        530  211 013ABF90 GQH34
        531  212 013ABDD0 GQH6
        532  213 013ABE90 GQH8
        533  214 013931F0 GQQ1
        534  215 013D1B00 GQQ16
        535  216 01393210 GQQ3
        536  217 01393270 GQQ4
        537  218 013932F0 GQQ7
        538  219 013933D0 GQQ9
        539  21A 0138E2F0 GQT
        540  21B 0138DB30 GQT1
        541  21C 0138DB50 GQT2
        542  21D 0138DBB0 GQT3
        543  21E 0138DC30 GQT4
        544  21F 0138DCF0 GQT5
        545  220 0138DDD0 GQT6
        546  221 0138DF50 GQT7
        547  222 0138E0F0 GQT8
        548  223 01393E70 GQTet
        549  224 01393570 GQTet1
        550  225 01393590 GQTet2
        551  226 01393610 GQTet3
        552  227 013936B0 GQTet4
        553  228 013938B0 GQTet5
        554  229 01393AD0 GQTet6
        555  22A 01393EB0 GQTetnPt
        556  22B 0138E340 GQTnPt
        557  22C 013C4AF0 GaussPointsOptions_Number
        558  22D 0138CD30 GeneralOptions_Color
        559  22E 01385DD0 GeneralOptions_Number
        560  22F 013CF6B0 GeneralOptions_String
        561  230 0138CF10 GeometryOptions_Color
        562  231 01387E80 GeometryOptions_Number
        563  232 013CFE90 GeometryOptions_String
        564  233 013C35F0 GradientOptions_Number
        565  234 00905290 GrowBisectionNode2
        566  235 008E3B50 HTable_Create
        567  236 008E3E30 HTable_Delete
        568  237 008E4140 HTable_Destroy
        569  238 008E3F30 HTable_GetNext
        570  239 008E3E20 HTable_HFunction
        571  23A 008E3CD0 HTable_Insert
        572  23B 008E3BD0 HTable_Reset
        573  23C 008E3C10 HTable_Resize
        574  23D 008E3E90 HTable_Search
        575  23E 008E4030 HTable_SearchAndDelete
        576  23F 013C3AE0 HarmonicToTimeOptions_Number
        577  240 013C3C80 HomologyComputationOptions_Number
        578  241 013D4F70 HomologyComputationOptions_String
        579  242 013C3DF0 HomologyPostProcessingOptions_Number
        580  243 013D50A0 HomologyPostProcessingOptions_String
        581  244 013C3550 IntegrateOptions_Number
        582  245 013C4E20 InvisibleOptions_Number
        583  246 013C1FA0 IsosurfaceOptions_Number
        584  247 013D7550 KD_TRIVIAL
        585  248 013C2240 Lambda2Options_Number
        586  249 000DD720 LolFreeOctree
        587  24A 000DD7C0 LolGetBoundingBox
        588  24B 000DE240 LolGetNearest
        589  24C 000DF610 LolIntersectSurface
        590  24D 000D54A0 LolNewOctree
        591  24E 000E10D0 LolProjectVertex
        592  24F 013C2F70 LongituteLatitudeOptions_Number
        593  250 008FF690 METIS_FREE
        594  251 008F46F0 METIS_Free
        595  252 008FF550 METIS_MESHTODUAL
        596  253 008FF590 METIS_MESHTONODAL
        597  254 009101D0 METIS_MeshToDual
        598  255 00910A20 METIS_MeshToNodal
        599  256 008FF650 METIS_NODEND
        600  257 00916090 METIS_NodeND
        601  258 008FF510 METIS_PARTGRAPHKWAY
        602  259 008FF4D0 METIS_PARTGRAPHRECURSIVE
        603  25A 008FF610 METIS_PARTMESHDUAL
        604  25B 008FF5D0 METIS_PARTMESHNODAL
        605  25C 009054E0 METIS_PartGraphKway
        606  25D 00918FA0 METIS_PartGraphRecursive
        607  25E 00911BB0 METIS_PartMeshDual
        608  25F 00911470 METIS_PartMeshNodal
        609  260 008FF6D0 METIS_SETDEFAULTOPTIONS
        610  261 008F4710 METIS_SetDefaultOptions
        611  262 013C3520 MakeSimplexOptions_Number
        612  263 013C3270 MathEvalOptions_Number
        613  264 013D4AC0 MathEvalOptions_String
        614  265 0138D180 MeshOptions_Color
        615  266 01388BA0 MeshOptions_Number
        616  267 013D0050 MeshOptions_String
        617  268 013C4DA0 MeshSizeFieldViewOptions_Number
        618  269 013C4910 MeshSubEntitiesOptions_Number
        619  26A 013C49B0 MeshVolumeOptions_Number
        620  26B 013C3A40 MinMaxOptions_Number
        621  26C 013C3360 ModifyComponentsOptions_Number
        622  26D 013D4CC0 ModifyComponentsOptions_String
        623  26E 013C3C00 ModulusPhaseOptions_Number
        624  26F 013C4180 NearToFarFieldOptions_Number
        625  270 013D5270 NearToFarFieldOptions_String
        626  271 013C3F60 NearestNeighborOptions_Number
        627  272 013C4680 NewViewOptions_Number
        628  273 013D53E0 NewViewOptions_String
        629  274 00AE0700 Ng_ClearSolutionData
        630  275 00AE0720 Ng_InitSolutionData
        631  276 00AE06F0 Ng_Redraw
        632  277 00AE0710 Ng_SetSolutionData
        633  278 013C2590 ParticlesOptions_Number
        634  279 013D1130 PostProcessingOptions_Color
        635  27A 0138AE30 PostProcessingOptions_Number
        636  27B 013D0A30 PostProcessingOptions_String
        637  27C 008CFA20 PrintBackTrace
        638  27D 013D1160 PrintOptions_Color
        639  27E 0138C580 PrintOptions_Number
        640  27F 013D1090 PrintOptions_String
        641  280 013C39A0 ProbeOptions_Number
        642  281 013C3770 RemoveOptions_Number
        643  282 013C43C0 Scal2TensOptions_Number
        644  283 013D52B0 Scal2TensOptions_String
        645  284 013C4550 Scal2VecOptions_Number
        646  285 013D52F0 Scal2VecOptions_String
        647  286 013C4A00 ShowNeighborElementsOptions_Number
        648  287 013C4720 SimplePartitionOptions_Number
        649  288 013D5420 SimplePartitionOptions_String
        650  289 013C31F0 SkinOptions_Number
        651  28A 013C20C0 SmoothOptions_Number
        652  28B 013D1100 SolverOptions_Color
        653  28C 0138AC20 SolverOptions_Number
        654  28D 013D0090 SolverOptions_String
        655  28E 013C4650 SpanningTreeOptions_Number
        656  28F 013D5330 SpanningTreeOptions_String
        657  290 013C30D0 SphericalRaiseOptions_Number
        658  291 013C2310 StreamLinesOptions_Number
        659  292 013C4BC0 SummationOptions_Number
        660  293 013D5510 SummationOptions_String
        661  294 013C2FD0 TetrahedralizeOptions_Number
        662  295 013C2D40 TransformOptions_Number
        663  296 013C2FA0 TriangulateOptions_Number
        664  297 0138D810 ViewOptions_Color
        665  298 0138B1A0 ViewOptions_Number
        666  299 013D0AE0 ViewOptions_String
        667  29A 013C4B70 VoroMetalOptions_Number
        668  29B 013D54D0 VoroMetalOptions_String
        669  29C 013C3000 WarpOptions_Number
        670  29D 00AD56D0 XPQ_find_root
        671  29E 00AD54B0 XPQ_free_all
        672  29F 00AD52F0 XPQ_init_tree
        673  2A0 00AD1770 XPQ_process
        674  2A1 00AD5890 XPQ_restore_tree
        675  2A2 00AD5740 XPQ_save_tree
        676  2A3 00AD5A00 XPQ_save_tree_free
        677  2A4 00AC02F0 XTmark_components
        678  2A5 00AD08A0 Xadd_edgeptr
        679  2A6 00AD1080 Xadd_extralink
        680  2A7 00AD0E10 Xadd_intptrptr
        681  2A8 00AD0A50 Xadd_neckedgeptr
        682  2A9 00AD0390 Xadd_nodeptr
        683  2AA 00AD06F0 Xadd_nodeptrptr
        684  2AB 00ABF8F0 Xadd_tooth
        685  2AC 00ABB710 Xall_tightcuts
        686  2AD 00AC0D10 Xbasicclique
        687  2AE 00AC0550 Xbasiccliques
        688  2AF 00AD1140 Xblinkalloc
        689  2B0 00AD11E0 Xblinkfree
        690  2B1 00AC8220 Xblobcuts
        691  2B2 00ABDA30 Xblobsviolated
        692  2B3 00ABDE90 Xblockcombs
        693  2B4 00AD1200 Xblockptralloc
        694  2B5 00AD12A0 Xblockptrfree
        695  2B6 00ACB1D0 Xbuildgraph
        696  2B7 00AD5A10 Xbuildpseudonodelist
        697  2B8 00AD5BF0 Xbuildpseudonodenumbers
        698  2B9 00AC3C10 Xcheckclique
        699  2BA 00AC2DA0 Xcheckcomb
        700  2BB 00AC4850 Xcleancomb
        701  2BC 00AD0B10 Xclinkalloc
        702  2BD 00AD0BB0 Xclinkfree
        703  2BE 00AC77B0 Xclique_hash_value
        704  2BF 00AD14A0 Xcliquealloc
        705  2C0 00AC2E70 Xcliquefluff
        706  2C1 00AD1540 Xcliquefree
        707  2C2 00AC5310 Xcliquetree
        708  2C3 00AC7C40 Xcliquetree_slack_rhs_flow
        709  2C4 00AC5370 Xcliquetree_work
        710  2C5 00AD7BB0 Xcliquetrees
        711  2C6 00AC7700 Xcomb_hash_value
        712  2C7 00AC3440 Xcombfluff
        713  2C8 00AD0F90 Xcombhashalloc
        714  2C9 00AD1030 Xcombhashfree
        715  2CA 00AD77D0 Xconsecutiveones
        716  2CB 00AD1380 Xcplane_list_free
        717  2CC 00AC88D0 Xcplane_to_iplane
        718  2CD 00AD12C0 Xcplanealloc
        719  2CE 00AD1360 Xcplanefree
        720  2CF 00AC0420 Xcurrentedge
        721  2D0 00AC76D0 Xcut_hash_value
        722  2D1 00AC78C0 Xcutchecksout
        723  2D2 00AD0ED0 Xcutnodeptralloc
        724  2D3 00AD0F70 Xcutnodeptrfree
        725  2D4 00ACB170 Xcuttree_free
        726  2D5 00AD1620 Xcuttree_nodealloc
        727  2D6 00AD1660 Xcuttree_nodefree
        728  2D7 00AD5F40 Xdestroypseudonodelist
        729  2D8 00AC9510 Xdumpchvatalcomb
        730  2D9 00AC9610 Xdumpcliquetree
        731  2DA 00AD5C10 Xdumppseudograph
        732  2DB 00AD5E10 Xdumppseudograph_edgelist
        733  2DC 00AD16E0 Xedge_list_free
        734  2DD 00AD1680 Xedgealloc
        735  2DE 00AD16C0 Xedgefree
        736  2DF 00AD0870 Xedgeptr_list_free
        737  2E0 00AD07B0 Xedgeptralloc
        738  2E1 00AD0850 Xedgeptrfree
        739  2E2 00AD1560 Xeqnalloc
        740  2E3 00AD1600 Xeqnfree
        741  2E4 00AC16E0 Xexactblossomcheck
        742  2E5 00AC16D0 Xexactblossoms_run
        743  2E6 00AC9D40 Xexactcutcheck
        744  2E7 00AD75F0 Xexactsubtours
        745  2E8 00AD1050 Xextralink_list_free
        746  2E9 00AD67E0 Xfastcuts
        747  2EA 00AD7360 Xfastsubtours
        748  2EB 00AC9770 Xflow
        749  2EC 00AC8020 Xfreecplanelist
        750  2ED 00AC8780 Xfreecplanestruct
        751  2EE 00ACB370 Xfreegraph
        752  2EF 00AC8850 Xfreeiplanestruct
        753  2F0 00ABD990 Xfreepancake
        754  2F1 00AC8810 Xfreeteeth
        755  2F2 00ABFFF0 Xglobalcombs
        756  2F3 00ACA250 Xgomory_hu
        757  2F4 00AD6730 Xheavy_edge_cuts
        758  2F5 00AC3F10 Xhistok
        759  2F6 00AC86B0 Xinduced_edges_flow
        760  2F7 00AC7620 Xinit_hash_values
        761  2F8 00AD0C90 Xintptr_list_free
        762  2F9 00AD0BD0 Xintptralloc
        763  2FA 00AD0C70 Xintptrfree
        764  2FB 00AD0D80 Xintptrptr_list_free
        765  2FC 00AD0DB0 Xintptrptr_list_freeall
        766  2FD 00AD0CC0 Xintptrptralloc
        767  2FE 00AD0D60 Xintptrptrfree
        768  2FF 00AD1470 Xiplane_list_free
        769  300 00AC8A50 Xiplane_to_cplane
        770  301 00AC8F90 Xiplane_to_portablecut
        771  302 00AD13B0 Xiplanealloc
        772  303 00AD1450 Xiplanefree
        773  304 00AC7B30 Xloadcplane
        774  305 00AC7EE0 Xloadcplane_cut
        775  306 00ACB410 Xloadx
        776  307 00ABF920 Xlocalcombs
        777  308 00ABFA60 Xlocalshrink_a
        778  309 00ABFCB0 Xlocalshrink_b
        779  30A 00ABFDE0 Xlocalshrink_c
        780  30B 00ABF6F0 Xmarktooth
        781  30C 00AC0500 Xmarktoothend
        782  30D 00AC9FB0 Xmincut
        783  30E 00AD0A20 Xneckedgeptr_list_free
        784  30F 00AD0960 Xneckedgeptralloc
        785  310 00AD0A00 Xneckedgeptrfree
        786  311 00AD79C0 Xnecklacecuts
        787  312 00ACB450 Xnecklaces
        788  313 00ACDA40 Xnewkids
        789  314 00AD1710 Xnodealloc
        790  315 00AD1750 Xnodefree
        791  316 00AD0360 Xnodeptr_list_free
        792  317 00ACF0C0 Xnodeptralloc
        793  318 00AD0340 Xnodeptrfree
        794  319 00AD06C0 Xnodeptrptr_list_free
        795  31A 00AD0600 Xnodeptrptralloc
        796  31B 00AD06A0 Xnodeptrptrfree
        797  31C 00AC2470 Xolaf
        798  31D 00AC8060 Xolaf_combs
        799  31E 00ABC590 Xpancakex
        800  31F 00AC8BD0 Xportablecut_to_cplane
        801  320 00AC8D30 Xportablecut_to_handles_and_teeth
        802  321 00AC8E60 Xportablecut_to_iplane
        803  322 00AC9210 Xprintchvatalcomb
        804  323 00AC93A0 Xprintcliquetree
        805  324 00AD6670 Xrebuildcadj
        806  325 00AC0460 Xrepeat_1_shrink
        807  326 00ACA010 Xrunconnectcuts
        808  327 00AD7E40 Xsearch_cutpool_for_slack_cliques
        809  328 00AC0560 Xsearchbasiccliques
        810  329 00AD5FD0 Xshrinkprocess
        811  32A 00ABDC00 Xshrinksmallblobs
        812  32B 00AD64A0 Xsimpleshrink
        813  32C 00AC8340 Xslackclique
        814  32D 00AD7080 Xslowcuts
        815  32E 00AC3BC0 Xtemp_combcheck
        816  32F 00AC3B60 Xtemp_combfluff
        817  330 00AC7930 Xtemp_doblossom
        818  331 00ABDD50 Xtightblobs
        819  332 00AD0450 Xunion_nodeptr
        820  333 00AC7E70 Xviolated_clique_flow
        821  334 013C1958 ZERO_
        822  335 000535B0 _Z10CreatePathRKNSt3__112basic_stringIcNS_11char_traitsIcEENS_9allocatorIcEEEE
        823  336 003217D0 _Z10EndSurfaceP7Surface
        824  337 00322710 _Z10FindVolumei
        825  338 00320850 _Z10FreeVertexPvS_
        826  339 003224E0 _Z10FreeVolumePvS_
        827  33A 000477F0 _Z10GetOptionsbb
        828  33B 000847D0 _Z10GmshRemotev
        829  33C 006FFEF0 _Z10HSV_to_RGBdddPdS_S_
        830  33D 001A8020 _Z10IsoSimplexPdS_S_S_dS_S_S_S_
        831  33E 00074690 _Z10List_ResetP6List_T
        832  33F 00073FC0 _Z10List_WriteP6List_TiPv
        833  340 003852B0 _Z10MElementBBPvPdS0_
        834  341 00323900 _Z10NEWSURFACEv
        835  342 0066BC00 _Z10NumberDofsINSt3__121__tree_const_iteratorIP8MElementPNS0_11__tree_nodeIS3_PvEExEE10dofManagerIdEEvR17FunctionSpaceBaseT_SD_RT0_
        836  343 00046E20 _Z10PrintUsageRKNSt3__112basic_stringIcNS_11char_traitsIcEENS_9allocatorIcEEEE
        837  344 0032CE70 _Z10ProtudeXYZRdS_S_P13ExtrudeParams
        838  345 007007B0 _Z10RGB_to_HSVdddPdS_S_
        839  346 00583540 _Z10RefineMeshP6GModelbbb
        840  347 00332AB0 _Z10SplitCurveiP6List_TS0_
        841  348 00053E40 _Z10SystemCallRKNSt3__112basic_stringIcNS_11char_traitsIcEENS_9allocatorIcEEEEb
        842  349 00074CE0 _Z10Tree_QueryP6Tree_TPv
        843  34A 00053500 _Z10UnlinkFileRKNSt3__112basic_stringIcNS_11char_traitsIcEENS_9allocatorIcEEEE
        844  34B 003E0360 _Z10alphaShapeP12MTetrahedron
        845  34C 000E3360 _Z10angle_02pid
        846  34D 000E33B0 _Z10angle_planPdS_S_S_
        847  34E 007EBA40 _Z10annAllocPtid
        848  34F 007EB9D0 _Z10annPrintPtPdiRNSt3__113basic_ostreamIcNS0_11char_traitsIcEEEE
        849  350 00276FA0 _Z10assignFaceP5GFaceRNSt3__13setIP8MElementNS1_4lessIS4_EENS1_9allocatorIS4_EEEE
        850  351 000752E0 _Z10avl_deleteP15avl_tree_structPPvS2_
        851  352 00074F70 _Z10avl_insertP15avl_tree_structPvS1_
        852  353 00074ED0 _Z10avl_lookupP15avl_tree_structPvPS1_
        853  354 00074F60 _Z10avl_numcmpPKvS0_
        854  355 008B7CE0 _Z10barycenterPK10DI_ElementS1_RKNSt3__16vectorIP9gLevelsetNS2_9allocatorIS5_EEEE
        855  356 0099C900 _Z10catchPausev
        856  357 000E4530 _Z10char2floatc
        857  358 0055E4C0 _Z10cmp_hedgesRKNSt3__14pairI5MEdgeyEES4_
        858  359 003DD710 _Z10convertInti
        859  35A 000E4EA0 _Z10eigenvaluePA3_dPd
        860  35B 00D0DC50 _Z10face_edgesPK5GFace
        861  35C 007EF9D0 _Z10fair_splitPPdPiRK11ANNorthRectiiRiRdS5_
        862  35D 004B2CC0 _Z10findCavityRNSt3__16vectorI8faceXtetNS_9allocatorIS1_EEEERNS0_IP5MTet4NS2_IS7_EEEEP7MVertexS7_
        863  35E 000E4500 _Z10float2charf
        864  35F 00185DA0 _Z10getNGQHPtsib
        865  360 00184DA0 _Z10getNGQLPtsi
        866  361 00185500 _Z10getNGQQPtsib
        867  362 00185190 _Z10getNGQTPtsib
        868  363 007BC4D0 _Z10gmsh_yylexv
        869  364 00D2EE50 _Z10i4mat_rrefiiPi
        870  365 00895A90 _Z10isLastQInVRKNSt3__16vectorIP7DI_QuadNS_9allocatorIS2_EEEEi
        871  366 00D2F740 _Z10ksub_next4iiPiRb
        872  367 007E8100 _Z10preProcessRKNSt3__112basic_stringIcNS_11char_traitsIcEENS_9allocatorIcEEEES7_
        873  368 008B7ED0 _Z10qualityTetdddddddddddd
        874  369 008961F0 _Z10qualityTriPK8DI_PointS1_S1_
        875  36A 007CD7E0 _Z10read_arrayNSt3__112basic_stringIcNS_11char_traitsIcEENS_9allocatorIcEEEEc
        876  36B 008BD830 _Z10recurAddLsP12RecurElement
        877  36C 00D2FD80 _Z10s_len_trimNSt3__112basic_stringIcNS_11char_traitsIcEENS_9allocatorIcEEEE
        878  36D 008BCE80 _Z10signChangeP12RecurElementPK10DI_ElementRKNSt3__16vectorIP9gLevelsetNS4_9allocatorIS7_EEEEPPd
        879  36E 00275A00 _Z10topoExistsP6GModel
        880  36F 003DD700 _Z10updateFltkv
        881  370 009EC0A0 _Z10validFacesR5PrismRNSt3__13mapIP7MVertexNS1_3setIP8MElementNS1_4lessIS7_EENS1_9allocatorIS7_EEEENS8_IS4_EENSA_INS1_4pairIKS4_SC_EEEEEE
        882  371 0062E9D0 _Z11CSRList_AddP9CSRList_TPKv
        883  372 0062EA80 _Z11CSRList_NbrP9CSRList_T
        884  373 00037D80 _Z11ColorOptioniPKciS0_Rjb
        885  374 00321870 _Z11CreateCurveiiiP6List_TS0_iiddRb
        886  375 001A8D00 _Z11CutTrianglePdS_S_S_ddS_S_S_S_
        887  376 00324180 _Z11DeleteCurveib
        888  377 00323F60 _Z11DeletePointib
        889  378 00327960 _Z11DilatShapesddddddP6List_T
        890  379 003226B0 _Z11FindSurfacei
        891  37A 007D1D90 _Z11FixPathNameRKNSt3__112basic_stringIcNS_11char_traitsIcEENS_9allocatorIcEEEE
        892  37B 00322360 _Z11FreeSurfacePvS_
        893  37C 00053460 _Z11GetHostNamev
        894  37D 00038120 _Z11InitOptionsi
        895  37E 001A7DC0 _Z11IsoTrianglePdS_S_S_dS_S_S_
        896  37F 000536E0 _Z11KillProcessi
        897  380 000746A0 _Z11List_ActionP6List_TPFvPvS1_E
        898  381 00073D30 _Z11List_Createiii
        899  382 00073DF0 _Z11List_DeleteP6List_T
        900  383 00074590 _Z11List_InvertP6List_TS0_
        901  384 00074410 _Z11List_PQueryP6List_TPvPFiPKvS3_E
        902  385 00074830 _Z11List_RemoveP6List_Ti
        903  386 00074310 _Z11List_SearchP6List_TPvPFiPKvS3_E
        904  387 000741C0 _Z11List_UniqueP6List_TPFiPKvS2_E
        905  388 00334820 _Z11NEWPHYSICALv
        906  389 000583C0 _Z11OpenProjectRKNSt3__112basic_stringIcNS_11char_traitsIcEENS_9allocatorIcEEEEb
        907  38A 00055350 _Z11ParseStringRKNSt3__112basic_stringIcNS_11char_traitsIcEENS_9allocatorIcEEEEb
        908  38B 00187DA0 _Z11SortHilbertRNSt3__16vectorIP7MVertexNS_9allocatorIS2_EEEE
        909  38C 000680B0 _Z11SplitStringRKNSt3__112basic_stringIcNS_11char_traitsIcEENS_9allocatorIcEEEEcb
        910  38D 00074DB0 _Z11Tree_ActionP6Tree_TPFvPvS1_E
        911  38E 00074B20 _Z11Tree_CreateiPFiPKvS0_E
        912  38F 00074B60 _Z11Tree_DeleteP6Tree_T
        913  390 00074BA0 _Z11Tree_DeleteP6Tree_TPFvPvE
        914  391 00074C40 _Z11Tree_InsertP6Tree_TPv
        915  392 00074D30 _Z11Tree_PQueryP6Tree_TPv
        916  393 00074CB0 _Z11Tree_SearchP6Tree_TPv
        917  394 007B1A80 _Z11addEmbeddediNSt3__16vectorIiNS_9allocatorIiEEEEii
        918  395 003E0370 _Z11alphaShapesP7GRegiondRNSt3__16vectorINS2_IP12MTetrahedronNS1_9allocatorIS4_EEEENS5_IS7_EEEERNS2_INS2_I5MFaceNS5_ISB_EEEENS5_ISD_EEEE
        919  396 007EBAD0 _Z11annAllocPtsii
        920  397 007F1BD0 _Z11annBnds2BoxRK11ANNorthRectiiP16ANNorthHalfSpaceRS_
        921  398 007F1A40 _Z11annBox2BndsRK11ANNorthRectS1_iRiRP16ANNorthHalfSpace
        922  399 007F1890 _Z11annBoxSplitPPdPiiiR11ANNorthRectRi
        923  39A 007F1080 _Z11annEnclCubePPdPiiiR11ANNorthRect
        924  39B 007F0F20 _Z11annEnclRectPPdPiiiR11ANNorthRect
        925  39C 008975A0 _Z11bestQualityP8DI_PointS0_S0_S0_S0_S0_PP8DI_TetraS3_S3_RNSt3__16vectorIP12DI_QualErrorNS4_9allocatorIS7_EEEE
        926  39D 008963C0 _Z11bestQualityPK8DI_PointS1_S1_S1_PP11DI_TriangleS4_
        927  39E 00896CD0 _Z11bestQualityPK8DI_PointS1_S1_S1_S1_PP8DI_TetraS4_
        928  39F 00437050 _Z11buildMetricP5GFacePdS1_
        929  3A0 00CA9F00 _Z11computeSICNRKNSt3__16vectorIP8MElementNS_9allocatorIS2_EEEERdS8_
        930  3A1 004BE650 _Z11connectTetsINSt3__111__wrap_iterIPP5MTet4EEEvT_S6_PKNS0_3setI5MFace13MFaceLessThanNS0_9allocatorIS8_EEEE
        931  3A2 004BD620 _Z11connectTetsINSt3__115__list_iteratorIP5MTet4PvEEEvT_S6_PKNS0_3setI5MFace13MFaceLessThanNS0_9allocatorIS8_EEEE
        932  3A3 004C1BD0 _Z11connectTetsINSt3__121__tree_const_iteratorIP5MTet4PNS0_11__tree_nodeIS3_PvEExEEEvT_S9_PKNS0_3setI5MFace13MFaceLessThanNS0_9allocatorISB_EEEE
        933  3A4 004B24A0 _Z11connectTetsRNSt3__14listIP5MTet4NS_9allocatorIS2_EEEEPKNS_3setI5MFace13MFaceLessThanNS3_IS8_EEEE
        934  3A5 004B24B0 _Z11connectTetsRNSt3__16vectorIP5MTet4NS_9allocatorIS2_EEEEPKNS_3setI5MFace13MFaceLessThanNS3_IS8_EEEE
        935  3A6 0022F430 _Z11countInListRNSt3__14listIP5GEdgeNS_9allocatorIS2_EEEES2_
        936  3A7 001A53A0 _Z11decasteljaudRK7SPoint3S1_S1_RNSt3__16vectorIS_NS2_9allocatorIS_EEEERNS3_IdNS4_IdEEEE
        937  3A8 001A5BF0 _Z11decasteljaudRK7SPoint3S1_S1_S1_RNSt3__16vectorIS_NS2_9allocatorIS_EEEERNS3_IdNS4_IdEEEE
        938  3A9 001A6370 _Z11decasteljaudRKNSt3__16vectorI7SPoint3NS_9allocatorIS1_EEEERS4_RNS0_IdNS2_IdEEEE
        939  3AA 00073CE0 _Z11fcmp_absintPKvS0_
        940  3AB 00073D00 _Z11fcmp_doublePKvS0_
        941  3AC 00185EB0 _Z11getGQPriPtsib
        942  3AD 001863B0 _Z11getGQPyrPtsi
        943  3AE 001858B0 _Z11getGQTetPtsib
        944  3AF 007BE9A0 _Z11gmsh_yyfreePv
        945  3B0 000E4560 _Z11gradSimplexPdS_S_S_S_
        946  3B1 00D2E070 _Z11i4mat_printiiPiNSt3__112basic_stringIcNS0_11char_traitsIcEENS0_9allocatorIcEEEE
        947  3B2 00D2F4A0 _Z11i4vec_printiPiNSt3__112basic_stringIcNS0_11char_traitsIcEENS0_9allocatorIcEEEE
        948  3B3 00066A70 _Z11insertOneBBPvPdS0_P6bucket
        949  3B4 00895370 _Z11isLastLnInVRKNSt3__16vectorIP7DI_LineNS_9allocatorIS2_EEEEi
        950  3B5 00895760 _Z11isLastTrInVRKNSt3__16vectorIP11DI_TriangleNS_9allocatorIS2_EEEEi
        951  3B6 007EF610 _Z11midpt_splitPPdPiRK11ANNorthRectiiRiRdS5_
        952  3B7 00D0DFF0 _Z11model_edgesPK6GModel
        953  3B8 00D0DA40 _Z11model_facesPK6GModel
        954  3B9 0099CA00 _Z11mvprintLeftiPKcz
        955  3BA 0099CA60 _Z11mvprintListiiNSt3__14listIPcNS_9allocatorIS1_EEEEi
        956  3BB 0099C940 _Z11mvterminatev
        957  3BC 007BDE50 _Z11parsestringc
        958  3BD 00898A90 _Z11quadMidNodePK8DI_PointS1_S1_PK10DI_ElementRKNSt3__16vectorIP9gLevelsetNS5_9allocatorIS8_EEEE
        959  3BE 00D2FA40 _Z11r8vec_printiPdNSt3__112basic_stringIcNS0_11char_traitsIcEENS0_9allocatorIcEEEE
        960  3BF 0033C840 _Z11scriptEmbedRKNSt3__112basic_stringIcNS_11char_traitsIcEENS_9allocatorIcEEEES7_RNS_6vectorIiNS3_IiEEEEii
        961  3C0 00529110 _Z12BGM_MeshSizeP7GEntityddddd
        962  3C1 00058230 _Z12ClearProjectv
        963  3C2 003205C0 _Z12CompareCurvePKvS0_
        964  3C3 00320730 _Z12CreateVertexiddP11gmshSurfaced
        965  3C4 00320610 _Z12CreateVertexiddddd
        966  3C5 003223F0 _Z12CreateVolumeii
        967  3C6 00324D20 _Z12DeleteVolumeib
        968  3C7 0032EBE0 _Z12ExtrudeCurveiiddddddddddPP7SurfaceiP13ExtrudeParams
        969  3C8 0032D1A0 _Z12ExtrudePointiiddddddddddPP5CurveS1_iP13ExtrudeParams
        970  3C9 00322760 _Z12FindEdgeLoopi
        971  3CA 0066C630 _Z12FixNodalDofsI10dofManagerIdEEvR17FunctionSpaceBaseP8MElementRT_R14simpleFunctionINS6_7dataVecEER9FilterDof
        972  3CB 00320A40 _Z12FreeEdgeLoopPvS_
        973  3CC 003EC1C0 _Z12GenerateMeshP6GModeli
        974  3CD 000470B0 _Z12GetBuildInfov
        975  3CE 00053260 _Z12GetProcessIdv
        976  3CF 00001A50 _Z12GmshFinalizev
        977  3D0 000029D0 _Z12GmshMainFLTKiPPc
        978  3D1 000683A0 _Z12IsOnelabNameRKNSt3__112basic_stringIcNS_11char_traitsIcEENS_9allocatorIcEEEERS5_
        979  3D2 00074110 _Z12List_PointerP6List_Ti
        980  3D3 00073D90 _Z12List_ReallocP6List_Ti
        981  3D4 003346F0 _Z12NEWCURVELOOPv
        982  3D5 00037B60 _Z12NumberOptioniPKciS0_Rdb
        983  3D6 003E8C20 _Z12OptimizeMeshP6GModelRKNSt3__112basic_stringIcNS1_11char_traitsIcEENS1_9allocatorIcEEEEbi
        984  3D7 00038D00 _Z12PrintOptionsiiiiPKcPNSt3__16vectorINS1_12basic_stringIcNS1_11char_traitsIcEENS1_9allocatorIcEEEENS6_IS8_EEEE
        985  3D8 00327A80 _Z12RotateShapesdddddddP6List_T
        986  3D9 00037910 _Z12StringOptioniPKciS0_RNSt3__112basic_stringIcNS1_11char_traitsIcEENS1_9allocatorIcEEEEb
        987  3DA 00074DD0 _Z12TransferListPvS_
        988  3DB 007EBB60 _Z12annDeallocPtRPd
        989  3DC 007F1440 _Z12annMaxSpreadPPdPiii
        990  3DD 000755E0 _Z12avl_extremumP15avl_tree_structiPPv
        991  3DE 000755C0 _Z12avl_free_genP20avl_generator_struct
        992  3DF 00075460 _Z12avl_init_genP15avl_tree_structi
        993  3E0 0041B1B0 _Z12bestParaboladdddRdS_i
        994  3E1 0043A390 _Z12bowyerWatsonP5GFaceiPNSt3__13mapIP7MVertexS4_NS1_4lessIS4_EENS1_9allocatorINS1_4pairIKS4_S4_EEEEEEPNS2_IS4_7SPoint2S6_NS7_INS8_IS9_SE_EEEEEE
        995  3E2 003A3600 _Z12buildCutMeshP6GModelP9gLevelsetPNSt3__13mapIiNS3_6vectorIP8MElementNS3_9allocatorIS7_EEEENS3_4lessIiEENS8_INS3_4pairIKiSA_EEEEEERNS4_IiP7MVertexSC_NS8_INSD_ISE_SK_EEEEEEPNS4_IiNS4_IiNS3_12basic_stringIcNS3_11char_traitsIcEENS8_IcEEEESC_NS8_INSD_ISE_ST_EEEEEESC_NS8_INSD_ISE_SW_EEEEEEb
        996  3E3 00428E90 _Z12build_chordsRKNSt3__13setIP5GFaceNS_4lessIS2_EENS_9allocatorIS2_EEEERNS_6vectorINS0_IP5GEdgeNS3_ISC_EENS5_ISC_EEEENS5_ISF_EEEEdb
        997  3E4 00590CD0 _Z12delaunayTrglyyyPNSt3__16vectorIP4VertNS_9allocatorIS2_EEEER12tetContainer
        998  3E5 007DB8F0 _Z12extractLogicRKNSt3__112basic_stringIcNS_11char_traitsIcEENS_9allocatorIcEEEERNS_6vectorIS5_NS3_IS5_EEEE
        999  3E6 009D5B80 _Z12fill_min_maxddddPdS_
       1000  3E7 000654C0 _Z12free_bucketsP6bucket
       1001  3E8 00186260 _Z12getNGQPriPtsib
       1002  3E9 001865B0 _Z12getNGQPyrPtsi
       1003  3EA 001859A0 _Z12getNGQTetPtsib
       1004  3EB 0060C7F0 _Z12getNeighborsRKNSt3__16vectorIP8MElementNS_9allocatorIS2_EEEERKN10robin_hood6detail5TableILb1ELy80EP7MVertexS5_NS8_4hashISC_vEENS_8equal_toISC_EEEE
       1005  3EC 008C0F40 _Z12gmp_blas_dotPA1_12__mpz_structyS1_yS1_y
       1006  3ED 008C10F0 _Z12gmp_blas_inzyPA1_12__mpz_structy
       1007  3EE 008C0FB0 _Z12gmp_blas_rotyP12__mpz_structS0_PA1_S_yS0_S0_S2_y
       1008  3EF 007BE730 _Z12gmsh_yyallocy
       1009  3F0 007B2BC0 _Z12gmsh_yyerrorPKc
       1010  3F1 007C05A0 _Z12gmsh_yyflushv
       1011  3F2 00791C60 _Z12gmsh_yyparsev
       1012  3F3 00D2F460 _Z12i4vec_is_oneiPi
       1013  3F4 00791BE0 _Z12init_optionsi
       1014  3F5 001FE830 _Z12intersectionRK8SMetric3S1_
       1015  3F6 00421BD0 _Z12maxDistParamRKNSt3__16vectorIdNS_9allocatorIdEEEES5_
       1016  3F7 0099CA20 _Z12mvprintRightiPKcz
       1017  3F8 00033A10 _Z12opt_view_maxiid
       1018  3F9 00033CD0 _Z12opt_view_miniid
       1019  3FA 004B6C00 _Z12optimizeMeshP7GRegionRKN13qmTetrahedron8MeasuresE
       1020  3FB 001866B0 _Z12quadToTriJacdd
       1021  3FC 00443CE0 _Z12recoverEdgesRNSt3__16vectorIP5MTri3NS_9allocatorIS2_EEEERNS0_I5MEdgeNS3_IS7_EEEE
       1022  3FD 008BD8E0 _Z12recurClearLsP12RecurElement
       1023  3FE 007D1A00 _Z12removeBlanksRKNSt3__112basic_stringIcNS_11char_traitsIcEENS_9allocatorIcEEEE
       1024  3FF 00343910 _Z12scriptAddBoxRKNSt3__112basic_stringIcNS_11char_traitsIcEENS_9allocatorIcEEEES7_S7_S7_S7_S7_S7_
       1025  400 00345980 _Z12scriptDilateRKNSt3__112basic_stringIcNS_11char_traitsIcEENS_9allocatorIcEEEERKNS_6vectorINS_4pairIiiEENS3_ISA_EEEES7_S7_S7_S7_S7_S7_b
       1026  401 00347950 _Z12scriptFilletRKNSt3__112basic_stringIcNS_11char_traitsIcEENS_9allocatorIcEEEERKNS_6vectorIiNS3_IiEEEESC_S7_
       1027  402 00345EB0 _Z12scriptMirrorRKNSt3__112basic_stringIcNS_11char_traitsIcEENS_9allocatorIcEEEERKNS_6vectorINS_4pairIiiEENS3_ISA_EEEES7_S7_S7_S7_b
       1028  403 00345400 _Z12scriptRotateRKNSt3__112basic_stringIcNS_11char_traitsIcEENS_9allocatorIcEEEERKNS_6vectorINS_4pairIiiEENS3_ISA_EEEES7_S7_S7_S7_S7_S7_S7_b
       1029  404 007ECE20 _Z12selectDecompPPdPiiiRK11ANNorthRectPFvS0_S1_S4_iiRiRdS5_E13ANNshrinkRuleRS2_
       1030  405 007BDAA0 _Z12skipcommentsv
       1031  406 004E0F40 _Z12smoothVertexP5MTet4iRKN13qmTetrahedron8MeasuresE
       1032  407 0062FF90 _Z12sortColumns_INSt3__17complexIdEEEviiPiS3_S3_PT_
       1033  408 0062FA90 _Z12sortColumns_IdEviiPiS0_S0_PT_
       1034  409 002AD2F0 _Z12sortEntitiesRKNSt3__14pairIiiEES3_
       1035  40A 0036F950 _Z12sortVerticesRKNSt3__16vectorIP7MVertexNS_9allocatorIS2_EEEERNS0_IcNS3_IcEEEE
       1036  40B 00320580 _Z13CompareVertexPKvS0_
       1037  40C 003205E0 _Z13CompareVolumePKvS0_
       1038  40D 00067C60 _Z13ConvertToHTMLRNSt3__112basic_stringIcNS_11char_traitsIcEENS_9allocatorIcEEEE
       1039  40E 00322280 _Z13CreateSurfaceii
       1040  40F 00324650 _Z13DeleteSurfaceib
       1041  410 00331C10 _Z13ExtrudeShapesiP6List_TddddddddddP13ExtrudeParamsS0_
       1042  411 00038B70 _Z13GetColorTablei
       1043  412 000469C0 _Z13GetMouseUsagev
       1044  413 003E4080 _Z13GetStatisticsPdPA100_db
       1045  414 00001760 _Z13GmshGetOptionRKNSt3__112basic_stringIcNS_11char_traitsIcEENS_9allocatorIcEEEES7_RS5_i
       1046  415 000017B0 _Z13GmshGetOptionRKNSt3__112basic_stringIcNS_11char_traitsIcEENS_9allocatorIcEEEES7_Rdi
       1047  416 00001800 _Z13GmshGetOptionRKNSt3__112basic_stringIcNS_11char_traitsIcEENS_9allocatorIcEEEES7_Rji
       1048  417 000028A0 _Z13GmshMainBatchiPPc
       1049  418 000019D0 _Z13GmshMergeFileRKNSt3__112basic_stringIcNS_11char_traitsIcEENS_9allocatorIcEEEE
       1050  419 00001540 _Z13GmshSetOptionRKNSt3__112basic_stringIcNS_11char_traitsIcEENS_9allocatorIcEEEES7_S5_i
       1051  41A 00001590 _Z13GmshSetOptionRKNSt3__112basic_stringIcNS_11char_traitsIcEENS_9allocatorIcEEEES7_di
       1052  41B 000015F0 _Z13GmshSetOptionRKNSt3__112basic_stringIcNS_11char_traitsIcEENS_9allocatorIcEEEES7_ji
       1053  41C 00001A30 _Z13GmshWriteFileRKNSt3__112basic_stringIcNS_11char_traitsIcEENS_9allocatorIcEEEE
       1054  41D 00074470 _Z13List_SuppressP6List_TPvPFiPKvS3_E
       1055  41E 00385540 _Z13MElementInElePvPd
       1056  41F 0098D9F0 _Z13MeshOptimizerRNSt3__16vectorIP7GEntityNS_9allocatorIS2_EEEER17MeshOptParameters
       1057  420 00065450 _Z13Octree_CreateiPdS_PFvPvS_S_EPFvS0_S_EPFiS0_S_E
       1058  421 000655C0 _Z13Octree_DeleteP6Octree
       1059  422 00065640 _Z13Octree_InsertPvP6Octree
       1060  423 00065720 _Z13Octree_SearchPdP6Octree
       1061  424 0055FBD0 _Z13PartitionMeshP6GModeli
       1062  425 007C9890 _Z13QuoteExecPathRKNSt3__112basic_stringIcNS_11char_traitsIcEENS_9allocatorIcEEEE
       1063  426 000386C0 _Z13ReInitOptionsi
       1064  427 003E9E60 _Z13RecombineMeshP6GModel
       1065  428 000676B0 _Z13SplitFileNameRKNSt3__112basic_stringIcNS_11char_traitsIcEENS_9allocatorIcEEEE
       1066  429 00053730 _Z13SystemCallExeRKNSt3__112basic_stringIcNS_11char_traitsIcEENS_9allocatorIcEEEES7_b
       1067  42A 00074D60 _Z13Tree_SuppressP6Tree_TPv
       1068  42B 00395610 _Z13_myGetFaceRepP11MHexahedroniPdS1_S1_P8SVector3i
       1069  42C 005CA890 _Z13analyzeCornerRNSt3__18multimapIP7MVertexP7cross2dNS_4lessIS2_EENS_9allocatorINS_4pairIKS2_S4_EEEEEES2_
       1070  42D 007EBC30 _Z13annAssignRectiR11ANNorthRectRKS_
       1071  42E 007EBB90 _Z13annDeallocPtsRPPd
       1072  42F 007F16F0 _Z13annPlaneSplitPPdPiiidRiS2_
       1073  430 007F21C0 _Z13annPrintStats7ANNbool
       1074  431 007F1C70 _Z13annResetStatsi
       1075  432 0021CA50 _Z13bfgs_callbackRKN6alglib13real_1d_arrayERdRS0_Pv
       1076  433 00D0EE10 _Z13buildBoundaryRKNSt3__16vectorIP8MElementNS_9allocatorIS2_EEEERNS0_IP7MVertexNS3_IS9_EEEE
       1077  434 0028D730 _Z13classifyFacesP6GModeld
       1078  435 00294740 _Z13classifyFacesP6GModeldbbd
       1079  436 00367330 _Z13copy_elementsP6GModelS0_RNSt3__13mapIP7MVertexS4_NS1_4lessIS4_EENS1_9allocatorINS1_4pairIKS4_S4_EEEEEEPNS1_6vectorI4PairIP7GVertexSH_ENS7_ISI_EEEEPNSE_ISF_IP5GEdgeSN_ENS7_ISO_EEEEPNSE_ISF_IP5GFaceST_ENS7_ISU_EEEEPNSE_ISF_IP7GRegionSZ_ENS7_IS10_EEEE
       1080  437 003660E0 _Z13copy_verticesP6GModelS0_RNSt3__13mapIP7MVertexS4_NS1_4lessIS4_EENS1_9allocatorINS1_4pairIKS4_S4_EEEEEEPNS1_6vectorI4PairIP7GVertexSH_ENS7_ISI_EEEEPNSE_ISF_IP5GEdgeSN_ENS7_ISO_EEEEPNSE_ISF_IP5GFaceST_ENS7_ISU_EEEEPNSE_ISF_IP7GRegionSZ_ENS7_IS10_EEEE
       1081  438 000E4DD0 _Z13eigenvalue2x2PA2_dPd
       1082  439 003C3000 _Z13equalVerticesRKNSt3__16vectorIP7MVertexNS_9allocatorIS2_EEEES7_
       1083  43A 00D16B20 _Z13fillGFaceInfoP5GFaceR9GFaceInfo
       1084  43B 00D150E0 _Z13fillGFaceInfoP5GFaceR9GFaceInfoRKNSt3__16vectorIP9MTriangleNS3_9allocatorIS6_EEEE
       1085  43C 000EA990 _Z13fillMeanPlanePdS_S_R10mean_plane
       1086  43D 005C72C0 _Z13filterColumnsRNSt3__16vectorIP8MElementNS_9allocatorIS2_EEEERNS_3mapIS2_S5_NS_4lessIS2_EENS3_INS_4pairIKS2_S5_EEEEEE
       1087  43E 007CD770 _Z13find_in_arrayiiRKNSt3__16vectorINS0_IdNS_9allocatorIdEEEENS1_IS3_EEEE
       1088  43F 0031A8E0 _Z13getMATLABNamei
       1089  440 007B09A0 _Z13getParentTagsiP6List_TS0_
       1090  441 008C0ED0 _Z13gmp_blas_axpyyP12__mpz_structPA1_S_yS2_y
       1091  442 008C0E70 _Z13gmp_blas_copyyPA1_12__mpz_structyS1_y
       1092  443 008C0E30 _Z13gmp_blas_scalyP12__mpz_structPA1_S_y
       1093  444 008C0DA0 _Z13gmp_blas_swapyPA1_12__mpz_structyS1_y
       1094  445 007BED70 _Z13gmsh_yyget_inv
       1095  446 007BEDC0 _Z13gmsh_yyset_inP6_iobuf
       1096  447 00417BA0 _Z13goldenSectionddRdS_ddddS_Pdi
       1097  448 00D2F2E0 _Z13i4mat_u_solveiPiS_
       1098  449 004B37C0 _Z13insertVertexBRNSt3__16vectorI8faceXtetNS_9allocatorIS1_EEEERNS0_IP5MTet4NS2_IS7_EEEEP7MVertexddRNS0_IdNS2_IdEEEESF_S7_R12MTet4FactoryRNS_3setIS7_14compareTet4PtrS8_EERKNSI_I5MFace13MFaceLessThanNS2_ISM_EEEE
       1099  44A 00200DA0 _Z13interpolationRK8SMetric3S1_S1_S1_ddd
       1100  44B 00200C70 _Z13interpolationRK8SMetric3S1_S1_dd
       1101  44C 00200BB0 _Z13interpolationRK8SMetric3S1_d
       1102  44D 0042EBC0 _Z13meshGFaceBamgP5GFace
       1103  44E 0099C9E0 _Z13mvprintCenteriPKcz
       1104  44F 000E2A10 _Z13normal2pointsddddddPd
       1105  450 000E2910 _Z13normal3pointsdddddddddPd
       1106  451 009D3A90 _Z13old_algo_hexav
       1107  452 0002D690 _Z13opt_mesh_clipiid
       1108  453 0002D880 _Z13opt_mesh_dualiid
       1109  454 00030C60 _Z13opt_post_linkiid
       1110  455 00031140 _Z13opt_view_axesiid
       1111  456 000318A0 _Z13opt_view_clipiid
       1112  457 00027A20 _Z13opt_view_nameiiRKNSt3__112basic_stringIcNS_11char_traitsIcEENS_9allocatorIcEEEE
       1113  458 00035010 _Z13opt_view_timeiid
       1114  459 00035680 _Z13opt_view_typeiid
       1115  45A 00033B50 _Z13opt_view_xmaxiid
       1116  45B 00033E20 _Z13opt_view_xminiid
       1117  45C 00033BD0 _Z13opt_view_ymaxiid
       1118  45D 00033EA0 _Z13opt_view_yminiid
       1119  45E 00033C50 _Z13opt_view_zmaxiid
       1120  45F 00033F20 _Z13opt_view_zminiid
       1121  460 00621500 _Z13quadqsCleanupP6GModel
       1122  461 00433500 _Z13refineMeshBDSP5GFaceR8BDS_MeshibPNSt3__13mapIP7MVertexP9BDS_PointNS3_4lessIS6_EENS3_9allocatorINS3_4pairIKS6_S8_EEEEEEPNS4_IS8_S6_13PointLessThanNSB_INSC_IKS8_S6_EEEEEEPNS3_6vectorI7SPoint2NSB_ISP_EEEE
       1123  462 004E2DB0 _Z13refineMeshMMGP7GRegion
       1124  463 003443E0 _Z13scriptAddConeRKNSt3__112basic_stringIcNS_11char_traitsIcEENS_9allocatorIcEEEES7_S7_S7_S7_S7_S7_S7_S7_S7_
       1125  464 003421E0 _Z13scriptAddDiskRKNSt3__112basic_stringIcNS_11char_traitsIcEENS_9allocatorIcEEEES7_S7_S7_S7_S7_
       1126  465 00346DA0 _Z13scriptAddPipeRKNSt3__112basic_stringIcNS_11char_traitsIcEENS_9allocatorIcEEEERKNS_6vectorINS_4pairIiiEENS3_ISA_EEEERKNS8_IiNS3_IiEEEE
       1127  466 00347500 _Z13scriptBooleanRKNSt3__112basic_stringIcNS_11char_traitsIcEENS_9allocatorIcEEEES7_RKNS_6vectorINS_4pairIiiEENS3_ISA_EEEESE_ii
       1128  467 00346320 _Z13scriptExtrudeRKNSt3__112basic_stringIcNS_11char_traitsIcEENS_9allocatorIcEEEERKNS_6vectorINS_4pairIiiEENS3_ISA_EEEES7_S7_S7_bS7_b
       1129  468 003467B0 _Z13scriptProtudeRKNSt3__112basic_stringIcNS_11char_traitsIcEENS_9allocatorIcEEEERKNS_6vectorINS_4pairIiiEENS3_ISA_EEEES7_S7_S7_S7_S7_S7_S7_bS7_b
       1130  469 000667E0 _Z13searchElementP6bucketPdP6globalPFvPvS1_S1_EPFiS4_S1_E
       1131  46A 007B1340 _Z13setVisibilityRKNSt3__16vectorINS_4pairIiiEENS_9allocatorIS2_EEEEib
       1132  46B 007B1220 _Z13setVisibilityiib
       1133  46C 007EFC70 _Z13sl_fair_splitPPdPiRK11ANNorthRectiiRiRdS5_
       1134  46D 0060CB30 _Z13smoothThePoolP5GFaceRKNSt3__16vectorIP7MVertexNS1_9allocatorIS4_EEEERKN10robin_hood6detail5TableILb1ELy80ES4_NS2_IP8MElementNS5_ISE_EEEENSA_4hashIS4_vEENS1_8equal_toIS4_EEEEbP16SurfaceProjector
       1135  46E 004E1A10 _Z13smooth_obj_3DPdPv
       1136  46F 0044C1B0 _Z13surfaceFaceUVP8MElementP5GFaceb
       1137  470 000E35D0 _Z13triangle_areaPdS_S_
       1138  471 005292B0 _Z14BGM_MeshMetricP7GEntityddddd
       1139  472 000530E0 _Z14CheckResourcesv
       1140  473 003205D0 _Z14CompareSurfacePKvS0_
       1141  474 00320960 _Z14CreateEdgeLoopiP6List_T
       1142  475 00322BA0 _Z14DuplicateCurveP5Curve
       1143  476 003233F0 _Z14DuplicateCurveP5GEdge
       1144  477 0032FF30 _Z14ExtrudeSurfaceiiddddddddddPP6VolumeP13ExtrudeParams
       1145  478 000E50F0 _Z14FindCubicRootsPKdPdS1_
       1146  479 00067580 _Z14FixWindowsPathRKNSt3__112basic_stringIcNS_11char_traitsIcEENS_9allocatorIcEEEE
       1147  47A 004FB4A0 _Z14GFace2PolyMeshiPP8PolyMesh
       1148  47B 0003EDE0 _Z14GetGmshBuildOSv
       1149  47C 0003EDA0 _Z14GetGmshVersionv
       1150  47D 00053200 _Z14GetMemoryUsagev
       1151  47E 000013F0 _Z14GmshInitializeiPPcbb
       1152  47F 00038810 _Z14InitOptionsGUIi
       1153  480 001A7C50 _Z14InterpolateIsoPdS_S_S_diiS_S_S_
       1154  481 00074510 _Z14List_PSuppressP6List_Ti
       1155  482 00334770 _Z14NEWSURFACELOOPv
       1156  483 000656B0 _Z14Octree_ArrangeP6Octree
       1157  484 004F9EC0 _Z14PolyMesh2GFaceP8PolyMeshi
       1158  485 00047700 _Z14PrintBuildInfov
       1159  486 000545B0 _Z14SetBoundingBoxb
       1160  487 00054020 _Z14SetBoundingBoxdddddd
       1161  488 000530C0 _Z14SleepInSecondsd
       1162  489 00327CA0 _Z14SymmetryShapesddddP6List_T
       1163  48A 0035B6F0 _Z14allEdgesLinkediP6List_T
       1164  48B 0035BF70 _Z14allFacesLinkediP6List_T
       1165  48C 0036C500 _Z14angle3VerticesPK7MVertexS1_S1_
       1166  48D 007F0EB0 _Z14annAspectRatioiRK11ANNorthRect
       1167  48E 007F12F0 _Z14annBoxDistancePdS_S_i
       1168  48F 007EBE50 _Z14annMaxPtsVisiti
       1169  490 007F1520 _Z14annMedianSplitPPdPiiiRdi
       1170  491 007F1D60 _Z14annResetCountsv
       1171  492 007F1DA0 _Z14annUpdateStatsv
       1172  493 007AFE80 _Z14assignVariableRKNSt3__112basic_stringIcNS_11char_traitsIcEENS_9allocatorIcEEEEiid
       1173  494 000756A0 _Z14avl_check_treeP15avl_tree_struct
       1174  495 00075620 _Z14avl_free_tableP15avl_tree_structPFvPvES3_
       1175  496 00074EA0 _Z14avl_init_tablePFiPKvS0_E
       1176  497 007CC9D0 _Z14checkIfPresentNSt3__112basic_stringIcNS_11char_traitsIcEENS_9allocatorIcEEEE
       1177  498 000E36E0 _Z14circumCenterXYPdS_S_S_
       1178  499 004E0310 _Z14collapseVertexRNSt3__16vectorIP5MTet4NS_9allocatorIS2_EEEES2_iiRKN13qmTetrahedron8MeasuresE18localMeshModActionPd
       1179  49A 009B2920 _Z14computeBndDistP8MElementid
       1180  49B 00296030 _Z14computeEdgeCutP6GModelRNSt3__16vectorIP5MLineNS1_9allocatorIS4_EEEEi
       1181  49C 004319D0 _Z14delaunayizeBDSP5GFaceR8BDS_MeshRi
       1182  49D 0034C500 _Z14fillPointCloudP5GEdgedRNSt3__16vectorI7SPoint3NS1_9allocatorIS3_EEEE
       1183  49E 00A6DBE0 _Z14fill_touch_bndPiNSt3__16vectorIbNS0_9allocatorIbEEEEi
       1184  49F 007B2E70 _Z14getBoundingBoxiP6List_TS0_
       1185  4A0 008C1120 _Z14gmp_blas_iamaxyPA1_12__mpz_structy
       1186  4A1 008C11D0 _Z14gmp_blas_iaminyPA1_12__mpz_structy
       1187  4A2 007BED80 _Z14gmsh_yyget_outv
       1188  4A3 007BE740 _Z14gmsh_yyreallocPvy
       1189  4A4 007BE4A0 _Z14gmsh_yyrestartP6_iobuf
       1190  4A5 007BEDD0 _Z14gmsh_yyset_outP6_iobuf
       1191  4A6 00D2ECE0 _Z14i4mat_row_swapiiPiii
       1192  4A7 00438F60 _Z14inCircumCircleP9MTrianglePKdS2_R13bidimMeshData
       1193  4A8 001EDC80 _Z14interiorNormalRK7SPoint2S1_S1_
       1194  4A9 004AD4D0 _Z14meshGRegionHxtRNSt3__16vectorIP7GRegionNS_9allocatorIS2_EEEE
       1195  4AA 00A280C0 _Z14normalizeAngleRd
       1196  4AB 00028F30 _Z14opt_general_lciid
       1197  4AC 0002E070 _Z14opt_mesh_lightiid
       1198  4AD 0002E150 _Z14opt_mesh_linesiid
       1199  4AE 0002EAB0 _Z14opt_mesh_nodesiid
       1200  4AF 0002D8B0 _Z14opt_mesh_orderiid
       1201  4B0 000360E0 _Z14opt_print_textiid
       1202  4B1 00027980 _Z14opt_view_groupiiRKNSt3__112basic_stringIcNS_11char_traitsIcEENS_9allocatorIcEEEE
       1203  4B2 00033650 _Z14opt_view_lightiid
       1204  4B3 00035900 _Z14opt_view_size0iid
       1205  4B4 00033520 _Z14opt_view_size1iid
       1206  4B5 00D13A50 _Z14paramOnElementP5GFaceP8MElement
       1207  4B6 00D114B0 _Z14patchFromQuadsP5GFaceRKNSt3__16vectorIP11MQuadrangleNS1_9allocatorIS4_EEEER14GFaceMeshPatchb
       1208  4B7 0096BB10 _Z14printJacobiansP6GModelPKc
       1209  4B8 007F2040 _Z14print_one_statPc11ANNsampStatd
       1210  4B9 0044D380 _Z14removeDiamondsP5GFace
       1211  4BA 007B0D30 _Z14removeEmbeddedRKNSt3__16vectorINS_4pairIiiEENS_9allocatorIS2_EEEEi
       1212  4BB 009DCC60 _Z14remove_sliversRNSt3__13setIP8MElementNS_4lessIS2_EENS_9allocatorIS2_EEEERK3HexS8_
       1213  4BC 009D5930 _Z14rtree_callbackP31surfacePointWithExclusionRegionPv
       1214  4BD 009CBC90 _Z14rtree_callbackP4NodePv
       1215  4BE 005C7160 _Z14rtree_callbackP8MElementPv
       1216  4BF 007D15C0 _Z14sanitizeStringRKNSt3__112basic_stringIcNS_11char_traitsIcEENS_9allocatorIcEEEES7_
       1217  4C0 0033F290 _Z14scriptAddCurveRKNSt3__112basic_stringIcNS_11char_traitsIcEENS_9allocatorIcEEEERNS_6vectorIiNS3_IiEEEES7_
       1218  4C1 0033E480 _Z14scriptAddFieldiRKNSt3__112basic_stringIcNS_11char_traitsIcEENS_9allocatorIcEEEES7_
       1219  4C2 0033D040 _Z14scriptAddPointRKNSt3__112basic_stringIcNS_11char_traitsIcEENS_9allocatorIcEEEES7_S7_S7_S7_
       1220  4C3 00343E60 _Z14scriptAddTorusRKNSt3__112basic_stringIcNS_11char_traitsIcEENS_9allocatorIcEEEES7_S7_S7_S7_S7_S7_
       1221  4C4 00344A60 _Z14scriptAddWedgeRKNSt3__112basic_stringIcNS_11char_traitsIcEENS_9allocatorIcEEEES7_S7_S7_S7_S7_S7_S7_
       1222  4C5 007EF7B0 _Z14sl_midpt_splitPPdPiRK11ANNorthRectiiRiRdS5_
       1223  4C6 000669F0 _Z14xyzInElementBBPdPvPFvS0_S_S_E
       1224  4C7 00700020 _Z15ColorTable_CopyP14GmshColorTable
       1225  4C8 00700180 _Z15ColorTable_DiffP14GmshColorTableS0_
       1226  4C9 003205B0 _Z15CompareEdgeLoopPKvS0_
       1227  4CA 000E4650 _Z15ComputeVonMisesPd
       1228  4CB 00053570 _Z15CreateSingleDirRKNSt3__112basic_stringIcNS_11char_traitsIcEENS_9allocatorIcEEEE
       1229  4CC 00322850 _Z15DuplicateVertexP6Vertex
       1230  4CD 003229F0 _Z15DuplicateVertexP7GVertex
       1231  4CE 00323D40 _Z15DuplicateVolumeP6Volume
       1232  4CF 003227B0 _Z15FindSurfaceLoopi
       1233  4D0 003EA020 _Z15FixPeriodicMeshP6GModel
       1234  4D1 000675A0 _Z15FixRelativePathRKNSt3__112basic_stringIcNS_11char_traitsIcEENS_9allocatorIcEEEES7_
       1235  4D2 00320B50 _Z15FreeSurfaceLoopPvS_
       1236  4D3 00053370 _Z15GetAbsolutePathRKNSt3__112basic_stringIcNS_11char_traitsIcEENS_9allocatorIcEEEE
       1237  4D4 0003EDD0 _Z15GetGmshPackagerv
       1238  4D5 00038080 _Z15GetRGBForStringPKcRiS1_S1_
       1239  4D6 00001990 _Z15GmshOpenProjectRKNSt3__112basic_stringIcNS_11char_traitsIcEENS_9allocatorIcEEEE
       1240  4D7 001A9B50 _Z15GradientDescentPFvRNSt3__16vectorIdNS_9allocatorIdEEEERdbS4_PvES4_S6_
       1241  4D8 00074380 _Z15List_ISearchSeqP6List_TPvPFiPKvS3_E
       1242  4D9 0003AC60 _Z15PrintOptionsDocv
       1243  4DA 00333830 _Z15SortEdgesInLoopiP6List_Tb
       1244  4DB 007CCDA0 _Z15SplitOLFileNameRKNSt3__112basic_stringIcNS_11char_traitsIcEENS_9allocatorIcEEEE
       1245  4DC 007D1AF0 _Z15SplitOLHostNameRKNSt3__112basic_stringIcNS_11char_traitsIcEENS_9allocatorIcEEEE
       1246  4DD 00067DA0 _Z15SplitOptionNameRKNSt3__112basic_stringIcNS_11char_traitsIcEENS_9allocatorIcEEEERS5_S8_Ri
       1247  4DE 00326980 _Z15TranslateShapesdddP6List_T
       1248  4DF 00572F20 _Z15UnpartitionMeshP6GModel
       1249  4E0 0003C430 _Z15_string2stippleNSt3__112basic_stringIcNS_11char_traitsIcEENS_9allocatorIcEEEERiS6_
       1250  4E1 007B1430 _Z15addPeriodicEdgeiiRKNSt3__16vectorIdNS_9allocatorIdEEEE
       1251  4E2 007B1910 _Z15addPeriodicFaceiiRKNSt3__13mapIiiNS_4lessIiEENS_9allocatorINS_4pairIKiiEEEEEE
       1252  4E3 007B1550 _Z15addPeriodicFaceiiRKNSt3__16vectorIdNS_9allocatorIdEEEE
       1253  4E4 007F19E0 _Z15annSplitBalancePPdPiiid
       1254  4E5 007AFB50 _Z15assignVariablesRKNSt3__112basic_stringIcNS_11char_traitsIcEENS_9allocatorIcEEEEP6List_TiS9_
       1255  4E6 00D0F440 _Z15buildBoundariesRKNSt3__16vectorIP8MElementNS_9allocatorIS2_EEEERNS0_INS0_IP7MVertexNS3_IS9_EEEENS3_ISB_EEEE
       1256  4E7 004DCFE0 _Z15buildEdgeCavityP5MTet4iPP7MVertexS3_RNSt3__16vectorIS0_NS4_9allocatorIS0_EEEES9_RNS5_IS2_NS6_IS2_EEEE
       1257  4E8 00126940 _Z15buildOrthoBasisR8SVector3S0_S0_
       1258  4E9 000E3820 _Z15circumCenterXYZPdS_S_S_S_
       1259  4EA 009AFC30 _Z15computeBndDistFP5GEdgeRNSt3__16vectorIdNS1_9allocatorIdEEEERK10nodalBasisRKNS2_I7SPoint3NS3_ISA_EEEEd
       1260  4EB 009B1070 _Z15computeBndDistGP5GEdgeRNSt3__16vectorIdNS1_9allocatorIdEEEERK10nodalBasisRKNS2_I7SPoint3NS3_ISA_EEEEd
       1261  4EC 009AE760 _Z15computeBndDistHP5GEdgeRNSt3__16vectorIdNS1_9allocatorIdEEEERKNS2_IP7MVertexNS3_IS8_EEEERK10nodalBasisRKNS2_I7SPoint3NS3_ISG_EEEEd
       1262  4ED 0034D130 _Z15computeLevelsetP6GModelR12cartesianBoxIdE
       1263  4EE 008BFE70 _Z15copy_gmp_matrixPK10gmp_matrixyyyy
       1264  4EF 00428540 _Z15faceIsValidQuadP5GFaced
       1265  4F0 00621650 _Z15getAcuteCornersP5GFaceRNSt3__113unordered_mapIP7MVertexNS1_6vectorIS4_NS1_9allocatorIS4_EEEENS1_4hashIS4_EENS1_8equal_toIS4_EENS6_INS1_4pairIKS4_S8_EEEEEEd
       1266  4F1 0036B2C0 _Z15getIntersectionIP5GEdgeNSt3__16vectorIS1_NS2_9allocatorIS1_EEEEEvRNS3_IT_NS4_IS7_EEEERNS3_IT0_NS4_ISB_EEEE
       1267  4F2 0036B880 _Z15getIntersectionIP5GFaceNSt3__16vectorIS1_NS2_9allocatorIS1_EEEEEvRNS3_IT_NS4_IS7_EEEERNS3_IT0_NS4_ISB_EEEE
       1268  4F3 008C0080 _Z15gmp_matrix_colsPK10gmp_matrix
       1269  4F4 008C0070 _Z15gmp_matrix_rowsPK10gmp_matrix
       1270  4F5 007BED90 _Z15gmsh_yyget_lengv
       1271  4F6 007BEDA0 _Z15gmsh_yyget_textv
       1272  4F7 00D2F420 _Z15i4vec_is_binaryiPi
       1273  4F8 009D5960 _Z15inExclusionZoneP7MVertexR7SPoint2R5RTreeIP31surfacePointWithExclusionRegiondLi2EdLi8ELi4EE
       1274  4F9 005C6DE0 _Z15intersectEdge2dRK5MEdgeS1_
       1275  4FA 0099C960 _Z15mvgetScreenSizeRiS_
       1276  4FB 00542FC0 _Z15normal_triangleP9BDS_PointS0_S0_Pd
       1277  4FC 0002CD00 _Z15opt_mesh_algo2diid
       1278  4FD 0002CD90 _Z15opt_mesh_algo3diid
       1279  4FE 0002D060 _Z15opt_mesh_binaryiid
       1280  4FF 0003CA30 _Z15opt_mesh_color_iiij
       1281  500 0002D430 _Z15opt_mesh_lc_maxiid
       1282  501 0002D380 _Z15opt_mesh_lc_miniid
       1283  502 0002F140 _Z15opt_mesh_prismsiid
       1284  503 00030A60 _Z15opt_post_binaryiid
       1285  504 00030D60 _Z15opt_post_smoothiid
       1286  505 000362E0 _Z15opt_print_widthiid
       1287  506 0003C180 _Z15opt_solver_nameiiRKNSt3__112basic_stringIcNS_11char_traitsIcEENS_9allocatorIcEEEE
       1288  507 00031930 _Z15opt_view_closediid
       1289  508 000276E0 _Z15opt_view_formatiiRKNSt3__112basic_stringIcNS_11char_traitsIcEENS_9allocatorIcEEEE
       1290  509 00033FA0 _Z15opt_view_nb_isoiid
       1291  50A 000345A0 _Z15opt_view_raise0iid
       1292  50B 00034630 _Z15opt_view_raise1iid
       1293  50C 000346C0 _Z15opt_view_raise2iid
       1294  50D 00D1B470 _Z15printStatisticsRKNSt3__113unordered_mapINS_12basic_stringIcNS_11char_traitsIcEENS_9allocatorIcEEEEdNS_4hashIS6_EENS_8equal_toIS6_EENS4_INS_4pairIKS6_dEEEEEERSC_
       1295  50E 003415F0 _Z15scriptAddCircleRKNSt3__112basic_stringIcNS_11char_traitsIcEENS_9allocatorIcEEEES7_S7_S7_S7_S7_S7_
       1296  50F 00342C50 _Z15scriptAddSphereRKNSt3__112basic_stringIcNS_11char_traitsIcEENS_9allocatorIcEEEES7_S7_S7_S7_S7_S7_S7_
       1297  510 00340AE0 _Z15scriptAddVolumeP6List_TRKNSt3__112basic_stringIcNS1_11char_traitsIcEENS1_9allocatorIcEEEE
       1298  511 00347DE0 _Z15scriptCoherenceRKNSt3__112basic_stringIcNS_11char_traitsIcEENS_9allocatorIcEEEE
       1299  512 00345000 _Z15scriptTranslateRKNSt3__112basic_stringIcNS_11char_traitsIcEENS_9allocatorIcEEEERKNS_6vectorINS_4pairIiiEENS3_ISA_EEEES7_S7_S7_b
       1300  513 00319F70 _Z15storePairMATLABPK7GEntityiRNSt3__16vectorINS3_INS2_4pairIP8MElementiEENS2_9allocatorIS7_EEEENS8_ISA_EEEE
       1301  514 000E2F30 _Z15sys3x3_with_tolPA3_dPdS1_S1_
       1302  515 00C7F080 _Z15terminatetetgenP10tetgenmeshi
       1303  516 004B4140 _Z15tetcircumcenterPdS_S_S_S_S_S_S_
       1304  517 000E3680 _Z15triangle_area2dPdS_S_
       1305  518 007ECC10 _Z15trySimpleShrinkPPdPiiiRK11ANNorthRectRS2_
       1306  519 00D1C800 _Z15writeStatisticsRKNSt3__113unordered_mapINS_12basic_stringIcNS_11char_traitsIcEENS_9allocatorIcEEEEdNS_4hashIS6_EENS_8equal_toIS6_EENS4_INS_4pairIKS6_dEEEEEERSC_
       1307  51A 007000D0 _Z16ColorTable_PasteP14GmshColorTable
       1308  51B 007001E0 _Z16ColorTable_PrintP14GmshColorTableP6_iobufPNSt3__16vectorINS3_12basic_stringIcNS3_11char_traitsIcEENS3_9allocatorIcEEEENS8_ISA_EEEE
       1309  51C 000E4740 _Z16ComputeScalarRepiPdi
       1310  51D 0005BAD0 _Z16CreateOutputFileRKNSt3__112basic_stringIcNS_11char_traitsIcEENS_9allocatorIcEEEEib
       1311  51E 00323980 _Z16DuplicateSurfaceP5GFaceRNSt3__13mapIiiNS1_4lessIiEENS1_9allocatorINS1_4pairIKiiEEEEEE
       1312  51F 003235E0 _Z16DuplicateSurfaceP7Surface
       1313  520 007D1970 _Z16FixWindowsQuotesRKNSt3__112basic_stringIcNS_11char_traitsIcEENS_9allocatorIcEEEE
       1314  521 004FCA70 _Z16GFaceInitialMeshiiPNSt3__16vectorIdNS_9allocatorIdEEEE
       1315  522 001866D0 _Z16GaussLegendreTetiiiP5IntPt
       1316  523 00186B90 _Z16GaussLegendreTriiiP5IntPt
       1317  524 0003EDB0 _Z16GetGmshBuildDatev
       1318  525 0003EDC0 _Z16GetGmshBuildHostv
       1319  526 000019B0 _Z16GmshClearProjectv
       1320  527 003351D0 _Z16InterpolateCurveP5Curvedi
       1321  528 004E1F60 _Z16LaplaceSmoothingP7GRegion
       1322  529 00065760 _Z16Octree_SearchAllPdP6OctreePNSt3__16vectorIPvNS2_9allocatorIS4_EEEE
       1323  52A 004F4F10 _Z16RelocateVerticesP5GFaceid
       1324  52B 004F66D0 _Z16RelocateVerticesP7GRegionid
       1325  52C 004F8A30 _Z16RelocateVerticesRNSt3__16vectorIP7GRegionNS_9allocatorIS2_EEEEid
       1326  52D 00067FD0 _Z16RemoveWhiteSpaceRKNSt3__112basic_stringIcNS_11char_traitsIcEENS_9allocatorIcEEEE
       1327  52E 00067C10 _Z16ReplaceSubStringRKNSt3__112basic_stringIcNS_11char_traitsIcEENS_9allocatorIcEEEES7_S7_
       1328  52F 00074E50 _Z16avl_walk_forwardP15avl_node_structPFvPvS1_E
       1329  530 003E5C80 _Z16buildUniqueFacesP7GRegionRNSt3__13setI5MFace13MFaceLessThanNS1_9allocatorIS3_EEEE
       1330  531 00D123B0 _Z16centerOfElementsRKNSt3__16vectorIP8MElementNS_9allocatorIS2_EEEE
       1331  532 00432710 _Z16collapseEdgePassP5GFaceR8BDS_MeshdiRiRd
       1332  533 009B06D0 _Z16computeBndDistG_P5GEdgeRNSt3__16vectorIdNS1_9allocatorIdEEEERK10nodalBasisRKNS2_I7SPoint3NS3_ISA_EEEEy
       1333  534 009AFD80 _Z16computeBndDistGbP5GEdgeRNSt3__16vectorIdNS1_9allocatorIdEEEERK10nodalBasisRKNS2_I7SPoint3NS3_ISA_EEEEd
       1334  535 008BD300 _Z16computeIsCrossedP12RecurElementPK10DI_ElementRKNSt3__16vectorIP9gLevelsetNS4_9allocatorIS7_EEEEPPd
       1335  536 00439DA0 _Z16connectTrianglesRNSt3__13setIP5MTri314compareTri3PtrNS_9allocatorIS2_EEEE
       1336  537 004392A0 _Z16connectTrianglesRNSt3__14listIP5MTri3NS_9allocatorIS2_EEEE
       1337  538 00439810 _Z16connectTrianglesRNSt3__16vectorIP5MTri3NS_9allocatorIS2_EEEE
       1338  539 00441B00 _Z16delaunayMeshIn2DRNSt3__16vectorIP7MVertexNS_9allocatorIS2_EEEERNS0_IP9MTriangleNS3_IS8_EEEEbPNS0_I5MEdgeNS3_ISC_EEEEb
       1339  53A 004BD560 _Z16delaunayMeshIn3DRNSt3__16vectorIP7MVertexNS_9allocatorIS2_EEEERNS0_IP12MTetrahedronNS3_IS8_EEEEb
       1340  53B 009B5320 _Z16eulerAxisFromQtnRK3Qtn
       1341  53C 0062C090 _Z16failedProjectionv
       1342  53D 00284730 _Z16getColorByEntityP7GEntity
       1343  53E 007BEDE0 _Z16gmsh_yyget_debugv
       1344  53F 007BEDF0 _Z16gmsh_yyset_debugi
       1345  540 00D2E0F0 _Z16i4mat_print_someiiPiiiiiNSt3__112basic_stringIcNS0_11char_traitsIcEENS0_9allocatorIcEEEE
       1346  541 00D2EB70 _Z16i4mat_row_reduceiiiPi
       1347  542 00CD2690 _Z16initQuadPatternsv
       1348  543 00681B20 _Z16isElementVisibleP12PViewOptionsiiPPd
       1349  544 00284850 _Z16isElementVisibleP8MElement
       1350  545 00450030 _Z16laplaceSmoothingP5GFaceib
       1351  546 0029C340 _Z16makeMLinesUniqueRNSt3__16vectorIP5MLineNS_9allocatorIS2_EEEE
       1352  547 000288C0 _Z16opt_general_axesiid
       1353  548 0002A960 _Z16opt_general_xmaxiid
       1354  549 0002AD00 _Z16opt_general_xminiid
       1355  54A 0002AA00 _Z16opt_general_ymaxiid
       1356  54B 0002ADA0 _Z16opt_general_yminiid
       1357  54C 0002AAA0 _Z16opt_general_zmaxiid
       1358  54D 0002AE40 _Z16opt_general_zminiid
       1359  54E 00036AA0 _Z16opt_mesh_color_0iij
       1360  54F 00036AF0 _Z16opt_mesh_color_1iij
       1361  550 00036B40 _Z16opt_mesh_color_2iij
       1362  551 00036B90 _Z16opt_mesh_color_3iij
       1363  552 00036BE0 _Z16opt_mesh_color_4iij
       1364  553 00036C30 _Z16opt_mesh_color_5iij
       1365  554 00036C80 _Z16opt_mesh_color_6iij
       1366  555 00036CD0 _Z16opt_mesh_color_7iij
       1367  556 00036D20 _Z16opt_mesh_color_8iij
       1368  557 00036D70 _Z16opt_mesh_color_9iij
       1369  558 0002D940 _Z16opt_mesh_explodeiid
       1370  559 0002EB80 _Z16opt_mesh_normalsiid
       1371  55A 00030680 _Z16opt_mesh_voronoiiid
       1372  55B 00030CD0 _Z16opt_post_pluginsiid
       1373  55C 00035DD0 _Z16opt_print_heightiid
       1374  55D 00026650 _Z16opt_solver_name0iiRKNSt3__112basic_stringIcNS_11char_traitsIcEENS_9allocatorIcEEEE
       1375  55E 000266A0 _Z16opt_solver_name1iiRKNSt3__112basic_stringIcNS_11char_traitsIcEENS_9allocatorIcEEEE
       1376  55F 000266F0 _Z16opt_solver_name2iiRKNSt3__112basic_stringIcNS_11char_traitsIcEENS_9allocatorIcEEEE
       1377  560 00026740 _Z16opt_solver_name3iiRKNSt3__112basic_stringIcNS_11char_traitsIcEENS_9allocatorIcEEEE
       1378  561 00026790 _Z16opt_solver_name4iiRKNSt3__112basic_stringIcNS_11char_traitsIcEENS_9allocatorIcEEEE
       1379  562 000267E0 _Z16opt_solver_name5iiRKNSt3__112basic_stringIcNS_11char_traitsIcEENS_9allocatorIcEEEE
       1380  563 00026830 _Z16opt_solver_name6iiRKNSt3__112basic_stringIcNS_11char_traitsIcEENS_9allocatorIcEEEE
       1381  564 00026880 _Z16opt_solver_name7iiRKNSt3__112basic_stringIcNS_11char_traitsIcEENS_9allocatorIcEEEE
       1382  565 000268D0 _Z16opt_solver_name8iiRKNSt3__112basic_stringIcNS_11char_traitsIcEENS_9allocatorIcEEEE
       1383  566 00026920 _Z16opt_solver_name9iiRKNSt3__112basic_stringIcNS_11char_traitsIcEENS_9allocatorIcEEEE
       1384  567 000330D0 _Z16opt_view_explodeiid
       1385  568 00034150 _Z16opt_view_normalsiid
       1386  569 000341D0 _Z16opt_view_offset0iid
       1387  56A 00034260 _Z16opt_view_offset1iid
       1388  56B 000342F0 _Z16opt_view_offset2iid
       1389  56C 00035870 _Z16opt_view_visibleiid
       1390  56D 00454380 _Z16quadsToTrianglesP5GFaced
       1391  56E 00D2F9E0 _Z16r8vec_is_integeriPd
       1392  56F 00D1E830 _Z16randomIdentifierv
       1393  570 00341BC0 _Z16scriptAddEllipseRKNSt3__112basic_stringIcNS_11char_traitsIcEENS_9allocatorIcEEEES7_S7_S7_S7_S7_S7_S7_
       1394  571 00340430 _Z16scriptAddSurfaceRKNSt3__112basic_stringIcNS_11char_traitsIcEENS_9allocatorIcEEEEP6List_TS7_
       1395  572 00338D70 _Z16scriptSetFactoryRKNSt3__112basic_stringIcNS_11char_traitsIcEENS_9allocatorIcEEEES7_
       1396  573 00347210 _Z16scriptSplitCurveiP6List_TRKNSt3__112basic_stringIcNS1_11char_traitsIcEENS1_9allocatorIcEEEE
       1397  574 00D12EB0 _Z16setVertexGFaceUVP5GFaceP7MVertexPd
       1398  575 00418010 _Z16shortestParabolaPdS_iS_S_
       1399  576 00432CF0 _Z16smoothVertexPassP5GFaceR8BDS_MeshRibdRd
       1400  577 0062C0D0 _Z16sphereProjectionP5GFacePKdRKNSt3__15arrayIdLy10EEE
       1401  578 00D360C0 _Z16triangle_area_2dNSt3__15arrayIdLy2EEES1_S1_
       1402  579 002C75F0 _Z16writeMSHEntitiesP6_iobufP6GModel
       1403  57A 00542CB0 _Z17BDS_Face_ValidityP5GFaceP8BDS_Face
       1404  57B 004DD770 _Z17BuildSwapPattern3P11SwapPattern
       1405  57C 004DD7A0 _Z17BuildSwapPattern4P11SwapPattern
       1406  57D 004DD7D0 _Z17BuildSwapPattern5P11SwapPattern
       1407  57E 004DD800 _Z17BuildSwapPattern6P11SwapPattern
       1408  57F 004DD830 _Z17BuildSwapPattern7P11SwapPattern
       1409  580 00320A70 _Z17CreateSurfaceLoopiP6List_T
       1410  581 00322800 _Z17FindPhysicalGroupii
       1411  582 00320930 _Z17FreePhysicalGroupPvS_
       1412  583 00037FE0 _Z17GetColorForStringiPKcPi
       1413  584 00052C70 _Z17GetEnvironmentVarRKNSt3__112basic_stringIcNS_11char_traitsIcEENS_9allocatorIcEEEE
       1414  585 00041BD0 _Z17GetShortcutsUsageRKNSt3__112basic_stringIcNS_11char_traitsIcEENS_9allocatorIcEEEE
       1415  586 00074190 _Z17List_Pointer_FastP6List_Ti
       1416  587 003E6340 _Z17MakeMeshConformalP6GModeli
       1417  588 003F9FF0 _Z17MeshExtrudedCurveP5GEdge
       1418  589 00325E50 _Z17RecognizeLineLoopP6List_TPi
       1419  58A 00067400 _Z17SanitizeTeXStringPKci
       1420  58B 00052F30 _Z17SetEnvironmentVarRKNSt3__112basic_stringIcNS_11char_traitsIcEENS_9allocatorIcEEEES7_
       1421  58C 00326340 _Z17SetRotationMatrixPA4_dPdd
       1422  58D 00326170 _Z17SetSymmetryMatrixPA4_ddddd
       1423  58E 00334380 _Z17SetVolumeSurfacesP6VolumeP6List_T
       1424  58F 00065D60 _Z17addElement2BucketP6bucketPvPdS2_S2_P6global
       1425  590 009DC9D0 _Z17add_hex_to_regionP7GRegionRK3Hex
       1426  591 0059C050 _Z17centroidOfPolygonR7SPoint2RNSt3__16vectorIS_NS1_9allocatorIS_EEEERdS7_S7_S7_P14simpleFunctionIdE
       1427  592 00680CA0 _Z17changeCoordinatesP5PViewiiiiiPPdS2_
       1428  593 000E88C0 _Z17changeReferentialiRK7SPoint3S1_S1_S1_PdS2_S2_S2_S2_S2_
       1429  594 00A1FC90 _Z17compute4neighborsP5GFaceP7MVertexR7SPoint2PS3_R8SMetric3P5Fieldddd
       1430  595 005D6790 _Z17computeCrossFieldP6GModelRNSt3__16vectorIiNS1_9allocatorIiEEEE
       1431  596 005D6560 _Z17computeQuadLayoutP6GModelRNSt3__16vectorIiNS1_9allocatorIiEEEE
       1432  597 008BFBD0 _Z17create_gmp_matrixyyPA1_12__mpz_struct
       1433  598 009B53C0 _Z17eulerAngleFromQtnRK3Qtn
       1434  599 000664A0 _Z17findElementBucketP6bucketPd
       1435  59A 0051D8B0 _Z17getBackgroundMeshRKNSt3__112basic_stringIcNS_11char_traitsIcEENS_9allocatorIcEEEE
       1436  59B 00D14300 _Z17getGFaceTrianglesP5GFaceRNSt3__16vectorIP9MTriangleNS1_9allocatorIS4_EEEES8_b
       1437  59C 008C0B80 _Z17gmp_matrix_printfPK10gmp_matrix
       1438  59D 008C0670 _Z17gmp_matrix_transpP10gmp_matrix
       1439  59E 007BED60 _Z17gmsh_yyget_linenov
       1440  59F 007BEDB0 _Z17gmsh_yyset_linenoi
       1441  5A0 00D2F3E0 _Z17i4vec_binary_nextiPi
       1442  5A1 007B0090 _Z17incrementVariableRKNSt3__112basic_stringIcNS_11char_traitsIcEENS_9allocatorIcEEEEid
       1443  5A2 009CBB10 _Z17infinity_distanceRK7SPoint3S1_6Metric
       1444  5A3 0034BEF0 _Z17insertActiveCellsddddR12cartesianBoxIdE
       1445  5A4 00D16D00 _Z17isTopologicalDiskRK9GFaceInfo
       1446  5A5 004B00E0 _Z17meshGRegionNetgenP7GRegion
       1447  5A6 00417B50 _Z17objectiveFunctionddddddi
       1448  5A7 0002B5C0 _Z17opt_general_shineiid
       1449  5A8 0002BC50 _Z17opt_geometry_clipiid
       1450  5A9 00036DC0 _Z17opt_mesh_color_10iij
       1451  5AA 00036E10 _Z17opt_mesh_color_11iij
       1452  5AB 00036E60 _Z17opt_mesh_color_12iij
       1453  5AC 00036EB0 _Z17opt_mesh_color_13iij
       1454  5AD 00036F00 _Z17opt_mesh_color_14iij
       1455  5AE 00036F50 _Z17opt_mesh_color_15iij
       1456  5AF 00036FA0 _Z17opt_mesh_color_16iij
       1457  5B0 00036FF0 _Z17opt_mesh_color_17iij
       1458  5B1 00037040 _Z17opt_mesh_color_18iij
       1459  5B2 00037090 _Z17opt_mesh_color_19iij
       1460  5B3 0002D7E0 _Z17opt_mesh_cpu_timeiid
       1461  5B4 0002E8E0 _Z17opt_mesh_nb_nodesiid
       1462  5B5 0002EC70 _Z17opt_mesh_optimizeiid
       1463  5B6 0002F1A0 _Z17opt_mesh_pyramidsiid
       1464  5B7 0002FA80 _Z17opt_mesh_renumberiid
       1465  5B8 0002FAE0 _Z17opt_mesh_save_alliid
       1466  5B9 00030230 _Z17opt_mesh_tangentsiid
       1467  5BA 000304D0 _Z17opt_mesh_trihedraiid
       1468  5BB 00030C90 _Z17opt_post_nb_viewsiid
       1469  5BC 00035F80 _Z17opt_print_pos_etaiid
       1470  5BD 00030720 _Z17opt_solver_listeniid
       1471  5BE 00031750 _Z17opt_view_boundaryiid
       1472  5BF 00027670 _Z17opt_view_filenameiiRKNSt3__112basic_stringIcNS_11char_traitsIcEENS_9allocatorIcEEEE
       1473  5C0 00034800 _Z17opt_view_samplingiid
       1474  5C1 00027AB0 _Z17opt_view_stipple0iiRKNSt3__112basic_stringIcNS_11char_traitsIcEENS_9allocatorIcEEEE
       1475  5C2 00027B80 _Z17opt_view_stipple1iiRKNSt3__112basic_stringIcNS_11char_traitsIcEENS_9allocatorIcEEEE
       1476  5C3 00027C50 _Z17opt_view_stipple2iiRKNSt3__112basic_stringIcNS_11char_traitsIcEENS_9allocatorIcEEEE
       1477  5C4 00027D20 _Z17opt_view_stipple3iiRKNSt3__112basic_stringIcNS_11char_traitsIcEENS_9allocatorIcEEEE
       1478  5C5 00027DF0 _Z17opt_view_stipple4iiRKNSt3__112basic_stringIcNS_11char_traitsIcEENS_9allocatorIcEEEE
       1479  5C6 00027EC0 _Z17opt_view_stipple5iiRKNSt3__112basic_stringIcNS_11char_traitsIcEENS_9allocatorIcEEEE
       1480  5C7 00027F90 _Z17opt_view_stipple6iiRKNSt3__112basic_stringIcNS_11char_traitsIcEENS_9allocatorIcEEEE
       1481  5C8 00028060 _Z17opt_view_stipple7iiRKNSt3__112basic_stringIcNS_11char_traitsIcEENS_9allocatorIcEEEE
       1482  5C9 00028130 _Z17opt_view_stipple8iiRKNSt3__112basic_stringIcNS_11char_traitsIcEENS_9allocatorIcEEEE
       1483  5CA 00028200 _Z17opt_view_stipple9iiRKNSt3__112basic_stringIcNS_11char_traitsIcEENS_9allocatorIcEEEE
       1484  5CB 00034CE0 _Z17opt_view_tangentsiid
       1485  5CC 00034EE0 _Z17opt_view_timestepiid
       1486  5CD 005430D0 _Z17outputScalarFieldRNSt3__16vectorIP8BDS_FaceNS_9allocatorIS2_EEEEPKciP5GFace
       1487  5CE 00D10BD0 _Z17patchFromElementsP5GFaceRKNSt3__16vectorIP8MElementNS1_9allocatorIS4_EEEER14GFaceMeshPatchb
       1488  5CF 000E3D90 _Z17planarQuad_xyz2xyPdS_S_S_S_
       1489  5D0 007AF600 _Z17printListOfDoublePcP6List_TS_
       1490  5D1 00606AA0 _Z17printSizeMapStatsRKNSt3__16vectorIP9MTriangleNS_9allocatorIS2_EEEERNS_13unordered_mapIP7MVertexdNS_4hashISA_EENS_8equal_toISA_EENS3_INS_4pairIKSA_dEEEEEE
       1491  5D2 00A09400 _Z17print_stats_graphRKNSt3__18multimapIyNS_4pairIP3HexNS0_IyS3_NS_4lessIyEENS_9allocatorINS1_IKyS3_EEEEEEEES5_NS6_INS1_IS7_SB_EEEEEE
       1492  5D3 00D0C650 _Z17quantileFilteringRNSt3__113unordered_mapIP7MVertexdNS_4hashIS2_EENS_8equal_toIS2_EENS_9allocatorINS_4pairIKS2_dEEEEEEd
       1493  5D4 009D5BE0 _Z17rtree_callback_3DP7MVertexPv
       1494  5D5 003432E0 _Z17scriptAddCylinderRKNSt3__112basic_stringIcNS_11char_traitsIcEENS_9allocatorIcEEEES7_S7_S7_S7_S7_S7_S7_S7_
       1495  5D6 0033EAC0 _Z17scriptDeleteFieldiRKNSt3__112basic_stringIcNS_11char_traitsIcEENS_9allocatorIcEEEE
       1496  5D7 003412D0 _Z17scriptSetCompoundRKNSt3__112basic_stringIcNS_11char_traitsIcEENS_9allocatorIcEEEES7_RKNS_6vectorIiNS3_IiEEEE
       1497  5D8 00339D40 _Z17scriptSetMeshSizeRKNSt3__112basic_stringIcNS_11char_traitsIcEENS_9allocatorIcEEEERKNS_6vectorIiNS3_IiEEEES7_
       1498  5D9 00066CD0 _Z17searchAllElementsP6bucketPdP6globalPFvPvS1_S1_EPFiS4_S1_EPNSt3__16vectorIS4_NS9_9allocatorIS4_EEEE
       1499  5DA 0058D3F0 _Z17subdivide_pyramidP8MElementP7GRegionRNSt3__13mapI5MFaceNS3_6vectorIP7MVertexNS3_9allocatorIS8_EEEE13MFaceLessThanNS9_INS3_4pairIKS5_SB_EEEEEERNS6_IP11MHexahedronNS9_ISK_EEEE
       1500  5DB 00418D30 _Z17triangleQualityP2iPN8PolyMesh8HalfEdgeEPNSt3__13mapIS1_7SPoint2NS2_4lessIS1_EENS2_9allocatorINS2_4pairIKS1_S4_EEEEEE
       1501  5DC 007ECD00 _Z17tryCentroidShrinkPPdPiiiRK11ANNorthRectPFvS0_S1_S4_iiRiRdS5_ERS2_
       1502  5DD 0060C040 _Z17updateAdjacenciesRK14GFaceMeshPatchS1_RN10robin_hood6detail5TableILb1ELy80EP7MVertexNSt3__16vectorIP8MElementNS7_9allocatorISA_EEEENS2_4hashIS6_vEENS7_8equal_toIS6_EEEE
       1503  5DE 00D38F20 _Z17vectorpair2intptrRKNSt3__16vectorINS_4pairIiiEENS_9allocatorIS2_EEEEPPiPy
       1504  5DF 00700750 _Z18ColorTable_IsAlphaP14GmshColorTable
       1505  5E0 003205A0 _Z18CompareSurfaceLoopPKvS0_
       1506  5E1 00325BE0 _Z18DeletePhysicalLinei
       1507  5E2 0005B730 _Z18GetDefaultFileNamei
       1508  5E3 00001920 _Z18GmshGetColorOptionRKNSt3__112basic_stringIcNS_11char_traitsIcEENS_9allocatorIcEEEES7_i
       1509  5E4 00001520 _Z18GmshSetBoundingBoxdddddd
       1510  5E5 00001700 _Z18GmshSetColorOptionRKNSt3__112basic_stringIcNS_11char_traitsIcEENS_9allocatorIcEEEES7_ji
       1511  5E6 004F9CD0 _Z18HilbertCoordinatesdddddddd
       1512  5E7 003372F0 _Z18InterpolateSurfaceP7Surfaceddii
       1513  5E8 00543CB0 _Z18Intersect_Edges_2dddddddddPd
       1514  5E9 00461C40 _Z18MeshDelaunayVolumeRNSt3__16vectorIP7GRegionNS_9allocatorIS2_EEEE
       1515  5EA 007B4320 _Z18PrintParserSymbolsbRNSt3__16vectorINS_12basic_stringIcNS_11char_traitsIcEENS_9allocatorIcEEEENS4_IS6_EEEE
       1516  5EB 001A9820 _Z18approximationErrorR14simpleFunctionIdEP8MElement
       1517  5EC 00456640 _Z18buildEdgeToElementI11MQuadrangleEvRNSt3__16vectorIPT_NS1_9allocatorIS4_EEEERNS1_3mapI5MEdgeNS1_4pairIP8MElementSD_EE13MEdgeLessThanNS5_INSB_IKSA_SE_EEEEEE
       1518  5ED 00456A50 _Z18buildEdgeToElementI8MElementEvRNSt3__16vectorIPT_NS1_9allocatorIS4_EEEERNS1_3mapI5MEdgeNS1_4pairIPS0_SC_EE13MEdgeLessThanNS5_INSB_IKSA_SD_EEEEEE
       1519  5EE 00456230 _Z18buildEdgeToElementI9MTriangleEvRNSt3__16vectorIPT_NS1_9allocatorIS4_EEEERNS1_3mapI5MEdgeNS1_4pairIP8MElementSD_EE13MEdgeLessThanNS5_INSB_IKSA_SE_EEEEEE
       1520  5EF 0044BD70 _Z18buildEdgeToElementP5GFaceRNSt3__13mapI5MEdgeNS1_4pairIP8MElementS6_EE13MEdgeLessThanNS1_9allocatorINS4_IKS3_S7_EEEEEE
       1521  5F0 00D1CD80 _Z18computeSICNqualityP5GFaceRdS1_
       1522  5F1 00D1D170 _Z18computeSICNqualityP7GRegionRdS1_
       1523  5F2 00D1CC70 _Z18computeSICNqualityRKNSt3__16vectorIP8MElementNS_9allocatorIS2_EEEERdS8_
       1524  5F3 0054D1E0 _Z18createMatLob2LagP6v
       1525  5F4 008BFFF0 _Z18destroy_gmp_matrixP10gmp_matrix
       1526  5F5 009ADC20 _Z18distanceToGeometryP6GModelidii
       1527  5F6 009ADF40 _Z18distanceToGeometryP6GModeliiidii
       1528  5F7 00277300 _Z18ensureManifoldFaceP5GFace
       1529  5F8 007B0BE0 _Z18getAllPhysicalTagsiP6List_T
       1530  5F9 001EE6D0 _Z18getLocalInfoAtNodeP7MVertexP18BoundaryLayerFieldRd
       1531  5FA 008C0320 _Z18gmp_matrix_add_colP12__mpz_structyyP10gmp_matrix
       1532  5FB 008C02B0 _Z18gmp_matrix_add_rowP12__mpz_structyyP10gmp_matrix
       1533  5FC 008C04F0 _Z18gmp_matrix_col_inzyyyP10gmp_matrix
       1534  5FD 008C0440 _Z18gmp_matrix_col_rotP12__mpz_structS0_yS0_S0_yP10gmp_matrix
       1535  5FE 008C0C90 _Z18gmp_matrix_fprintfP6_iobufPK10gmp_matrix
       1536  5FF 008C0570 _Z18gmp_matrix_row_inzyyyP10gmp_matrix
       1537  600 008C03A0 _Z18gmp_matrix_row_rotP12__mpz_structS0_yS0_S0_yP10gmp_matrix
       1538  601 0016A3C0 _Z18gmshGeneratePoints13FuncSpaceDataR10fullMatrixIdE
       1539  602 007BEC70 _Z18gmsh_yy_scan_bytesPKcy
       1540  603 007BEE00 _Z18gmsh_yylex_destroyv
       1541  604 00D16D10 _Z18haveConcaveCornersRK9GFaceInfo
       1542  605 00611B50 _Z18irregularityEnergyP5GFaceRKNSt3__16vectorIP8MElementNS1_9allocatorIS4_EEEERKN10robin_hood6detail5TableILb1ELy80EP7MVertexdNSA_4hashISE_vEENS1_8equal_toISE_EEEERKNSC_ILb1ELy80ESE_S7_SG_SI_EE
       1543  606 00611650 _Z18irregularityEnergyRK14GFaceMeshPatchRKN10robin_hood6detail5TableILb1ELy80EP7MVertexdNS2_4hashIS6_vEENSt3__18equal_toIS6_EEEERKNS4_ILb1ELy80ES6_NS9_6vectorIP8MElementNS9_9allocatorISH_EEEES8_SB_EE
       1544  607 00029040 _Z18opt_general_clip0aiid
       1545  608 00029080 _Z18opt_general_clip0biid
       1546  609 000290C0 _Z18opt_general_clip0ciid
       1547  60A 00029100 _Z18opt_general_clip0diid
       1548  60B 00029140 _Z18opt_general_clip1aiid
       1549  60C 00029180 _Z18opt_general_clip1biid
       1550  60D 000291C0 _Z18opt_general_clip1ciid
       1551  60E 00029200 _Z18opt_general_clip1diid
       1552  60F 00029240 _Z18opt_general_clip2aiid
       1553  610 00029280 _Z18opt_general_clip2biid
       1554  611 000292C0 _Z18opt_general_clip2ciid
       1555  612 00029300 _Z18opt_general_clip2diid
       1556  613 00029340 _Z18opt_general_clip3aiid
       1557  614 00029380 _Z18opt_general_clip3biid
       1558  615 000293C0 _Z18opt_general_clip3ciid
       1559  616 00029400 _Z18opt_general_clip3diid
       1560  617 00029440 _Z18opt_general_clip4aiid
       1561  618 00029480 _Z18opt_general_clip4biid
       1562  619 000294C0 _Z18opt_general_clip4ciid
       1563  61A 00029500 _Z18opt_general_clip4diid
       1564  61B 00029540 _Z18opt_general_clip5aiid
       1565  61C 00029580 _Z18opt_general_clip5biid
       1566  61D 000295C0 _Z18opt_general_clip5ciid
       1567  61E 00029600 _Z18opt_general_clip5diid
       1568  61F 000259C0 _Z18opt_general_editoriiRKNSt3__112basic_stringIcNS_11char_traitsIcEENS_9allocatorIcEEEE
       1569  620 0002A1A0 _Z18opt_general_light0iid
       1570  621 0002A2D0 _Z18opt_general_light1iid
       1571  622 0002A400 _Z18opt_general_light2iid
       1572  623 0002A530 _Z18opt_general_light3iid
       1573  624 0002A660 _Z18opt_general_light4iid
       1574  625 0002A790 _Z18opt_general_light5iid
       1575  626 0002B4D0 _Z18opt_general_scale0iid
       1576  627 0002B520 _Z18opt_general_scale1iid
       1577  628 0002B570 _Z18opt_general_scale2iid
       1578  629 0002BF10 _Z18opt_geometry_lightiid
       1579  62A 0002C7C0 _Z18opt_geometry_snap0iid
       1580  62B 0002C800 _Z18opt_geometry_snap1iid
       1581  62C 0002C840 _Z18opt_geometry_snap2iid
       1582  62D 0002CF80 _Z18opt_mesh_aniso_maxiid
       1583  62E 0002DA80 _Z18opt_mesh_hexahedraiid
       1584  62F 0002D290 _Z18opt_mesh_lc_factoriid
       1585  630 0002E960 _Z18opt_mesh_nb_prismsiid
       1586  631 0002EB10 _Z18opt_mesh_node_sizeiid
       1587  632 0002EB50 _Z18opt_mesh_node_typeiid
       1588  633 00030470 _Z18opt_mesh_trianglesiid
       1589  634 00030A10 _Z18opt_post_anim_stepiid
       1590  635 00030D30 _Z18opt_post_save_meshiid
       1591  636 00035D70 _Z18opt_print_gif_sortiid
       1592  637 00035FB0 _Z18opt_print_pos_SICNiid
       1593  638 00035FE0 _Z18opt_print_pos_SIGEiid
       1594  639 000308D0 _Z18opt_solver_pluginsiid
       1595  63A 00030930 _Z18opt_solver_timeoutiid
       1596  63B 000312D0 _Z18opt_view_axes_xmaxiid
       1597  63C 00031450 _Z18opt_view_axes_xminiid
       1598  63D 00031350 _Z18opt_view_axes_ymaxiid
       1599  63E 000314D0 _Z18opt_view_axes_yminiid
       1600  63F 000313D0 _Z18opt_view_axes_zmaxiid
       1601  640 00031550 _Z18opt_view_axes_zminiid
       1602  641 00033810 _Z18opt_view_line_typeiid
       1603  642 000344A0 _Z18opt_view_position0iid
       1604  643 00034520 _Z18opt_view_position1iid
       1605  644 00034B20 _Z18opt_view_show_timeiid
       1606  645 00451240 _Z18recombineIntoQuadsP5GFacebibd
       1607  646 0033F5F0 _Z18scriptAddCircleArciiiRKNSt3__112basic_stringIcNS_11char_traitsIcEENS_9allocatorIcEEEE
       1608  647 0033FC20 _Z18scriptAddCurveLoopP6List_TRKNSt3__112basic_stringIcNS1_11char_traitsIcEENS1_9allocatorIcEEEEPi
       1609  648 0033CBB0 _Z18scriptAddParameterRKNSt3__112basic_stringIcNS_11char_traitsIcEENS_9allocatorIcEEEES7_S7_S7_S7_
       1610  649 003426D0 _Z18scriptAddRectangleRKNSt3__112basic_stringIcNS_11char_traitsIcEENS_9allocatorIcEEEES7_S7_S7_S7_S7_S7_
       1611  64A 001A5250 _Z18sqDistPointSegmentRK7SPoint3S1_S1_
       1612  64B 009AC410 _Z18taylorDistanceEdgeP5MLineP5GEdge
       1613  64C 009AC7A0 _Z18taylorDistanceFaceP8MElementP5GFace
       1614  64D 009ABC90 _Z18taylorDistanceSq1DPK13GradientBasisRK10fullMatrixIdERKNSt3__16vectorI8SVector3NS6_9allocatorIS8_EEEE
       1615  64E 009ABFB0 _Z18taylorDistanceSq2DPK13GradientBasisRK10fullMatrixIdERKNSt3__16vectorI8SVector3NS6_9allocatorIS8_EEEE
       1616  64F 0041B030 _Z18triangleValidityP1PN8PolyMesh8HalfEdgeE
       1617  650 00418090 _Z18triangleValidityP2PN8PolyMesh8HalfEdgeEPNSt3__13mapIS1_7SPoint2NS2_4lessIS1_EENS2_9allocatorINS2_4pairIKS1_S4_EEEEEE
       1618  651 00D13DF0 _Z18trianglesFromQuadsRKNSt3__16vectorIP11MQuadrangleNS_9allocatorIS2_EEEE
       1619  652 00067980 _Z19ConvertFileToStringRKNSt3__112basic_stringIcNS_11char_traitsIcEENS_9allocatorIcEEEE
       1620  653 00320860 _Z19CreatePhysicalGroupiiP6List_T
       1621  654 00322F50 _Z19CreateReversedCurveP5Curve
       1622  655 00325B10 _Z19DeletePhysicalPointi
       1623  656 0003EE00 _Z19GetGmshBuildOptionsv
       1624  657 0003ED90 _Z19GetGmshExtraVersionv
       1625  658 0003ED60 _Z19GetGmshMajorVersionv
       1626  659 0003ED70 _Z19GetGmshMinorVersionv
       1627  65A 0003ED80 _Z19GetGmshPatchVersionv
       1628  65B 0003EDF0 _Z19GetGmshShortLicensev
       1629  65C 0005B8A0 _Z19GetKnownFileFormatsb
       1630  65D 000018D0 _Z19GmshGetNumberOptionRKNSt3__112basic_stringIcNS_11char_traitsIcEENS_9allocatorIcEEEES7_i
       1631  65E 00001850 _Z19GmshGetStringOptionRKNSt3__112basic_stringIcNS_11char_traitsIcEENS_9allocatorIcEEEES7_i
       1632  65F 000016A0 _Z19GmshSetNumberOptionRKNSt3__112basic_stringIcNS_11char_traitsIcEENS_9allocatorIcEEEES7_di
       1633  660 00001650 _Z19GmshSetStringOptionRKNSt3__112basic_stringIcNS_11char_traitsIcEENS_9allocatorIcEEEES7_S5_i
       1634  661 00A392E0 _Z19IsValidQuadToTriTopP5GFacePiPb
       1635  662 007B0390 _Z19ListOfDouble2VectorP6List_TRNSt3__16vectorIdNS1_9allocatorIdEEEE
       1636  663 007B0170 _Z19ListOfDouble2VectorP6List_TRNSt3__16vectorIiNS1_9allocatorIiEEEE
       1637  664 00074880 _Z19List_Insert_In_ListP6List_TiS0_
       1638  665 0042B810 _Z19MeshExtrudedSurfaceP5GFacePNSt3__13setINS1_4pairIP7MVertexS5_EENS1_4lessIS6_EENS1_9allocatorIS6_EEEE
       1639  666 00A6C5E0 _Z19QtFindVertsCentroidNSt3__16vectorIP7MVertexNS_9allocatorIS2_EEEE
       1640  667 00053EA0 _Z19RedirectIOToConsolev
       1641  668 003262B0 _Z19SetDilatationMatrixPA4_dPdddd
       1642  669 0036EA50 _Z19SortEdgeConsecutiveRKNSt3__16vectorI5MEdgeNS_9allocatorIS1_EEEERNS0_INS0_IP7MVertexNS2_IS8_EEEENS2_ISA_EEEE
       1643  66A 00D18160 _Z19appendCADStatisticsP6GModelRNSt3__113unordered_mapINS1_12basic_stringIcNS1_11char_traitsIcEENS1_9allocatorIcEEEEdNS1_4hashIS8_EENS1_8equal_toIS8_EENS6_INS1_4pairIKS8_dEEEEEERSE_
       1644  66B 0051D790 _Z19backgroudMeshExistsRKNSt3__112basic_stringIcNS_11char_traitsIcEENS_9allocatorIcEEEE
       1645  66C 0043D5B0 _Z19bowyerWatsonFrontalP5GFacePNSt3__13mapIP7MVertexS4_NS1_4lessIS4_EENS1_9allocatorINS1_4pairIKS4_S4_EEEEEEPNS2_IS4_7SPoint2S6_NS7_INS8_IS9_SE_EEEEEEPNS1_6vectorISE_NS7_ISE_EEEE
       1646  66D 0043E930 _Z19buildBackgroundMeshP5GFacebPNSt3__13mapIP7MVertexS4_NS1_4lessIS4_EENS1_9allocatorINS1_4pairIKS4_S4_EEEEEEPNS2_IS4_7SPoint2S6_NS7_INS8_IS9_SE_EEEEEE
       1647  66E 0044BE00 _Z19buildEdgeToElementsRNSt3__16vectorIP8MElementNS_9allocatorIS2_EEEERNS_3mapI5MEdgeNS_4pairIS2_S2_EE13MEdgeLessThanNS3_INS9_IKS8_SA_EEEEEE
       1648  66F 0044BDC0 _Z19buildEdgeToTriangleRNSt3__16vectorIP9MTriangleNS_9allocatorIS2_EEEERNS_3mapI5MEdgeNS_4pairIP8MElementSB_EE13MEdgeLessThanNS3_INS9_IKS8_SC_EEEEEE
       1649  670 0044AA80 _Z19computeEquivalencesP5GFaceR13bidimMeshData
       1650  671 009D3AA0 _Z19computeSixNeighborsP26frameFieldBackgroundMesh3DP7MVertexRNSt3__16vectorIS2_NS3_9allocatorIS2_EEEE8STensor3d
       1651  672 004B24D0 _Z19connectTets_vector2RNSt3__14listIP5MTet4NS_9allocatorIS2_EEEERNS_6vectorI8faceXtetNS3_IS8_EEEE
       1652  673 004B24F0 _Z19connectTets_vector2RNSt3__16vectorIP5MTet4NS_9allocatorIS2_EEEERNS0_I8faceXtetNS3_IS7_EEEE
       1653  674 004AF960 _Z19delaunayMeshIn3DHxtRNSt3__16vectorIP7MVertexNS_9allocatorIS2_EEEERNS0_IP12MTetrahedronNS3_IS8_EEEE
       1654  675 002786B0 _Z19ensureManifoldFacesP6GModel
       1655  676 009D6D30 _Z19export_gregion_meshP7GRegionRKNSt3__112basic_stringIcNS1_11char_traitsIcEENS1_9allocatorIcEEEE
       1656  677 008C0090 _Z19gmp_matrix_get_elemP12__mpz_structyyPK10gmp_matrix
       1657  678 008C00C0 _Z19gmp_matrix_set_elemP12__mpz_structyyPK10gmp_matrix
       1658  679 007BEBB0 _Z19gmsh_yy_scan_bufferPcy
       1659  67A 007BEC50 _Z19gmsh_yy_scan_stringPKc
       1660  67B 00209DD0 _Z19goldenSectionSearchPK5GEdgeRK7SPoint3dddd
       1661  67C 004373C0 _Z19inCircumCircleAnisoP5GFaceP9MTrianglePKdS4_R13bidimMeshData
       1662  67D 00437110 _Z19inCircumCircleAnisoP5GFacePdS1_S1_S1_S1_
       1663  67E 007EACA0 _Z19initializeMetamodelRKNSt3__112basic_stringIcNS_11char_traitsIcEENS_9allocatorIcEEEEPN6onelab6clientEPFvdEi
       1664  67F 003F39B0 _Z19meshGEdgeProcessingP5GEdgeddRiRNSt3__16vectorI8IntPointNS2_9allocatorIS4_EEEERdS1_
       1665  680 00A64030 _Z19meshQuadToTriRegionP7GRegionR12MVertexRTree
       1666  681 006076E0 _Z19nameOfSizeMapMethodi
       1667  682 00D348D0 _Z19normalizeTargetAreaRNSt3__15arrayINS0_IdLy2EEELy3EEE
       1668  683 00417B00 _Z19objectiveFunction_Lddddddi
       1669  684 00025220 _Z19opt_general_displayiiRKNSt3__112basic_stringIcNS_11char_traitsIcEENS_9allocatorIcEEEE
       1670  685 0003C880 _Z19opt_general_gamepadiid
       1671  686 0002A1D0 _Z19opt_general_light00iid
       1672  687 0002A210 _Z19opt_general_light01iid
       1673  688 0002A250 _Z19opt_general_light02iid
       1674  689 0002A290 _Z19opt_general_light03iid
       1675  68A 0002A300 _Z19opt_general_light10iid
       1676  68B 0002A340 _Z19opt_general_light11iid
       1677  68C 0002A380 _Z19opt_general_light12iid
       1678  68D 0002A3C0 _Z19opt_general_light13iid
       1679  68E 0002A430 _Z19opt_general_light20iid
       1680  68F 0002A470 _Z19opt_general_light21iid
       1681  690 0002A4B0 _Z19opt_general_light22iid
       1682  691 0002A4F0 _Z19opt_general_light23iid
       1683  692 0002A560 _Z19opt_general_light30iid
       1684  693 0002A5A0 _Z19opt_general_light31iid
       1685  694 0002A5E0 _Z19opt_general_light32iid
       1686  695 0002A620 _Z19opt_general_light33iid
       1687  696 0002A690 _Z19opt_general_light40iid
       1688  697 0002A6D0 _Z19opt_general_light41iid
       1689  698 0002A710 _Z19opt_general_light42iid
       1690  699 0002A750 _Z19opt_general_light43iid
       1691  69A 0002A7C0 _Z19opt_general_light50iid
       1692  69B 0002A800 _Z19opt_general_light51iid
       1693  69C 0002A840 _Z19opt_general_light52iid
       1694  69D 0002A880 _Z19opt_general_light53iid
       1695  69E 0002AFD0 _Z19opt_general_nopopupiid
       1696  69F 00025A50 _Z19opt_general_versioniiRKNSt3__112basic_stringIcNS_11char_traitsIcEENS_9allocatorIcEEEE
       1697  6A0 0002BCB0 _Z19opt_geometry_curvesiid
       1698  6A1 0002C610 _Z19opt_geometry_pointsiid
       1699  6A2 0002DE10 _Z19opt_mesh_ho_max_rhoiid
       1700  6A3 0002DB70 _Z19opt_mesh_ho_nlayersiid
       1701  6A4 0002DC30 _Z19opt_mesh_ho_poissoniid
       1702  6A5 0002DF60 _Z19opt_mesh_label_typeiid
       1703  6A6 0002E1E0 _Z19opt_mesh_line_widthiid
       1704  6A7 0002F490 _Z19opt_mesh_radius_infiid
       1705  6A8 0002F4F0 _Z19opt_mesh_radius_supiid
       1706  6A9 00030270 _Z19opt_mesh_tetrahedraiid
       1707  6AA 000309B0 _Z19opt_post_anim_cycleiid
       1708  6AB 00030970 _Z19opt_post_anim_delayiid
       1709  6AC 00035980 _Z19opt_print_parameteriid
       1710  6AD 00036010 _Z19opt_print_pos_distoiid
       1711  6AE 00035F50 _Z19opt_print_pos_gammaiid
       1712  6AF 00036220 _Z19opt_print_x3d_edgesiid
       1713  6B0 00027190 _Z19opt_view_attributesiiRKNSt3__112basic_stringIcNS_11char_traitsIcEENS_9allocatorIcEEEE
       1714  6B1 000315D0 _Z19opt_view_axes_tics0iid
       1715  6B2 00031650 _Z19opt_view_axes_tics1iid
       1716  6B3 000316D0 _Z19opt_view_axes_tics2iid
       1717  6B4 00037810 _Z19opt_view_color_axesiij
       1718  6B5 00032670 _Z19opt_view_custom_maxiid
       1719  6B6 00032700 _Z19opt_view_custom_miniid
       1720  6B7 000328C0 _Z19opt_view_draw_linesiid
       1721  6B8 00027770 _Z19opt_view_gen_raise0iiRKNSt3__112basic_stringIcNS_11char_traitsIcEENS_9allocatorIcEEEE
       1722  6B9 00027820 _Z19opt_view_gen_raise1iiRKNSt3__112basic_stringIcNS_11char_traitsIcEENS_9allocatorIcEEEE
       1723  6BA 000278D0 _Z19opt_view_gen_raise2iiRKNSt3__112basic_stringIcNS_11char_traitsIcEENS_9allocatorIcEEEE
       1724  6BB 000338B0 _Z19opt_view_line_widthiid
       1725  6BC 00034380 _Z19opt_view_point_sizeiid
       1726  6BD 00034400 _Z19opt_view_point_typeiid
       1727  6BE 00034750 _Z19opt_view_range_typeiid
       1728  6BF 00034940 _Z19opt_view_scale_typeiid
       1729  6C0 00034A90 _Z19opt_view_show_scaleiid
       1730  6C1 000EB2B0 _Z19projectPointToPlaneRK7SPoint3RS_RK10mean_plane
       1731  6C2 0034C690 _Z19removeBadChildCellsP12cartesianBoxIdE
       1732  6C3 0044C440 _Z19removeTwoQuadsNodesP5GFace
       1733  6C4 0033F8F0 _Z19scriptAddEllipseArciiiiRKNSt3__112basic_stringIcNS_11char_traitsIcEENS_9allocatorIcEEEE
       1734  6C5 003483A0 _Z19scriptSetVisibilityiRKNSt3__16vectorINS_4pairIiiEENS_9allocatorIS2_EEEERKNS_12basic_stringIcNS_11char_traitsIcEENS3_IcEEEE
       1735  6C6 00D33670 _Z19untangle_tetrahedraRNSt3__16vectorINS_5arrayIdLy3EEENS_9allocatorIS2_EEEERKNS0_IbNS3_IbEEEERKNS0_INS1_IjLy4EEENS3_ISB_EEEERKNS0_INS1_IS2_Ly4EEENS3_ISG_EEEEdiiid
       1736  6C7 00D58950 _Z19vectorvector2ptrptrIdEvRKNSt3__16vectorINS1_IT_NS0_9allocatorIS2_EEEENS3_IS5_EEEEPPPS2_PPySD_
       1737  6C8 00D58630 _Z19vectorvector2ptrptrIiEvRKNSt3__16vectorINS1_IT_NS0_9allocatorIS2_EEEENS3_IS5_EEEEPPPS2_PPySD_
       1738  6C9 00D58090 _Z19vectorvector2ptrptrIyEvRKNSt3__16vectorINS1_IT_NS0_9allocatorIS2_EEEENS3_IS5_EEEEPPPS2_PPySD_
       1739  6CA 00319EB0 _Z19writeElementsMATLABP6_iobufPK7GEntityibi
       1740  6CB 006FEA70 _Z20ColorTable_InitParamiP14GmshColorTable
       1741  6CC 006FEAE0 _Z20ColorTable_RecomputeP14GmshColorTable
       1742  6CD 003205F0 _Z20ComparePhysicalGroupPKvS0_
       1743  6CE 00325D80 _Z20DeletePhysicalVolumei
       1744  6CF 009B3D00 _Z20MeshQualityOptimizerP6GModelR21MeshQualOptParameters
       1745  6D0 009B33B0 _Z20MeshQualityOptimizerRNSt3__16vectorIP7GEntityNS_9allocatorIS2_EEEER21MeshQualOptParameters
       1746  6D1 00058F60 _Z20OpenProjectMacFinderPKc
       1747  6D2 00A6C830 _Z20QtMakeCentroidVertexRKNSt3__16vectorIP7MVertexNS_9allocatorIS2_EEEEPS5_P7GEntityR12MVertexRTree
       1748  6D3 00326060 _Z20RecognizeSurfaceLoopP6List_TPi
       1749  6D4 003273F0 _Z20ReplaceAllDuplicatesv
       1750  6D5 00038BD0 _Z20Sanitize_String_TexiRNSt3__112basic_stringIcNS_11char_traitsIcEENS_9allocatorIcEEEE
       1751  6D6 00326110 _Z20SetTranslationMatrixPA4_dPd
       1752  6D7 000B1010 _Z20_eulerCharacteristicP7GRegion
       1753  6D8 00604880 _Z20buildBackgroundFieldP6GModelRKNSt3__16vectorIP9MTriangleNS1_9allocatorIS4_EEEERKNS2_INS1_5arrayIdLy9EEENS5_ISB_EEEERKNS1_13unordered_mapIP7MVertexdNS1_4hashISI_EENS1_8equal_toISI_EENS5_INS1_4pairIKSI_dEEEEEERKNS2_INSA_IdLy5EEENS5_ISU_EEEERKNS1_12basic_stringIcNS1_11char_traitsIcEENS5_IcEEEE
       1754  6D9 0044BE40 _Z20buildListOfEdgeAngleNSt3__13mapI5MEdgeNS_4pairIP8MElementS4_EE13MEdgeLessThanNS_9allocatorINS2_IKS1_S5_EEEEEERNS_6vectorI10edge_angleNS7_ISD_EEEESG_
       1755  6DA 004F9860 _Z20buildVertexToElementI11MHexahedronEvRKNSt3__16vectorIPT_NS1_9allocatorIS4_EEEERNS1_3mapIP7MVertexNS2_IP8MElementNS5_ISE_EEEE18MVertexPtrLessThanNS5_INS1_4pairIKSC_SG_EEEEEE
       1756  6DB 00458680 _Z20buildVertexToElementI11MQuadrangleEvRKNSt3__16vectorIPT_NS1_9allocatorIS4_EEEERNS1_3mapIP7MVertexNS2_IP8MElementNS5_ISE_EEEE18MVertexPtrLessThanNS5_INS1_4pairIKSC_SG_EEEEEE
       1757  6DC 004F8B70 _Z20buildVertexToElementI12MTetrahedronEvRKNSt3__16vectorIPT_NS1_9allocatorIS4_EEEERNS1_3mapIP7MVertexNS2_IP8MElementNS5_ISE_EEEE18MVertexPtrLessThanNS5_INS1_4pairIKSC_SG_EEEEEE
       1758  6DD 004F9410 _Z20buildVertexToElementI6MPrismEvRKNSt3__16vectorIPT_NS1_9allocatorIS4_EEEERNS1_3mapIP7MVertexNS2_IP8MElementNS5_ISE_EEEE18MVertexPtrLessThanNS5_INS1_4pairIKSC_SG_EEEEEE
       1759  6DE 00515B90 _Z20buildVertexToElementI8MElementEvRKNSt3__16vectorIPT_NS1_9allocatorIS4_EEEERNS1_3mapIP7MVertexNS2_IPS0_NS5_ISD_EEEE18MVertexPtrLessThanNS5_INS1_4pairIKSC_SF_EEEEEE
       1760  6DF 004F8FC0 _Z20buildVertexToElementI8MPyramidEvRKNSt3__16vectorIPT_NS1_9allocatorIS4_EEEERNS1_3mapIP7MVertexNS2_IP8MElementNS5_ISE_EEEE18MVertexPtrLessThanNS5_INS1_4pairIKSC_SG_EEEEEE
       1761  6E0 00458230 _Z20buildVertexToElementI9MTriangleEvRKNSt3__16vectorIPT_NS1_9allocatorIS4_EEEERNS1_3mapIP7MVertexNS2_IP8MElementNS5_ISE_EEEE18MVertexPtrLessThanNS5_INS1_4pairIKSC_SG_EEEEEE
       1762  6E1 00065FF0 _Z20checkElementInBucketP6bucketPv
       1763  6E2 000E8D20 _Z20computeDistanceRatioRKdS0_S0_S0_PdS0_S0_
       1764  6E3 009B86B0 _Z20computeSetSmoothnessNSt3__16vectorI7cross3DNS_9allocatorIS1_EEEE
       1765  6E4 009876A0 _Z20curve2DBoundaryLayerRNSt3__16vectorINS_4pairIP8MElementNS0_IS3_NS_9allocatorIS3_EEEEEENS4_IS7_EEEE8SVector3PK5GEdge
       1766  6E5 00987790 _Z20curve2DBoundaryLayerRNSt3__16vectorINS_4pairIP8MElementNS0_IS3_NS_9allocatorIS3_EEEEEENS4_IS7_EEEEPK5GFacePK5GEdge
       1767  6E6 0098D460 _Z20curve3DBoundaryLayerRNSt3__16vectorINS_4pairIP8MElementNS0_IS3_NS_9allocatorIS3_EEEEEENS4_IS7_EEEEPK5GFace
       1768  6E7 00960000 _Z20exportMeshToDassaultP6GModelRKNSt3__112basic_stringIcNS1_11char_traitsIcEENS1_9allocatorIcEEEEi
       1769  6E8 007DBDD0 _Z20extractExpandPatternRKNSt3__112basic_stringIcNS_11char_traitsIcEENS_9allocatorIcEEEE
       1770  6E9 00D16D30 _Z20faceOrderedSideLoopsP5GFaceRK9GFaceInfoRNSt3__16vectorINS5_INS5_INS4_4pairIP5GEdgebEENS4_9allocatorIS9_EEEENSA_ISC_EEEENSA_ISE_EEEE
       1771  6EA 009D5DB0 _Z20far_from_boundary_3DP26frameFieldBackgroundMesh3DP7MVertexd
       1772  6EB 00D14910 _Z20fillSurfaceProjectorP5GFaceP16SurfaceProjector
       1773  6EC 007B0AB0 _Z20getAllElementaryTagsiP6List_T
       1774  6ED 00CD27F0 _Z20getAllLoadedPatternsv
       1775  6EE 008C09C0 _Z20gmp_matrix_left_multPK10gmp_matrixPS_
       1776  6EF 008C0150 _Z20gmp_matrix_swap_colsyyP10gmp_matrix
       1777  6F0 008C00F0 _Z20gmp_matrix_swap_rowsyyP10gmp_matrix
       1778  6F1 007BE750 _Z20gmsh_yy_flush_bufferP15yy_buffer_state
       1779  6F2 0060B760 _Z20idealBoundaryValencePK7MVertexd
       1780  6F3 0060FB80 _Z20improveCurveValencesP5GFaceRKN10robin_hood6detail5TableILb1ELy80EP7MVertexdNS1_4hashIS5_vEENSt3__18equal_toIS5_EEEERNS3_ILb1ELy80ES5_NS8_6vectorIP8MElementNS8_9allocatorISG_EEEES7_SA_EER9DQOptionsR7DQStats
       1781  6F4 009D59F0 _Z20infinity_distance_3DPK7MVertexS1_R8STensor3
       1782  6F5 001FF150 _Z20intersection_alauzetRK8SMetric3S1_
       1783  6F6 0023C150 _Z20intrinsicDelaunayizeP12discreteFace
       1784  6F7 004B2510 _Z20makeCavityStarShapedRNSt3__16vectorI8faceXtetNS_9allocatorIS1_EEEERNS0_IP5MTet4NS2_IS7_EEEEP7MVertex
       1785  6F8 00CB0600 _Z20nbVerticesOnBoundaryRK14GFaceMeshPatch
       1786  6F9 000252F0 _Z20opt_general_filenameiiRKNSt3__112basic_stringIcNS_11char_traitsIcEENS_9allocatorIcEEEE
       1787  6FA 00029F20 _Z20opt_general_fontsizeiid
       1788  6FB 0002B880 _Z20opt_general_terminaliid
       1789  6FC 0002B8B0 _Z20opt_general_tooltipsiid
       1790  6FD 0002C020 _Z20opt_geometry_normalsiid
       1791  6FE 0002C490 _Z20opt_geometry_offset0iid
       1792  6FF 0002C4D0 _Z20opt_geometry_offset1iid
       1793  700 0002C510 _Z20opt_geometry_offset2iid
       1794  701 0002CCA0 _Z20opt_geometry_volumesiid
       1795  702 000367C0 _Z20opt_mesh_color_linesiij
       1796  703 00036760 _Z20opt_mesh_color_nodesiij
       1797  704 0002DA50 _Z20opt_mesh_file_formatiid
       1798  705 0002DAE0 _Z20opt_mesh_ho_dist_cadiid
       1799  706 0002DB40 _Z20opt_mesh_ho_iter_maxiid
       1800  707 0002DBA0 _Z20opt_mesh_ho_optimizeiid
       1801  708 0002DBD0 _Z20opt_mesh_ho_pass_maxiid
       1802  709 0002DC00 _Z20opt_mesh_ho_periodiciid
       1803  70A 0002E0A0 _Z20opt_mesh_light_linesiid
       1804  70B 0002E1B0 _Z20opt_mesh_line_labelsiid
       1805  70C 0002E2E0 _Z20opt_mesh_max_retriesiid
       1806  70D 0002E990 _Z20opt_mesh_nb_pyramidsiid
       1807  70E 0002E9C0 _Z20opt_mesh_nb_trihedraiid
       1808  70F 0002EAE0 _Z20opt_mesh_node_labelsiid
       1809  710 0002F2E0 _Z20opt_mesh_quadranglesiid
       1810  711 0002F340 _Z20opt_mesh_quality_infiid
       1811  712 0002F3A0 _Z20opt_mesh_quality_supiid
       1812  713 0002F550 _Z20opt_mesh_rand_factoriid
       1813  714 0002F6B0 _Z20opt_mesh_random_seediid
       1814  715 00030C00 _Z20opt_post_file_formatiid
       1815  716 00035A80 _Z20opt_print_backgroundiid
       1816  717 00035CB0 _Z20opt_print_geo_labelsiid
       1817  718 00035D10 _Z20opt_print_gif_ditheriid
       1818  719 00030810 _Z20opt_solver_auto_meshiid
       1819  71A 0003C1F0 _Z20opt_solver_extensioniiRKNSt3__112basic_stringIcNS_11char_traitsIcEENS_9allocatorIcEEEE
       1820  71B 000273F0 _Z20opt_view_axes_label0iiRKNSt3__112basic_stringIcNS_11char_traitsIcEENS_9allocatorIcEEEE
       1821  71C 00027490 _Z20opt_view_axes_label1iiRKNSt3__112basic_stringIcNS_11char_traitsIcEENS_9allocatorIcEEEE
       1822  71D 00027530 _Z20opt_view_axes_label2iiRKNSt3__112basic_stringIcNS_11char_traitsIcEENS_9allocatorIcEEEE
       1823  71E 000311D0 _Z20opt_view_axes_mikadoiid
       1824  71F 00037170 _Z20opt_view_color_linesiij
       1825  720 00032960 _Z20opt_view_draw_pointsiid
       1826  721 00032A00 _Z20opt_view_draw_prismsiid
       1827  722 000336F0 _Z20opt_view_light_linesiid
       1828  723 00033AA0 _Z20opt_view_max_visibleiid
       1829  724 00033D60 _Z20opt_view_min_visibleiid
       1830  725 00034040 _Z20opt_view_nb_timestepiid
       1831  726 00034E30 _Z20opt_view_tensor_typeiid
       1832  727 00035170 _Z20opt_view_transform00iid
       1833  728 00035200 _Z20opt_view_transform01iid
       1834  729 00035290 _Z20opt_view_transform02iid
       1835  72A 00035320 _Z20opt_view_transform10iid
       1836  72B 000353B0 _Z20opt_view_transform11iid
       1837  72C 00035440 _Z20opt_view_transform12iid
       1838  72D 000354D0 _Z20opt_view_transform20iid
       1839  72E 00035560 _Z20opt_view_transform21iid
       1840  72F 000355F0 _Z20opt_view_transform22iid
       1841  730 00034C50 _Z20opt_view_use_stippleiid
       1842  731 000357C0 _Z20opt_view_vector_typeiid
       1843  732 000EB350 _Z20projectPointsToPlaneRKNSt3__16vectorI7SPoint3NS_9allocatorIS1_EEEERS4_RK10mean_plane
       1844  733 002C3370 _Z20readMSHPeriodicNodesP6_iobufP6GModel
       1845  734 0033D850 _Z20scriptAddFieldOptioniRKNSt3__112basic_stringIcNS_11char_traitsIcEENS_9allocatorIcEEEES7_iS7_
       1846  735 00340780 _Z20scriptAddSurfaceLoopP6List_TRKNSt3__112basic_stringIcNS1_11char_traitsIcEENS1_9allocatorIcEEEEPi
       1847  736 00347EF0 _Z20scriptDeleteEntitiesRKNSt3__112basic_stringIcNS_11char_traitsIcEENS_9allocatorIcEEEERKNS_6vectorINS_4pairIiiEENS3_ISA_EEEEb
       1848  737 00605FB0 _Z20showCrossFieldInViewRKNSt3__16vectorIP9MTriangleNS_9allocatorIS2_EEEERKNS0_INS_5arrayIdLy9EEENS3_IS9_EEEERKNS_12basic_stringIcNS_11char_traitsIcEENS3_IcEEEE
       1849  738 004E1AD0 _Z20smoothVertexOptimizeP5MTet4iRKN13qmTetrahedron8MeasuresE
       1850  739 0058E4F0 _Z21BarycentricRefineMeshP6GModel
       1851  73A 001E9110 _Z21CurvatureRusinkiewiczRKNSt3__16vectorIiNS_9allocatorIiEEEERKNS0_I7SPoint3NS1_IS6_EEEERNS0_INS_4pairI8SVector3SC_EENS1_ISD_EEEE
       1852  73B 001EBAD0 _Z21CurvatureRusinkiewiczRKNSt3__16vectorIiNS_9allocatorIiEEEERKNS0_I7SPoint3NS1_IS6_EEEERNS0_INS_4pairI8SVector3SC_EENS1_ISD_EEEERNS0_IdNS1_IdEEEE
       1853  73C 00325CB0 _Z21DeletePhysicalSurfacei
       1854  73D 00053270 _Z21GetExecutableFileNamev
       1855  73E 00001510 _Z21GmshGetMessageHandlerv
       1856  73F 000014F0 _Z21GmshSetMessageHandlerP11GmshMessage
       1857  740 00A688D0 _Z21IsInToroidalQuadToTriP5GFace
       1858  741 00528050 _Z21LC_MVertex_CURV_ANISOP7GEntitydd
       1859  742 00074150 _Z21List_Pointer_NoChangeP6List_Ti
       1860  743 004C3070 _Z21MeshTransfiniteVolumeP7GRegion
       1861  744 003323C0 _Z21ProjectPointOnSurfaceP7SurfaceR6VertexPd
       1862  745 00A68F10 _Z21ReplaceBndQuadsInFaceP5GFace
       1863  746 004D1730 _Z21SubdivideExtrudedMeshP6GModel
       1864  747 00126BF0 _Z21buildOrthoBasis_naiveR8SVector3S0_S0_
       1865  748 00D35C20 _Z21buildPlanarTriProblemP5GFaceRNSt3__16vectorIP7MVertexNS1_9allocatorIS4_EEEERNS2_INS1_5arrayIdLy2EEENS5_ISA_EEEERNS2_IbNS5_IbEEEERNS2_INS9_IjLy3EEENS5_ISH_EEEERNS2_INS9_ISA_Ly3EEENS5_ISL_EEEER13TransfoPlanar
       1866  749 0059BEB0 _Z21centroidOfOrientedBoxRNSt3__16vectorI7SPoint2NS_9allocatorIS1_EEEERKdRdS8_S8_S8_
       1867  74A 00691870 _Z21compare_xmax_trianglePK14TriangleToSortS1_
       1868  74B 00691840 _Z21compare_xmin_trianglePK14TriangleToSortS1_
       1869  74C 00691880 _Z21compare_ymax_trianglePK14TriangleToSortS1_
       1870  74D 00691850 _Z21compare_ymin_trianglePK14TriangleToSortS1_
       1871  74E 00691890 _Z21compare_zmax_trianglePK14TriangleToSortS1_
       1872  74F 00691860 _Z21compare_zmin_trianglePK14TriangleToSortS1_
       1873  750 005CB5E0 _Z21computeCrossFieldAndHP6GModelRNSt3__16vectorIiNS1_9allocatorIiEEEE
       1874  751 005CA510 _Z21createExtraConnexionsR10dofManagerIdERNSt3__16vectorI14groupOfCross2dNS2_9allocatorIS4_EEEERNS3_I15cutGraphPassageNS5_IS9_EEEE
       1875  752 008BFC70 _Z21create_gmp_matrix_intyyPKl
       1876  753 00594E30 _Z21delaunayTriangulationiiRNSt3__16vectorIP7MVertexNS_9allocatorIS2_EEEERNS0_IP12MTetrahedronNS3_IS8_EEEEb
       1877  754 008C0230 _Z21gmp_matrix_negate_colyP10gmp_matrix
       1878  755 008C01C0 _Z21gmp_matrix_negate_rowyP10gmp_matrix
       1879  756 008BF8A0 _Z21gmp_matrix_read_coordPc
       1880  757 008C0820 _Z21gmp_matrix_right_multP10gmp_matrixPKS_
       1881  758 00170EB0 _Z21gmshGenerateMonomials13FuncSpaceDataR10fullMatrixIdE
       1882  759 007BD990 _Z21gmsh_yy_create_bufferP6_iobufi
       1883  75A 007BE930 _Z21gmsh_yy_delete_bufferP15yy_buffer_state
       1884  75B 00D2F5D0 _Z21i4vec_transpose_printiPiNSt3__112basic_stringIcNS0_11char_traitsIcEENS0_9allocatorIcEEEE
       1885  75C 0060D8F0 _Z21improveCornerValencesP5GFaceRKN10robin_hood6detail5TableILb1ELy80EP7MVertexdNS1_4hashIS5_vEENSt3__18equal_toIS5_EEEERNS3_ILb1ELy80ES5_NS8_6vectorIP8MElementNS8_9allocatorISG_EEEES7_SA_EER9DQOptionsR7DQStats
       1886  75D 001FA630 _Z21intersectCurveSurfaceR12curveFunctorR14surfaceFunctorPdd
       1887  75E 000EA270 _Z21intersection_segmentsRK7SPoint2S1_S1_S1_Pd
       1888  75F 000EA450 _Z21intersection_segmentsRK7SPoint3S1_S1_S1_Pd
       1889  760 000289B0 _Z21opt_general_axes_xmaxiid
       1890  761 00028A70 _Z21opt_general_axes_xminiid
       1891  762 000289F0 _Z21opt_general_axes_ymaxiid
       1892  763 00028AB0 _Z21opt_general_axes_yminiid
       1893  764 00028A30 _Z21opt_general_axes_zmaxiid
       1894  765 00028AF0 _Z21opt_general_axes_zminiid
       1895  766 00025320 _Z21opt_general_gui_themeiiRKNSt3__112basic_stringIcNS_11char_traitsIcEENS_9allocatorIcEEEE
       1896  767 0002B2C0 _Z21opt_general_rotation0iid
       1897  768 0002B300 _Z21opt_general_rotation1iid
       1898  769 0002B340 _Z21opt_general_rotation2iid
       1899  76A 0002B8E0 _Z21opt_general_trackballiid
       1900  76B 0002BB60 _Z21opt_general_verbosityiid
       1901  76C 0002C880 _Z21opt_geometry_surfacesiid
       1902  76D 0002C940 _Z21opt_geometry_tangentsiid
       1903  76E 00036950 _Z21opt_mesh_color_prismsiij
       1904  76F 0002DE50 _Z21opt_mesh_ho_max_angleiid
       1905  770 0002E8B0 _Z21opt_mesh_nb_hexahedraiid
       1906  771 0002FDF0 _Z21opt_mesh_nb_smoothingiid
       1907  772 0002EA50 _Z21opt_mesh_nb_trianglesiid
       1908  773 0002F400 _Z21opt_mesh_quality_typeiid
       1909  774 0002F9F0 _Z21opt_mesh_refine_stepsiid
       1910  775 0002FEE0 _Z21opt_mesh_smooth_ratioiid
       1911  776 00030590 _Z21opt_mesh_volume_edgesiid
       1912  777 000305F0 _Z21opt_mesh_volume_facesiid
       1913  778 00035C50 _Z21opt_print_eps_qualityiid
       1914  779 00035C80 _Z21opt_print_file_formatiid
       1915  77A 00035E60 _Z21opt_print_pgf_two_dimiid
       1916  77B 00035F20 _Z21opt_print_pos_elementiid
       1917  77C 00036280 _Z21opt_print_x3d_volumesiid
       1918  77D 00030780 _Z21opt_solver_auto_checkiid
       1919  77E 0003C260 _Z21opt_solver_executableiiRKNSt3__112basic_stringIcNS_11char_traitsIcEENS_9allocatorIcEEEE
       1920  77F 00026970 _Z21opt_solver_extension0iiRKNSt3__112basic_stringIcNS_11char_traitsIcEENS_9allocatorIcEEEE
       1921  780 000269C0 _Z21opt_solver_extension1iiRKNSt3__112basic_stringIcNS_11char_traitsIcEENS_9allocatorIcEEEE
       1922  781 00026A10 _Z21opt_solver_extension2iiRKNSt3__112basic_stringIcNS_11char_traitsIcEENS_9allocatorIcEEEE
       1923  782 00026A60 _Z21opt_solver_extension3iiRKNSt3__112basic_stringIcNS_11char_traitsIcEENS_9allocatorIcEEEE
       1924  783 00026AB0 _Z21opt_solver_extension4iiRKNSt3__112basic_stringIcNS_11char_traitsIcEENS_9allocatorIcEEEE
       1925  784 00026B00 _Z21opt_solver_extension5iiRKNSt3__112basic_stringIcNS_11char_traitsIcEENS_9allocatorIcEEEE
       1926  785 00026B50 _Z21opt_solver_extension6iiRKNSt3__112basic_stringIcNS_11char_traitsIcEENS_9allocatorIcEEEE
       1927  786 00026BA0 _Z21opt_solver_extension7iiRKNSt3__112basic_stringIcNS_11char_traitsIcEENS_9allocatorIcEEEE
       1928  787 00026BF0 _Z21opt_solver_extension8iiRKNSt3__112basic_stringIcNS_11char_traitsIcEENS_9allocatorIcEEEE
       1929  788 00026C40 _Z21opt_solver_extension9iiRKNSt3__112basic_stringIcNS_11char_traitsIcEENS_9allocatorIcEEEE
       1930  789 00027230 _Z21opt_view_axes_format0iiRKNSt3__112basic_stringIcNS_11char_traitsIcEENS_9allocatorIcEEEE
       1931  78A 000272C0 _Z21opt_view_axes_format1iiRKNSt3__112basic_stringIcNS_11char_traitsIcEENS_9allocatorIcEEEE
       1932  78B 00027350 _Z21opt_view_axes_format2iiRKNSt3__112basic_stringIcNS_11char_traitsIcEENS_9allocatorIcEEEE
       1933  78C 000370E0 _Z21opt_view_color_pointsiij
       1934  78D 00037440 _Z21opt_view_color_prismsiij
       1935  78E 00037710 _Z21opt_view_color_text2diij
       1936  78F 00037790 _Z21opt_view_color_text3diij
       1937  790 00032C80 _Z21opt_view_draw_scalarsiid
       1938  791 00032DC0 _Z21opt_view_draw_stringsiid
       1939  792 00032E50 _Z21opt_view_draw_tensorsiid
       1940  793 00033030 _Z21opt_view_draw_vectorsiid
       1941  794 000340C0 _Z21opt_view_normal_raiseiid
       1942  795 000349F0 _Z21opt_view_show_elementiid
       1943  796 00034D60 _Z21opt_view_target_erroriid
       1944  797 00CB14A0 _Z21patchProjectOnSurfaceR14GFaceMeshPatchP16SurfaceProjector
       1945  798 00D2FB80 _Z21r8vec_transpose_printiPdNSt3__112basic_stringIcNS0_11char_traitsIcEENS0_9allocatorIcEEEE
       1946  799 008BD400 _Z21recurChangeVisibilityP12RecurElement
       1947  79A 008BD4A0 _Z21recurChangeVisibilityP12RecurElementRKNSt3__16vectorIP9gLevelsetNS1_9allocatorIS4_EEEEd
       1948  79B 0036D8B0 _Z21reparamMeshEdgeOnFaceP7MVertexS0_P5GFaceR7SPoint2S4_
       1949  79C 00606110 _Z21showUVParametrizationP5GFaceRKNSt3__16vectorIP8MElementNS1_9allocatorIS4_EEEERKNS1_12basic_stringIcNS1_11char_traitsIcEENS5_IcEEEE
       1950  79D 00606860 _Z21showUVParametrizationR20GlobalBackgroundMeshRKNSt3__112basic_stringIcNS1_11char_traitsIcEENS1_9allocatorIcEEEE
       1951  79E 00066020 _Z21subdivideOctantBucketP6bucketP6global
       1952  79F 0044B310 _Z21transferDataStructureP5GFaceRNSt3__13setIP5MTri314compareTri3PtrNS1_9allocatorIS4_EEEER13bidimMeshData
       1953  7A0 00D33520 _Z21untangle_triangles_2DRNSt3__16vectorINS_5arrayIdLy2EEENS_9allocatorIS2_EEEERKNS0_IbNS3_IbEEEERKNS0_INS1_IjLy3EEENS3_ISB_EEEERKNS0_INS1_IS2_Ly3EEENS3_ISG_EEEEdiiid
       1954  7A1 002C8590 _Z21writeMSHPeriodicNodesP6_iobufRNSt3__16vectorIP7GEntityNS1_9allocatorIS4_EEEEbb
       1955  7A2 000678E0 _Z22GetFileNameWithoutPathRKNSt3__112basic_stringIcNS_11char_traitsIcEENS_9allocatorIcEEEE
       1956  7A3 00961610 _Z22HighOrderMeshOptimizerP6GModelR16OptHomParameters
       1957  7A4 009606E0 _Z22HighOrderMeshOptimizerRNSt3__16vectorIP7GEntityNS_9allocatorIS2_EEEER16OptHomParameters
       1958  7A5 00334EB0 _Z22InterpolateCubicSplinePP6VertexdPA4_dddP11gmshSurfacei
       1959  7A6 00A6DAF0 _Z22IsSurfaceATopForRegionP7GRegionP5GFace
       1960  7A7 00A3BD30 _Z22IsValidQuadToTriRegionP7GRegionPb
       1961  7A8 000749B0 _Z22ListOfDouble2ListOfIntP6List_T
       1962  7A9 00421D10 _Z22MeshTransfiniteSurfaceP5GFace
       1963  7AA 00A3C0F0 _Z22QuadToTriEdgeGeneratorP7GRegionR25CategorizedSourceElementsRNSt3__13setINS3_4pairIP7MVertexS7_EENS3_4lessIS8_EENS3_9allocatorIS8_EEEESE_RNS3_3mapIP8MElementNS4_INS5_IjjEENS9_ISI_EENSB_ISI_EEEENS9_ISH_EENSB_INS5_IKSH_SL_EEEEEER12MVertexRTree
       1964  7AB 00333BE0 _Z22SetSurfaceGeneratricesP7SurfaceP6List_T
       1965  7AC 00396120 _Z22_getIndicesReversedHexiRNSt3__16vectorIiNS_9allocatorIiEEEE
       1966  7AD 00399F80 _Z22_getIndicesReversedPriiRNSt3__16vectorIiNS_9allocatorIiEEEE
       1967  7AE 0039D630 _Z22_getIndicesReversedPyriRNSt3__16vectorIiNS_9allocatorIiEEEE
       1968  7AF 00392C40 _Z22_getIndicesReversedTetiRNSt3__16vectorIiNS_9allocatorIiEEEE
       1969  7B0 00D0E810 _Z22buildVertexToVertexMapRKNSt3__16vectorIP8MElementNS_9allocatorIS2_EEEERNS_13unordered_mapIP7MVertexNS0_ISA_NS3_ISA_EEEENS_4hashISA_EENS_8equal_toISA_EENS3_INS_4pairIKSA_SC_EEEEEE
       1970  7B1 00D0E230 _Z22buildVertexToVertexMapRKNSt3__16vectorIP9MTriangleNS_9allocatorIS2_EEEERNS_13unordered_mapIP7MVertexNS0_ISA_NS3_ISA_EEEENS_4hashISA_EENS_8equal_toISA_EENS3_INS_4pairIKSA_SC_EEEEEE
       1971  7B2 000EAAB0 _Z22computeMeanPlaneSimpleRKNSt3__16vectorI7SPoint3NS_9allocatorIS1_EEEER10mean_plane
       1972  7B3 00299DD0 _Z22computeParametrizationRKNSt3__16vectorIP9MTriangleNS_9allocatorIS2_EEEERNS0_IP7MVertexNS3_IS9_EEEERNS0_I7SPoint2NS3_ISD_EEEERNS0_I7SPoint3NS3_ISH_EEEERNS0_IiNS3_IiEEEE
       1973  7B4 008BFDF0 _Z22create_gmp_matrix_zeroyy
       1974  7B5 00421630 _Z22findTransfiniteCornersP5GFaceRNSt3__16vectorIP7MVertexNS1_9allocatorIS4_EEEE
       1975  7B6 004C29F0 _Z22findTransfiniteCornersP7GRegionRNSt3__16vectorIP7MVertexNS1_9allocatorIS4_EEEE
       1976  7B7 00D0FB00 _Z22getConnectedComponentsRKNSt3__16vectorIP8MElementNS_9allocatorIS2_EEEERNS0_IS5_NS3_IS5_EEEE
       1977  7B8 008C05F0 _Z22gmp_matrix_is_diagonalPK10gmp_matrix
       1978  7B9 008BFA10 _Z22gmp_matrix_write_coordPcP10gmp_matrix
       1979  7BA 0016A8E0 _Z22gmshGeneratePointsLinei
       1980  7BB 004B7DC0 _Z22insertVerticesInRegionP7GRegionidbP17splitQuadRecovery
       1981  7BC 004B4BC0 _Z22non_recursive_classifyP5MTet4RNSt3__14listIS0_NS1_9allocatorIS0_EEEERNS1_3setIP5GFaceNS1_4lessIS9_EENS3_IS9_EEEEP7GRegionP6GModelRKNS1_3mapI5MFaceS9_13MFaceLessThanNS3_INS1_4pairIKSK_S9_EEEEEE
       1982  7BD 00028B30 _Z22opt_general_axes_tics0iid
       1983  7BE 00028B70 _Z22opt_general_axes_tics1iid
       1984  7BF 00028BB0 _Z22opt_general_axes_tics2iid
       1985  7C0 00024E40 _Z22opt_general_build_infoiiRKNSt3__112basic_stringIcNS_11char_traitsIcEENS_9allocatorIcEEEE
       1986  7C1 000363D0 _Z22opt_general_color_axesiij
       1987  7C2 000363A0 _Z22opt_general_color_textiij
       1988  7C3 0002A8C0 _Z22opt_general_line_widthiid
       1989  7C4 0002AB40 _Z22opt_general_menu_size0iid
       1990  7C5 0002AB90 _Z22opt_general_menu_size1iid
       1991  7C6 0002B180 _Z22opt_general_point_sizeiid
       1992  7C7 0002B6D0 _Z22opt_general_small_axesiid
       1993  7C8 0002C980 _Z22opt_geometry_toleranceiid
       1994  7C9 0002CA00 _Z22opt_geometry_transformiid
       1995  7CA 00036A70 _Z22opt_mesh_color_normalsiij
       1996  7CB 000369A0 _Z22opt_mesh_color_pyramidiij
       1997  7CC 0002EA20 _Z22opt_mesh_nb_tetrahedraiid
       1998  7CD 0002EBC0 _Z22opt_mesh_num_sub_edgesiid
       1999  7CE 0002E910 _Z22opt_mesh_partition_numiid
       2000  7CF 0002F600 _Z22opt_mesh_rand_factor3diid
       2001  7D0 0002F7D0 _Z22opt_mesh_recombine_alliid
       2002  7D1 0002FB40 _Z22opt_mesh_save_topologyiid
       2003  7D2 00030100 _Z22opt_mesh_surface_edgesiid
       2004  7D3 00030160 _Z22opt_mesh_surface_facesiid
       2005  7D4 00030650 _Z22opt_mesh_volume_labelsiid
       2006  7D5 00035B40 _Z22opt_print_eps_compressiid
       2007  7D6 00035E00 _Z22opt_print_jpeg_qualityiid
       2008  7D7 000362B0 _Z22opt_print_x3d_colorizeiid
       2009  7D8 000361F0 _Z22opt_print_x3d_surfacesiid
       2010  7D9 00036250 _Z22opt_print_x3d_verticesiid
       2011  7DA 00026330 _Z22opt_solver_executable0iiRKNSt3__112basic_stringIcNS_11char_traitsIcEENS_9allocatorIcEEEE
       2012  7DB 00026380 _Z22opt_solver_executable1iiRKNSt3__112basic_stringIcNS_11char_traitsIcEENS_9allocatorIcEEEE
       2013  7DC 000263D0 _Z22opt_solver_executable2iiRKNSt3__112basic_stringIcNS_11char_traitsIcEENS_9allocatorIcEEEE
       2014  7DD 00026420 _Z22opt_solver_executable3iiRKNSt3__112basic_stringIcNS_11char_traitsIcEENS_9allocatorIcEEEE
       2015  7DE 00026470 _Z22opt_solver_executable4iiRKNSt3__112basic_stringIcNS_11char_traitsIcEENS_9allocatorIcEEEE
       2016  7DF 000264C0 _Z22opt_solver_executable5iiRKNSt3__112basic_stringIcNS_11char_traitsIcEENS_9allocatorIcEEEE
       2017  7E0 00026510 _Z22opt_solver_executable6iiRKNSt3__112basic_stringIcNS_11char_traitsIcEENS_9allocatorIcEEEE
       2018  7E1 00026560 _Z22opt_solver_executable7iiRKNSt3__112basic_stringIcNS_11char_traitsIcEENS_9allocatorIcEEEE
       2019  7E2 000265B0 _Z22opt_solver_executable8iiRKNSt3__112basic_stringIcNS_11char_traitsIcEENS_9allocatorIcEEEE
       2020  7E3 00026600 _Z22opt_solver_executable9iiRKNSt3__112basic_stringIcNS_11char_traitsIcEENS_9allocatorIcEEEE
       2021  7E4 00027050 _Z22opt_solver_socket_nameiiRKNSt3__112basic_stringIcNS_11char_traitsIcEENS_9allocatorIcEEEE
       2022  7E5 000310B0 _Z22opt_view_auto_positioniid
       2023  7E6 000317F0 _Z22opt_view_center_glyphsiid
       2024  7E7 00037680 _Z22opt_view_color_normalsiij
       2025  7E8 00031B00 _Z22opt_view_colormap_betaiid
       2026  7E9 00031BA0 _Z22opt_view_colormap_biasiid
       2027  7EA 00031F00 _Z22opt_view_colormap_swapiid
       2028  7EB 00032AA0 _Z22opt_view_draw_pyramidsiid
       2029  7EC 00032B40 _Z22opt_view_draw_trihedraiid
       2030  7ED 00033160 _Z22opt_view_external_viewiid
       2031  7EE 00035720 _Z22opt_view_use_gen_raiseiid
       2032  7EF 00CB4830 _Z22optimizeGeometryQuadqsP6GModel
       2033  7F0 00CC7530 _Z22patternNumberOfCornersy
       2034  7F1 0033B5D0 _Z22scriptRecombineSurfaceRKNSt3__112basic_stringIcNS_11char_traitsIcEENS_9allocatorIcEEEERKNS_6vectorIiNS3_IiEEEE
       2035  7F2 003481E0 _Z22scriptSetVisibilityAlliRKNSt3__112basic_stringIcNS_11char_traitsIcEENS_9allocatorIcEEEE
       2036  7F3 00D0C040 _Z22sizeMapOneWaySmoothingRKNSt3__16vectorIP9MTriangleNS_9allocatorIS2_EEEERNS_13unordered_mapIP7MVertexdNS_4hashISA_EENS_8equal_toISA_EENS3_INS_4pairIKSA_dEEEEEEd
       2037  7F4 00058040 _Z23DeleteAllModelsAndViewsv
       2038  7F5 005296D0 _Z23Extend2dMeshIn3dVolumesv
       2039  7F6 00A6CCE0 _Z23FindDiagonalEdgeIndicesNSt3__16vectorIP7MVertexNS_9allocatorIS2_EEEEP5GFacebj
       2040  7F7 004FC190 _Z23GFaceDelaunayRefinementy
       2041  7F8 0005B1D0 _Z23GetDefaultFileExtensionib
       2042  7F9 00A38E50 _Z23IsValidQuadToTriLateralP5GFacePiPb
       2043  7FA 000576D0 _Z23MergePostProcessingFileRKNSt3__112basic_stringIcNS_11char_traitsIcEENS_9allocatorIcEEEEibb
       2044  7FB 00A39A60 _Z23MeshQuadToTriTopSurfaceP5GFaceS0_R12MVertexRTree
       2045  7FC 005763C0 _Z23PartitionUsingThisSplitP6GModelRNSt3__16vectorINS1_4pairIP8MElementiEENS1_9allocatorIS6_EEEE
       2046  7FD 00A5B7C0 _Z23QuadToTriCreateElementsP7GRegionR25CategorizedSourceElementsRNSt3__13setINS3_4pairIP7MVertexS7_EENS3_4lessIS8_EENS3_9allocatorIS8_EEEESE_RNS3_3mapIP8MElementNS4_INS5_IjjEENS9_ISI_EENSB_ISI_EEEENS9_ISH_EENSB_INS5_IKSH_SL_EEEEEER12MVertexRTree
       2047  7FE 0032CE10 _Z23ReplaceAllDuplicatesNewd
       2048  7FF 00067A60 _Z23ReplaceSubStringInPlaceRKNSt3__112basic_stringIcNS_11char_traitsIcEENS_9allocatorIcEEEES7_RS5_
       2049  800 005CA520 _Z23assembleExtraConnexionsR10dofManagerIdERNSt3__16vectorI14groupOfCross2dNS2_9allocatorIS4_EEEERNS3_I15cutGraphPassageNS5_IS9_EEEE
       2050  801 001EE8F0 _Z23buildAdditionalPoints2DP5GFace
       2051  802 004DFE60 _Z23buildVertexCavity_recurP5MTet4P7MVertexRNSt3__16vectorIS0_NS3_9allocatorIS0_EEEE
       2052  803 00550A50 _Z23checkHighOrderTrianglesPKcP6GModelRNSt3__16vectorIP8MElementNS3_9allocatorIS6_EEEERd
       2053  804 002994E0 _Z23computeNonManifoldEdgesP6GModelRNSt3__16vectorIP5MLineNS1_9allocatorIS4_EEEEb
       2054  805 008BEE30 _Z23destroy_gmp_normal_formP15gmp_normal_form
       2055  806 001291E0 _Z23discreteFrechetDistanceRKNSt3__16vectorI7SPoint3NS_9allocatorIS1_EEEES6_
       2056  807 002A3130 _Z23getCandidateExtrudeInfoP7GRegionRNSt3__16vectorI11extrudeInfoNS1_9allocatorIS3_EEEERNS2_INS1_4pairI8SVector3iEENS4_ISA_EEEE
       2057  808 00174770 _Z23getInnerVertexPlacementii
       2058  809 0016B230 _Z23gmshGeneratePointsPrismib
       2059  80A 007BEB00 _Z23gmsh_yypop_buffer_statev
       2060  80B 00D0E1D0 _Z23haveNiceParametrizationP5GFace
       2061  80C 00611C70 _Z23improveInteriorValencesP5GFaceRKN10robin_hood6detail5TableILb1ELy80EP7MVertexdNS1_4hashIS5_vEENSt3__18equal_toIS5_EEEERNS3_ILb1ELy80ES5_NS8_6vectorIP8MElementNS8_9allocatorISG_EEEES7_SA_EER9DQOptionsR7DQStats
       2062  80D 000657A0 _Z23initializeOctantBucketsPdS_iPP6bucketPP6global
       2063  80E 001FF8E0 _Z23intersection_conserveM1RK8SMetric3S1_
       2064  80F 00417620 _Z23lengthPathInMetricFieldPA2_dPdi
       2065  810 00024D00 _Z23opt_general_axes_label0iiRKNSt3__112basic_stringIcNS_11char_traitsIcEENS_9allocatorIcEEEE
       2066  811 00024D50 _Z23opt_general_axes_label1iiRKNSt3__112basic_stringIcNS_11char_traitsIcEENS_9allocatorIcEEEE
       2067  812 00024DA0 _Z23opt_general_axes_label2iiRKNSt3__112basic_stringIcNS_11char_traitsIcEENS_9allocatorIcEEEE
       2068  813 00028920 _Z23opt_general_axes_mikadoiid
       2069  814 00028F50 _Z23opt_general_camera_modeiid
       2070  815 00029640 _Z23opt_general_clip_factoriid
       2071  816 00029C80 _Z23opt_general_expert_modeiid
       2072  817 00029D40 _Z23opt_general_extra_size0iid
       2073  818 00029D10 _Z23opt_general_extra_size1iid
       2074  819 00029D70 _Z23opt_general_fast_redrawiid
       2075  81A 00029E30 _Z23opt_general_field_size0iid
       2076  81B 00029E00 _Z23opt_general_field_size1iid
       2077  81C 0002B000 _Z23opt_general_num_threadsiid
       2078  81D 0002B940 _Z23opt_general_quaternion0iid
       2079  81E 0002B980 _Z23opt_general_quaternion1iid
       2080  81F 0002B9C0 _Z23opt_general_quaternion2iid
       2081  820 0002BA00 _Z23opt_general_quaternion3iid
       2082  821 0002B7F0 _Z23opt_general_stereo_modeiid
       2083  822 0002BB00 _Z23opt_general_vector_typeiid
       2084  823 0002BBE0 _Z23opt_general_zoom_factoriid
       2085  824 0002BD50 _Z23opt_geometry_curve_typeiid
       2086  825 0002BEB0 _Z23opt_geometry_label_typeiid
       2087  826 0002C550 _Z23opt_geometry_old_circleiid
       2088  827 0002C5B0 _Z23opt_geometry_old_newregiid
       2089  828 0002C6B0 _Z23opt_geometry_point_sizeiid
       2090  829 0002C6F0 _Z23opt_geometry_point_typeiid
       2091  82A 0002F710 _Z23opt_mesh_algo_recombineiid
       2092  82B 00030040 _Z23opt_mesh_algo_subdivideiid
       2093  82C 0002D6C0 _Z23opt_mesh_color_carouseliid
       2094  82D 00036A40 _Z23opt_mesh_color_tangentsiij
       2095  82E 0002D850 _Z23opt_mesh_draw_skin_onlyiid
       2096  82F 0002D9E0 _Z23opt_mesh_first_node_tagiid
       2097  830 0002DF30 _Z23opt_mesh_label_samplingiid
       2098  831 0002D570 _Z23opt_mesh_lc_from_pointsiid
       2099  832 0002E120 _Z23opt_mesh_light_two_sideiid
       2100  833 0002E5F0 _Z23opt_mesh_min_line_nodesiid
       2101  834 0002E9F0 _Z23opt_mesh_nb_quadranglesiid
       2102  835 0002FC20 _Z23opt_mesh_scaling_factoriid
       2103  836 0002FE80 _Z23opt_mesh_smooth_normalsiid
       2104  837 000301C0 _Z23opt_mesh_surface_labelsiid
       2105  838 00035B10 _Z23opt_print_eps_best_rootiid
       2106  839 00035D40 _Z23opt_print_gif_interlaceiid
       2107  83A 00035EC0 _Z23opt_print_pgf_horiz_bariid
       2108  83B 00036140 _Z23opt_print_x3d_precisioniid
       2109  83C 0003C2D0 _Z23opt_solver_remote_loginiiRKNSt3__112basic_stringIcNS_11char_traitsIcEENS_9allocatorIcEEEE
       2110  83D 00030FB0 _Z23opt_view_arrow_size_maxiid
       2111  83E 00031030 _Z23opt_view_arrow_size_miniid
       2112  83F 000374D0 _Z23opt_view_color_pyramidsiij
       2113  840 000375F0 _Z23opt_view_color_tangentsiij
       2114  841 00037560 _Z23opt_view_color_trihedraiij
       2115  842 000319C0 _Z23opt_view_colormap_alphaiid
       2116  843 00031FB0 _Z23opt_view_component_map0iid
       2117  844 00032050 _Z23opt_view_component_map1iid
       2118  845 000320F0 _Z23opt_view_component_map2iid
       2119  846 00032190 _Z23opt_view_component_map3iid
       2120  847 00032230 _Z23opt_view_component_map4iid
       2121  848 000322D0 _Z23opt_view_component_map5iid
       2122  849 00032370 _Z23opt_view_component_map6iid
       2123  84A 00032410 _Z23opt_view_component_map7iid
       2124  84B 000324B0 _Z23opt_view_component_map8iid
       2125  84C 00032820 _Z23opt_view_draw_hexahedraiid
       2126  84D 00032D20 _Z23opt_view_draw_skin_onlyiid
       2127  84E 00032F90 _Z23opt_view_draw_trianglesiid
       2128  84F 000333D0 _Z23opt_view_gen_raise_viewiid
       2129  850 00033470 _Z23opt_view_glyph_locationiid
       2130  851 000335A0 _Z23opt_view_intervals_typeiid
       2131  852 00033780 _Z23opt_view_light_two_sideiid
       2132  853 00034BB0 _Z23opt_view_smooth_normalsiid
       2133  854 00A20D80 _Z23packingOfParallelogramsP5GFaceRNSt3__16vectorIP7MVertexNS1_9allocatorIS4_EEEERNS2_I8SMetric3NS5_IS9_EEEE
       2134  855 00428DA0 _Z23quad_face_opposite_edgeP5GFaceP5GEdge
       2135  856 0036E580 _Z23reparamMeshVertexOnEdgeP7MVertexPK5GEdgeRd
       2136  857 0036E250 _Z23reparamMeshVertexOnFacePK7MVertexPK5GFaceR7SPoint2bbi
       2137  858 003388A0 _Z23scriptRemoveLastCommandRKNSt3__112basic_stringIcNS_11char_traitsIcEENS_9allocatorIcEEEE
       2138  859 000E8450 _Z23signedDistancePointLineRK7SPoint3S1_S1_RdRS_
       2139  85A 00D38FB0 _Z23vectorstring2charptrptrRKNSt3__16vectorINS_12basic_stringIcNS_11char_traitsIcEENS_9allocatorIcEEEENS4_IS6_EEEEPPPcPy
       2140  85B 005296B0 _Z24Extend1dMeshIn2dSurfacesP5GFace
       2141  85C 00A6CFF0 _Z24GetNeighborRegionsOfFaceP5GFaceRNSt3__16vectorIP7GRegionNS1_9allocatorIS4_EEEE
       2142  85D 0096D3B0 _Z24HighOrderMeshFastCurvingP6GModelR21FastCurvingParametersb
       2143  85E 0053B6F0 _Z24Mesh2DWithBoundaryLayersP6GModel
       2144  85F 00D188D0 _Z24appendQuadMeshStatisticsP6GModelRNSt3__113unordered_mapINS1_12basic_stringIcNS1_11char_traitsIcEENS1_9allocatorIcEEEEdNS1_4hashIS8_EENS1_8equal_toIS8_EENS6_INS1_4pairIKS8_dEEEEEERSE_
       2145  860 00463A00 _Z24buildEdgeSearchStructureP6GModelRNSt3__18multimapIP7MVertexNS1_4pairIP5MLineP5GEdgeEENS1_4lessIS4_EENS1_9allocatorINS5_IKS4_SA_EEEEEE
       2146  861 00463060 _Z24buildFaceSearchStructureP6GModelRNSt3__13mapI5MFaceP5GFace13MFaceLessThanNS1_9allocatorINS1_4pairIKS3_S5_EEEEEEb
       2147  862 00D35520 _Z24buildVerticesAndElementsP5GFaceRNSt3__16vectorIP7MVertexNS1_9allocatorIS4_EEEERNS2_INS1_5arrayIjLy4EEENS5_ISA_EEEE
       2148  863 002788E0 _Z24createTopologyFromMesh1DP6GModelRi
       2149  864 0027AD50 _Z24createTopologyFromMesh2DP6GModelRi
       2150  865 0027D460 _Z24createTopologyFromMesh3DP6GModelRi
       2151  866 005CA8A0 _Z24getAllConnectedTrianglesP7cross2dRNSt3__16vectorIS0_NS1_9allocatorIS0_EEEERNS1_3setIP7MVertex18MVertexPtrLessThanNS3_IS9_EEEESD_RNS7_IP9MTriangleNS1_4lessISF_EENS3_ISF_EEEESK_
       2152  867 00186F30 _Z24getGaussJacobiQuadratureiiiPPdS0_
       2153  868 007BE7F0 _Z24gmsh_yy_switch_to_bufferP15yy_buffer_state
       2154  869 007BE9B0 _Z24gmsh_yypush_buffer_stateP15yy_buffer_state
       2155  86A 00CC29E0 _Z24initDiskQuadrangulationsv
       2156  86B 00D04780 _Z24initialCurveQuantizationP6GModeldRNSt3__113unordered_mapIP5GFaceNS1_6vectorIP7GVertexNS1_9allocatorIS7_EEEENS1_4hashIS4_EENS1_8equal_toIS4_EENS8_INS1_4pairIKS4_SA_EEEEEE
       2157  86C 00CACE70 _Z24kernelLoopWithProjectionR14GFaceMeshPatchRK16GeomOptimOptionsR14GeomOptimStatsb
       2158  86D 000287A0 _Z24opt_general_antialiasingiid
       2159  86E 00024C10 _Z24opt_general_axes_format0iiRKNSt3__112basic_stringIcNS_11char_traitsIcEENS_9allocatorIcEEEE
       2160  86F 00024C60 _Z24opt_general_axes_format1iiRKNSt3__112basic_stringIcNS_11char_traitsIcEENS_9allocatorIcEEEE
       2161  870 00024CB0 _Z24opt_general_axes_format2iiRKNSt3__112basic_stringIcNS_11char_traitsIcEENS_9allocatorIcEEEE
       2162  871 00029780 _Z24opt_general_color_schemeiid
       2163  872 0002ACB0 _Z24opt_general_message_sizeiid
       2164  873 0002B470 _Z24opt_general_options_saveiid
       2165  874 0002B090 _Z24opt_general_orthographiciid
       2166  875 0002B150 _Z24opt_general_plugin_size0iid
       2167  876 0002B120 _Z24opt_general_plugin_size1iid
       2168  877 000254B0 _Z24opt_general_recent_file0iiRKNSt3__112basic_stringIcNS_11char_traitsIcEENS_9allocatorIcEEEE
       2169  878 00025500 _Z24opt_general_recent_file1iiRKNSt3__112basic_stringIcNS_11char_traitsIcEENS_9allocatorIcEEEE
       2170  879 00025550 _Z24opt_general_recent_file2iiRKNSt3__112basic_stringIcNS_11char_traitsIcEENS_9allocatorIcEEEE
       2171  87A 000255A0 _Z24opt_general_recent_file3iiRKNSt3__112basic_stringIcNS_11char_traitsIcEENS_9allocatorIcEEEE
       2172  87B 000255F0 _Z24opt_general_recent_file4iiRKNSt3__112basic_stringIcNS_11char_traitsIcEENS_9allocatorIcEEEE
       2173  87C 00025640 _Z24opt_general_recent_file5iiRKNSt3__112basic_stringIcNS_11char_traitsIcEENS_9allocatorIcEEEE
       2174  87D 00025690 _Z24opt_general_recent_file6iiRKNSt3__112basic_stringIcNS_11char_traitsIcEENS_9allocatorIcEEEE
       2175  87E 000256E0 _Z24opt_general_recent_file7iiRKNSt3__112basic_stringIcNS_11char_traitsIcEENS_9allocatorIcEEEE
       2176  87F 00025730 _Z24opt_general_recent_file8iiRKNSt3__112basic_stringIcNS_11char_traitsIcEENS_9allocatorIcEEEE
       2177  880 00025780 _Z24opt_general_recent_file9iiRKNSt3__112basic_stringIcNS_11char_traitsIcEENS_9allocatorIcEEEE
       2178  881 0002B4A0 _Z24opt_general_session_saveiid
       2179  882 00025A10 _Z24opt_general_tmp_filenameiiRKNSt3__112basic_stringIcNS_11char_traitsIcEENS_9allocatorIcEEEE
       2180  883 0002BA40 _Z24opt_general_translation0iid
       2181  884 0002BA80 _Z24opt_general_translation1iid
       2182  885 0002BAC0 _Z24opt_general_translation2iid
       2183  886 0002BD80 _Z24opt_geometry_curve_widthiid
       2184  887 0002C380 _Z24opt_geometry_occ_scalingiid
       2185  888 0002C790 _Z24opt_geometry_snap_pointsiid
       2186  889 0002CA60 _Z24opt_geometry_transform00iid
       2187  88A 0002CAA0 _Z24opt_geometry_transform01iid
       2188  88B 0002CAE0 _Z24opt_geometry_transform02iid
       2189  88C 0002CB20 _Z24opt_geometry_transform10iid
       2190  88D 0002CB60 _Z24opt_geometry_transform11iid
       2191  88E 0002CBA0 _Z24opt_geometry_transform12iid
       2192  88F 0002CBE0 _Z24opt_geometry_transform20iid
       2193  890 0002CC20 _Z24opt_geometry_transform21iid
       2194  891 0002CC60 _Z24opt_geometry_transform22iid
       2195  892 00036900 _Z24opt_mesh_color_hexahedraiij
       2196  893 00036790 _Z24opt_mesh_color_nodes_supiij
       2197  894 00036810 _Z24opt_mesh_color_trianglesiij
       2198  895 000369F0 _Z24opt_mesh_color_trihedroniij
       2199  896 0002DE90 _Z24opt_mesh_ho_max_in_angleiid
       2200  897 0002E3A0 _Z24opt_mesh_mesh_only_emptyiid
       2201  898 0002E730 _Z24opt_mesh_min_curve_nodesiid
       2202  899 0002EDB0 _Z24opt_mesh_optimize_netgeniid
       2203  89A 0002F900 _Z24opt_mesh_recombine3d_alliid
       2204  89B 0002FB80 _Z24opt_mesh_save_parametriciid
       2205  89C 00030530 _Z24opt_mesh_transfinite_triiid
       2206  89D 000306B0 _Z24opt_mesh_zone_definitioniid
       2207  89E 00030BD0 _Z24opt_post_force_node_dataiid
       2208  89F 00035C20 _Z24opt_print_eps_ps3shadingiid
       2209  8A0 00035E30 _Z24opt_print_jpeg_smoothingiid
       2210  8A1 00035A00 _Z24opt_print_parameter_lastiid
       2211  8A2 00035EF0 _Z24opt_print_pos_elementaryiid
       2212  8A3 00026D30 _Z24opt_solver_remote_login0iiRKNSt3__112basic_stringIcNS_11char_traitsIcEENS_9allocatorIcEEEE
       2213  8A4 00026D80 _Z24opt_solver_remote_login1iiRKNSt3__112basic_stringIcNS_11char_traitsIcEENS_9allocatorIcEEEE
       2214  8A5 00026DD0 _Z24opt_solver_remote_login2iiRKNSt3__112basic_stringIcNS_11char_traitsIcEENS_9allocatorIcEEEE
       2215  8A6 00026E20 _Z24opt_solver_remote_login3iiRKNSt3__112basic_stringIcNS_11char_traitsIcEENS_9allocatorIcEEEE
       2216  8A7 00026E70 _Z24opt_solver_remote_login4iiRKNSt3__112basic_stringIcNS_11char_traitsIcEENS_9allocatorIcEEEE
       2217  8A8 00026EC0 _Z24opt_solver_remote_login5iiRKNSt3__112basic_stringIcNS_11char_traitsIcEENS_9allocatorIcEEEE
       2218  8A9 00026F10 _Z24opt_solver_remote_login6iiRKNSt3__112basic_stringIcNS_11char_traitsIcEENS_9allocatorIcEEEE
       2219  8AA 00026F60 _Z24opt_solver_remote_login7iiRKNSt3__112basic_stringIcNS_11char_traitsIcEENS_9allocatorIcEEEE
       2220  8AB 00026FB0 _Z24opt_solver_remote_login8iiRKNSt3__112basic_stringIcNS_11char_traitsIcEENS_9allocatorIcEEEE
       2221  8AC 00027000 _Z24opt_solver_remote_login9iiRKNSt3__112basic_stringIcNS_11char_traitsIcEENS_9allocatorIcEEEE
       2222  8AD 000373B0 _Z24opt_view_color_hexahedraiij
       2223  8AE 00037200 _Z24opt_view_color_trianglesiij
       2224  8AF 00031CE0 _Z24opt_view_colormap_invertiid
       2225  8B0 00031D90 _Z24opt_view_colormap_numberiid
       2226  8B1 00032EF0 _Z24opt_view_draw_tetrahedraiid
       2227  8B2 000348A0 _Z24opt_view_saturate_valuesiid
       2228  8B3 00CB17A0 _Z24optimizeGeometryQuadMeshP5GFaceP16SurfaceProjectordb
       2229  8B4 0033EEA0 _Z24scriptSetBackgroundFieldiRKNSt3__112basic_stringIcNS_11char_traitsIcEENS_9allocatorIcEEEE
       2230  8B5 0033BD00 _Z24scriptSetTransfiniteLineRNSt3__16vectorIiNS_9allocatorIiEEEERKNS_12basic_stringIcNS_11char_traitsIcEENS1_IcEEEESB_SB_SB_
       2231  8B6 0044B300 _Z24splitEquivalentTrianglesP5GFaceR13bidimMeshData
       2232  8B7 00054D30 _Z25AddToTemporaryBoundingBoxddd
       2233  8B8 00067330 _Z25ExtractDoubleQuotedStringPKci
       2234  8B9 00001970 _Z25GmshRestoreDefaultOptionsv
       2235  8BA 007AF920 _Z25ListOfListOfDouble2MatrixP6List_T
       2236  8BB 00054CF0 _Z25ResetTemporaryBoundingBoxv
       2237  8BC 0043EE70 _Z25bowyerWatsonFrontalLayersP5GFacebPNSt3__13mapIP7MVertexS4_NS1_4lessIS4_EENS1_9allocatorINS1_4pairIKS4_S4_EEEEEEPNS2_IS4_7SPoint2S6_NS7_INS8_IS9_SE_EEEEEE
       2238  8BD 00527C90 _Z25buildMetricTangentToCurveR8SVector3dd
       2239  8BE 00550E20 _Z25checkHighOrderTetrahedronPKcP6GModelRNSt3__16vectorIP8MElementNS3_9allocatorIS6_EEEERd
       2240  8BF 009B2610 _Z25computeBndDistAndGradientP5GEdgeRNSt3__16vectorIdNS1_9allocatorIdEEEERKNS2_IP7MVertexNS3_IS8_EEEERK10nodalBasisRNS2_I7SPoint3NS3_ISG_EEEERNS2_IbNS3_IbEEEES6_d
       2241  8C0 00295100 _Z25computeDiscreteCurvaturesP6GModel
       2242  8C1 000E4180 _Z25computeInnerRadiusForQuadPdS_i
       2243  8C2 004C0560 _Z25connectTets_vector2_templINSt3__111__wrap_iterIPP5MTet4EEEvyT_S6_RNS0_6vectorI8faceXtetNS0_9allocatorIS8_EEEE
       2244  8C3 004BEB60 _Z25connectTets_vector2_templINSt3__115__list_iteratorIP5MTet4PvEEEvyT_S6_RNS0_6vectorI8faceXtetNS0_9allocatorIS8_EEEE
       2245  8C4 00CBBFF0 _Z25diskQuadrangulationConcatRNSt3__112basic_stringIcNS_11char_traitsIcEENS_9allocatorIcEEEE
       2246  8C5 00275BE0 _Z25ensureSimplyConnectedEdgeP5GEdge
       2247  8C6 005C76D0 _Z25filterOverlappingElementsRNSt3__16vectorIP5MLineNS_9allocatorIS2_EEEERNS0_IP9MTriangleNS3_IS8_EEEERNS0_IP11MQuadrangleNS3_ISD_EEEERNS_3mapIP8MElementNS0_ISJ_NS3_ISJ_EEEENS_4lessISJ_EENS3_INS_4pairIKSJ_SL_EEEEEERNSH_ISJ_SJ_SN_NS3_INSO_ISP_SJ_EEEEEE
       2248  8C7 00463E30 _Z25findInEdgeSearchStructureP7MVertexS0_RKNSt3__18multimapIS0_NS1_4pairIP5MLineP5GEdgeEENS1_4lessIS0_EENS1_9allocatorINS3_IKS0_S8_EEEEEE
       2249  8C8 00463D60 _Z25findInFaceSearchStructureP7MVertexS0_S0_RKNSt3__13mapI5MFaceP5GFace13MFaceLessThanNS1_9allocatorINS1_4pairIKS3_S5_EEEEEE
       2250  8C9 00463E00 _Z25findInFaceSearchStructureRK5MFaceRKNSt3__13mapIS_P5GFace13MFaceLessThanNS2_9allocatorINS2_4pairIS0_S5_EEEEEE
       2251  8CA 00A68E70 _Z25findRootSourceFaceForFaceP5GFace
       2252  8CB 0016BB40 _Z25gmshGenerateMonomialsLineib
       2253  8CC 00172B20 _Z25gmshGenerateOrderedPoints13FuncSpaceDataR10fullMatrixIdEb
       2254  8CD 0016F2B0 _Z25gmshGeneratePointsPyramidib
       2255  8CE 00428030 _Z25id_loop_from_closed_pairsRKNSt3__16vectorINS_5arrayIiLy2EEENS_9allocatorIS2_EEEERNS0_IiNS3_IiEEEE
       2256  8CF 00614EA0 _Z25improveInteriorValencesV2P5GFaceRKN10robin_hood6detail5TableILb1ELy80EP7MVertexdNS1_4hashIS5_vEENSt3__18equal_toIS5_EEEERNS3_ILb1ELy80ES5_NS8_6vectorIP8MElementNS8_9allocatorISG_EEEES7_SA_EER9DQOptionsR7DQStats
       2257  8D0 000E5550 _Z25invert_singular_matrix3x3PA3_dS0_
       2258  8D1 00527B70 _Z25max_edge_curvature_metricPK5GEdged
       2259  8D2 00529700 _Z25max_edge_curvature_metricPK7GVertex
       2260  8D3 00CD3420 _Z25meshFaceWithGlobalPatternP5GFacebd
       2261  8D4 00025160 _Z25opt_general_build_optionsiiRKNSt3__112basic_stringIcNS_11char_traitsIcEENS_9allocatorIcEEEE
       2262  8D5 00029B80 _Z25opt_general_detached_menuiid
       2263  8D6 00029C20 _Z25opt_general_double_bufferiid
       2264  8D7 00028FC0 _Z25opt_general_eye_sep_ratioiid
       2265  8D8 00025370 _Z25opt_general_graphics_fontiiRKNSt3__112basic_stringIcNS_11char_traitsIcEENS_9allocatorIcEEEE
       2266  8D9 0002A0B0 _Z25opt_general_hot_position0iid
       2267  8DA 0002A0E0 _Z25opt_general_hot_position1iid
       2268  8DB 00036580 _Z25opt_geometry_color_curvesiij
       2269  8DC 00036550 _Z25opt_geometry_color_pointsiij
       2270  8DD 0002BCE0 _Z25opt_geometry_curve_labelsiid
       2271  8DE 0002C0F0 _Z25opt_geometry_occ_auto_fixiid
       2272  8DF 0002C310 _Z25opt_geometry_occ_paralleliid
       2273  8E0 0002C640 _Z25opt_geometry_point_labelsiid
       2274  8E1 0002C8E0 _Z25opt_geometry_surface_typeiid
       2275  8E2 0002D000 _Z25opt_mesh_bdf_field_formatiid
       2276  8E3 000368B0 _Z25opt_mesh_color_tetrahedraiij
       2277  8E4 0002DD80 _Z25opt_mesh_ho_fast_new_algoiid
       2278  8E5 0002DB10 _Z25opt_mesh_ho_fix_bnd_nodesiid
       2279  8E6 0002DCA0 _Z25opt_mesh_ho_save_periodiciid
       2280  8E7 0002DD40 _Z25opt_mesh_ho_threshold_maxiid
       2281  8E8 0002DD00 _Z25opt_mesh_ho_threshold_miniid
       2282  8E9 0002E880 _Z25opt_mesh_med_single_modeliid
       2283  8EA 0002E690 _Z25opt_mesh_min_circle_nodesiid
       2284  8EB 0002E7D0 _Z25opt_mesh_msh_file_versioniid
       2285  8EC 000301F0 _Z25opt_mesh_switch_elem_tagsiid
       2286  8ED 00035DA0 _Z25opt_print_gif_transparentiid
       2287  8EE 000359C0 _Z25opt_print_parameter_firstiid
       2288  8EF 00035A40 _Z25opt_print_parameter_stepsiid
       2289  8F0 00035E90 _Z25opt_print_pgf_export_axisiid
       2290  8F1 00036040 _Z25opt_print_tex_as_equationiid
       2291  8F2 000360A0 _Z25opt_print_tex_width_in_mmiid
       2292  8F3 00037320 _Z25opt_view_color_tetrahedraiij
       2293  8F4 00032BE0 _Z25opt_view_draw_quadranglesiid
       2294  8F5 00033340 _Z25opt_view_gen_raise_factoriid
       2295  8F6 00D11640 _Z25patchIsTopologicallyValidRK14GFaceMeshPatch
       2296  8F7 000E85D0 _Z25signedDistancesPointsLineRNSt3__16vectorIdNS_9allocatorIdEEEERNS0_I7SPoint3NS1_IS5_EEEERKS7_RKS5_SC_
       2297  8F8 00528A40 _Z26BGM_MeshSizeWithoutScalingP7GEntityddddd
       2298  8F9 00059BD0 _Z26GetFileFormatFromExtensionRKNSt3__112basic_stringIcNS_11char_traitsIcEENS_9allocatorIcEEEEPd
       2299  8FA 00333300 _Z26IntersectCurvesWithSurfaceP6List_TiS0_
       2300  8FB 00A6D510 _Z26IsSurfaceALateralForRegionP7GRegionP5GFace
       2301  8FC 007B05A0 _Z26ListOfShapes2VectorOfPairsP6List_TRNSt3__16vectorINS1_4pairIiiEENS1_9allocatorIS4_EEEE
       2302  8FD 0055E510 _Z26PartitionFaceMinEdgeLengthP5GFaceid
       2303  8FE 004F7130 _Z26RelocateVerticesOfPyramidsP7GRegionid
       2304  8FF 004F89D0 _Z26RelocateVerticesOfPyramidsRNSt3__16vectorIP7GRegionNS_9allocatorIS2_EEEEid
       2305  900 007B0750 _Z26VectorOfPairs2ListOfShapesRKNSt3__16vectorINS_4pairIiiEENS_9allocatorIS2_EEEEP6List_T
       2306  901 004413A0 _Z26bowyerWatsonParallelogramsP5GFacePNSt3__13mapIP7MVertexS4_NS1_4lessIS4_EENS1_9allocatorINS1_4pairIKS4_S4_EEEEEEPNS2_IS4_7SPoint2S6_NS7_INS8_IS9_SE_EEEEEE
       2307  902 00D381E0 _Z26buildVerticesAndTetrahedraP7GRegionRNSt3__16vectorIP7MVertexNS1_9allocatorIS4_EEEERNS2_INS1_5arrayIdLy3EEENS5_ISA_EEEERNS2_IbNS5_IbEEEERNS2_INS9_IjLy4EEENS5_ISH_EEEERNS2_INS9_ISA_Ly4EEENS5_ISL_EEEE
       2308  903 009D8CA0 _Z26compare_hex_ptr_by_qualityP3HexS0_
       2309  904 009B1D90 _Z26computeBndDistAccurateAreaP5GEdgeRNSt3__16vectorIdNS1_9allocatorIdEEEERK10nodalBasisRKNS2_I7SPoint3NS3_ISA_EEEEd
       2310  905 009B15E0 _Z26computeDeviationOfTangentsP5GEdgeRNSt3__16vectorIdNS1_9allocatorIdEEEERK10nodalBasisRKNS2_I7SPoint3NS3_ISA_EEEE
       2311  906 0044AE40 _Z26computeEquivalentTrianglesP5GFacePNSt3__13mapIP7MVertexS4_NS1_4lessIS4_EENS1_9allocatorINS1_4pairIKS4_S4_EEEEEE
       2312  907 00D0A1A0 _Z26computeMinimalSizeOnCurvesR20GlobalBackgroundMeshbRNSt3__113unordered_mapIP7MVertexdNS1_4hashIS4_EENS1_8equal_toIS4_EENS1_9allocatorINS1_4pairIKS4_dEEEEEE
       2313  908 008BFD20 _Z26create_gmp_matrix_identityy
       2314  909 00431E20 _Z26getMaxLcWhenCollapsingEdgeP5GFaceR8BDS_MeshP8BDS_EdgeP9BDS_Point
       2315  90A 004B45B0 _Z26getRegionFromBoundingFacesP6GModelRNSt3__13setIP5GFaceNS1_4lessIS4_EENS1_9allocatorIS4_EEEE
       2316  90B 0016E820 _Z26gmshGenerateMonomialsPrismib
       2317  90C 0016ACC0 _Z26gmshGeneratePointsTriangleib
       2318  90D 001F5E20 _Z26invertAffineTransformationRKNSt3__16vectorIdNS_9allocatorIdEEEERS3_
       2319  90E 00CB46C0 _Z26invertTrianglesIfNecessaryRKNSt3__16vectorINS_5arrayIdLy2EEENS_9allocatorIS2_EEEERNS0_INS1_IjLy3EEENS3_IS8_EEEE
       2320  90F 00028740 _Z26opt_general_abort_on_erroriid
       2321  910 00028770 _Z26opt_general_alpha_blendingiid
       2322  911 000296F0 _Z26opt_general_clip_position0iid
       2323  912 00029720 _Z26opt_general_clip_position1iid
       2324  913 00025270 _Z26opt_general_error_filenameiiRKNSt3__112basic_stringIcNS_11char_traitsIcEENS_9allocatorIcEEEE
       2325  914 0002A060 _Z26opt_general_graphics_size0iid
       2326  915 00029FB0 _Z26opt_general_graphics_size1iid
       2327  916 0002ABE0 _Z26opt_general_menu_position0iid
       2328  917 0002AC30 _Z26opt_general_menu_position1iid
       2329  918 0002B600 _Z26opt_general_shine_exponentiid
       2330  919 00036700 _Z26opt_geometry_color_normalsiij
       2331  91A 000365E0 _Z26opt_geometry_color_volumesiij
       2332  91B 0002C060 _Z26opt_geometry_num_sub_edgesiid
       2333  91C 0002C3C0 _Z26opt_geometry_occ_sew_facesiid
       2334  91D 0002CCD0 _Z26opt_geometry_volume_labelsiid
       2335  91E 0002D0D0 _Z26opt_mesh_cgns_import_orderiid
       2336  91F 00036860 _Z26opt_mesh_color_quadranglesiij
       2337  920 0002D770 _Z26opt_mesh_compound_classifyiid
       2338  921 0002D9A0 _Z26opt_mesh_first_element_tagiid
       2339  922 0002DDE0 _Z26opt_mesh_ho_curve_outer_BLiid
       2340  923 0002DCD0 _Z26opt_mesh_ho_prim_surf_meshiid
       2341  924 0002D4E0 _Z26opt_mesh_lc_from_curvatureiid
       2342  925 0002E310 _Z26opt_mesh_mesh_only_visibleiid
       2343  926 0002F990 _Z26opt_mesh_recombine3d_leveliid
       2344  927 00030560 _Z26opt_mesh_unv_strict_formatiid
       2345  928 00030C30 _Z26opt_post_horizontal_scalesiid
       2346  929 00035AE0 _Z26opt_print_delete_tmp_filesiid
       2347  92A 000361B0 _Z26opt_print_x3d_transparencyiid
       2348  92B 00030840 _Z26opt_solver_auto_merge_fileiid
       2349  92C 00030870 _Z26opt_solver_auto_show_viewsiid
       2350  92D 00037290 _Z26opt_view_color_quadranglesiij
       2351  92E 00031E50 _Z26opt_view_colormap_rotationiid
       2352  92F 00033200 _Z26opt_view_fake_transparencyiid
       2353  930 0061D3F0 _Z26optimizeQuadMeshBoundariesP6GModel
       2354  931 00CCC790 _Z26remeshPatchWithQuadPatternP5GFaceRKNSt3__14pairIyiEERKNS1_6vectorINS6_IP7MVertexNS1_9allocatorIS8_EEEENS9_ISB_EEEERKNS6_IP8MElementNS9_ISH_EEEERKSB_RK18QualityConstraintsbP16SurfaceProjectorR13GFaceMeshDiff
       2355  932 0033C4F0 _Z26scriptSetTransfiniteVolumeRNSt3__16vectorIiNS_9allocatorIiEEEERKNS_12basic_stringIcNS_11char_traitsIcEENS1_IcEEEE
       2356  933 00D39140 _Z26vectorvectorpair2intptrptrRKNSt3__16vectorINS0_INS_4pairIiiEENS_9allocatorIS2_EEEENS3_IS5_EEEEPPPiPPySD_
       2357  934 000019F0 _Z27GmshMergePostProcessingFileRKNSt3__112basic_stringIcNS_11char_traitsIcEENS_9allocatorIcEEEE
       2358  935 0005B110 _Z27GuessFileFormatFromFileNameRKNSt3__112basic_stringIcNS_11char_traitsIcEENS_9allocatorIcEEEEPd
       2359  936 00964670 _Z27HighOrderMeshElasticAnalogyP6GModelb
       2360  937 00D36140 _Z27_invertTrianglesIfNecessaryRKNSt3__16vectorINS_5arrayIdLy2EEENS_9allocatorIS2_EEEERNS0_INS1_IjLy3EEENS3_IS8_EEEE
       2361  938 00528780 _Z27buildMetricTangentToSurfaceR8SVector3S0_ddd
       2362  939 00D375B0 _Z27buildTetrahedraFromElementsRKNSt3__16vectorINS0_IjNS_9allocatorIjEEEENS1_IS3_EEEERKNS0_INS0_INS_5arrayIdLy3EEENS1_IS9_EEEENS1_ISB_EEEERNS0_INS8_IjLy4EEENS1_ISG_EEEERNS0_INS8_IS9_Ly4EEENS1_ISK_EEEEi
       2363  93A 001F8620 _Z27computeAffineTransformationIdEbPKT_S2_S2_RNSt3__16vectorIdNS3_9allocatorIdEEEE
       2364  93B 001F6690 _Z27computeAffineTransformationIfEbPKT_S2_S2_RNSt3__16vectorIdNS3_9allocatorIdEEEE
       2365  93C 007B1640 _Z27computeAffineTransformationR7SPoint3S0_dS0_RNSt3__16vectorIdNS1_9allocatorIdEEEE
       2366  93D 004E2DD0 _Z27createBoundaryLayerOneLayerP7GRegionRNSt3__16vectorIP5GFaceNS1_9allocatorIS4_EEEE
       2367  93E 0023B780 _Z27discreteFace_rtree_callbackPNSt3__14pairIP9MTriangleS2_EEPv
       2368  93F 009AB030 _Z27discreteFrechetDistanceEdgeP5MLineP5GEdgedii
       2369  940 0044FD00 _Z27getAllBoundaryLayerVerticesP5GFaceRNSt3__13setIP7MVertexNS1_4lessIS4_EENS1_9allocatorIS4_EEEE
       2370  941 00A66570 _Z27getTransfiniteBoundaryDiagsP7GRegionPNSt3__13setINS1_4pairIP7MVertexS5_EENS1_4lessIS6_EENS1_9allocatorIS6_EEEE
       2371  942 00619800 _Z27insertExtrudedBoundaryLayerP5GFaceRKNSt3__16vectorIP7MVertexNS1_9allocatorIS4_EEEERKN10robin_hood6detail5TableILb1ELy80ES4_NS2_IP8MElementNS5_ISE_EEEENSA_4hashIS4_vEENS1_8equal_toIS4_EEEE
       2372  943 004A75E0 _Z27meshGRegionBoundaryRecoveryP7GRegionP17splitQuadRecovery
       2373  944 00028BF0 _Z27opt_general_axes_value_xmaxiid
       2374  945 00028CB0 _Z27opt_general_axes_value_xminiid
       2375  946 00028C30 _Z27opt_general_axes_value_ymaxiid
       2376  947 00028CF0 _Z27opt_general_axes_value_yminiid
       2377  948 00028C70 _Z27opt_general_axes_value_zmaxiid
       2378  949 00028D30 _Z27opt_general_axes_value_zminiid
       2379  94A 00028F80 _Z27opt_general_camera_apertureiid
       2380  94B 00029CB0 _Z27opt_general_extra_position0iid
       2381  94C 00029CE0 _Z27opt_general_extra_position1iid
       2382  94D 00029DA0 _Z27opt_general_field_position0iid
       2383  94E 00029DD0 _Z27opt_general_field_position1iid
       2384  94F 0002A140 _Z27opt_general_initial_contextiid
       2385  950 0002A170 _Z27opt_general_input_scrollingiid
       2386  951 0002A900 _Z27opt_general_manip_position0iid
       2387  952 0002A930 _Z27opt_general_manip_position1iid
       2388  953 0002AF10 _Z27opt_general_mouse_selectioniid
       2389  954 0002B760 _Z27opt_general_small_axes_sizeiid
       2390  955 0002B850 _Z27opt_general_system_menu_bariid
       2391  956 0002BC20 _Z27opt_geometry_auto_coherenceiid
       2392  957 000365B0 _Z27opt_geometry_color_surfacesiij
       2393  958 000366D0 _Z27opt_geometry_color_tangentsiij
       2394  959 0002BF40 _Z27opt_geometry_light_two_sideiid
       2395  95A 0002C0B0 _Z27opt_geometry_occ_auto_embediid
       2396  95B 0002C670 _Z27opt_geometry_point_sel_sizeiid
       2397  95C 0002C750 _Z27opt_geometry_scaling_factoriid
       2398  95D 0002C8B0 _Z27opt_geometry_surface_labelsiid
       2399  95E 0002D7A0 _Z27opt_mesh_compound_lc_factoriid
       2400  95F 0002DF00 _Z27opt_mesh_ignore_periodicityiid
       2401  960 0002E250 _Z27opt_mesh_max_num_threads_1diid
       2402  961 0002E280 _Z27opt_mesh_max_num_threads_2diid
       2403  962 0002E2B0 _Z27opt_mesh_max_num_threads_3diid
       2404  963 0002ED00 _Z27opt_mesh_optimize_thresholdiid
       2405  964 0002FE20 _Z27opt_mesh_smooth_cross_fieldiid
       2406  965 00030BA0 _Z27opt_post_force_element_dataiid
       2407  966 00035AB0 _Z27opt_print_composite_windowsiid
       2408  967 000286B0 _Z27opt_print_parameter_commandiiRKNSt3__112basic_stringIcNS_11char_traitsIcEENS_9allocatorIcEEEE
       2409  968 00036110 _Z27opt_print_x3d_compatibilityiid
       2410  969 00031250 _Z27opt_view_axes_auto_positioniid
       2411  96A 00037890 _Z27opt_view_color_background2diij
       2412  96B 00031C40 _Z27opt_view_colormap_curvatureiid
       2413  96C 00CB2F20 _Z27optimizeGeometryQuadTriMeshP5GFaceP16SurfaceProjectord
       2414  96D 00CAA010 _Z27patchOptimizeGeometryGlobalR14GFaceMeshPatchR14GeomOptimStats
       2415  96E 003FA960 _Z27pointInsideParametricDomainRNSt3__16vectorI7SPoint2NS_9allocatorIS1_EEEERS1_S6_Ri
       2416  96F 0033C100 _Z27scriptSetTransfiniteSurfaceRNSt3__16vectorIiNS_9allocatorIiEEEERKNS_12basic_stringIcNS_11char_traitsIcEENS1_IcEEEESB_
       2417  970 001F6610 _Z27setUnitAffineTransformationRNSt3__16vectorIdNS_9allocatorIdEEEE
       2418  971 000E6C10 _Z27signedDistancePointTriangleRK7SPoint3S1_S1_S1_RdRS_
       2419  972 007B1E80 _Z27treat_Struct_FullName_FloatPcS_iidi
       2420  973 00CFFFF0 _Z28compat_orientation_extrinsiciRK8SVector3S1_S1_S1_RS_S2_
       2421  974 0060B140 _Z28computeBdrVertexIdealValenceRKNSt3__16vectorIP11MQuadrangleNS_9allocatorIS2_EEEERN10robin_hood6detail5TableILb1ELy80EP7MVertexdNS8_4hashISC_vEENS_8equal_toISC_EEEE
       2422  975 008BF3A0 _Z28create_gmp_Smith_normal_formP10gmp_matrix13inverted_flagS1_
       2423  976 00D1D8E0 _Z28errorAndAbortIfInvalidVertexP7MVertexRKNSt3__112basic_stringIcNS1_11char_traitsIcEENS1_9allocatorIcEEEE
       2424  977 00606E50 _Z28fillSizemapFromTriangleSizesRKNSt3__16vectorIP9MTriangleNS_9allocatorIS2_EEEERNS_13unordered_mapIP7MVertexdNS_4hashISA_EENS_8equal_toISA_EENS3_INS_4pairIKSA_dEEEEEE
       2425  978 003DD8B0 _Z28findEntitiesInPhysicalGroupsP6GModelRKNSt3__16vectorIiNS1_9allocatorIiEEEERNS2_IP7GEntityNS3_IS9_EEEE
       2426  979 0016F430 _Z28gmshGenerateMonomialsPyramidib
       2427  97A 00173570 _Z28gmshGenerateOrderedMonomials13FuncSpaceDataR10fullMatrixIdE
       2428  97B 0016B5C0 _Z28gmshGeneratePointsHexahedronib
       2429  97C 0016AE60 _Z28gmshGeneratePointsQuadrangleib
       2430  97D 0029C3A0 _Z28makePartitionSimplyConnectedRNSt3__16vectorIP9MTriangleNS_9allocatorIS2_EEEERNS0_IS5_NS3_IS5_EEEE
       2431  97E 00028980 _Z28opt_general_axes_force_valueiid
       2432  97F 000296C0 _Z28opt_general_clip_only_volumeiid
       2433  980 00036310 _Z28opt_general_color_backgroundiij
       2434  981 00036370 _Z28opt_general_color_foregroundiij
       2435  982 00036400 _Z28opt_general_color_small_axesiij
       2436  983 000251E0 _Z28opt_general_default_filenameiiRKNSt3__112basic_stringIcNS_11char_traitsIcEENS_9allocatorIcEEEE
       2437  984 00029BB0 _Z28opt_general_detached_processiid
       2438  985 00029EC0 _Z28opt_general_gui_color_schemeiid
       2439  986 00029EF0 _Z28opt_general_gui_refresh_rateiid
       2440  987 0002AC80 _Z28opt_general_message_fontsizeiid
       2441  988 0002B030 _Z28opt_general_option_position0iid
       2442  989 0002B060 _Z28opt_general_option_position1iid
       2443  98A 00025460 _Z28opt_general_options_filenameiiRKNSt3__112basic_stringIcNS_11char_traitsIcEENS_9allocatorIcEEEE
       2444  98B 0002B0C0 _Z28opt_general_plugin_position0iid
       2445  98C 0002B0F0 _Z28opt_general_plugin_position1iid
       2446  98D 0002B3B0 _Z28opt_general_rotation_center0iid
       2447  98E 0002B3F0 _Z28opt_general_rotation_center1iid
       2448  98F 0002B430 _Z28opt_general_rotation_center2iid
       2449  990 000257D0 _Z28opt_general_session_filenameiiRKNSt3__112basic_stringIcNS_11char_traitsIcEENS_9allocatorIcEEEE
       2450  991 0002B640 _Z28opt_general_show_module_menuiid
       2451  992 00036610 _Z28opt_geometry_color_selectioniij
       2452  993 0002BD10 _Z28opt_geometry_curve_sel_widthiid
       2453  994 0002BDF0 _Z28opt_geometry_exact_extrusioniid
       2454  995 0002C1A0 _Z28opt_geometry_occ_disable_stliid
       2455  996 0002C2D0 _Z28opt_geometry_occ_make_solidsiid
       2456  997 0002C340 _Z28opt_geometry_occ_safe_unbindiid
       2457  998 00026160 _Z28opt_geometry_occ_target_unitiiRKNSt3__112basic_stringIcNS_11char_traitsIcEENS_9allocatorIcEEEE
       2458  999 0002C430 _Z28opt_geometry_occ_union_unifyiid
       2459  99A 0002FD60 _Z28opt_mesh_second_order_lineariid
       2460  99B 00030A90 _Z28opt_post_combine_remove_origiid
       2461  99C 00030B70 _Z28opt_post_double_clicked_viewiid
       2462  99D 00035CE0 _Z28opt_print_geo_only_physicalsiid
       2463  99E 00036070 _Z28opt_print_tex_force_fontsizeiid
       2464  99F 00030D90 _Z28opt_view_abscissa_range_typeiid
       2465  9A0 00032550 _Z28opt_view_custom_abscissa_maxiid
       2466  9A1 000325E0 _Z28opt_view_custom_abscissa_miniid
       2467  9A2 00032790 _Z28opt_view_displacement_factoriid
       2468  9A3 00033930 _Z28opt_view_max_recursion_leveliid
       2469  9A4 00621D50 _Z28optimize1DMeshAtAcuteCornersP6GModel
       2470  9A5 00618C50 _Z28replaceBadQuadDominantMeshesP6GModel
       2471  9A6 00340E00 _Z28scriptAddRemovePhysicalGroupRKNSt3__112basic_stringIcNS_11char_traitsIcEENS_9allocatorIcEEEES7_RKNS_6vectorIiNS3_IiEEEES7_ibS7_
       2472  9A7 007B3520 _Z28treat_Struct_FullName_StringPcS_iiS_i
       2473  9A8 00D362B0 _Z28untangleGFaceMeshConstrainedP5GFaceid
       2474  9A9 00CF9D30 _Z29detectCrossFieldSingularitiesiRKNSt3__16vectorIP9MTriangleNS_9allocatorIS2_EEEERKNS0_INS_5arrayIdLy3EEENS3_IS9_EEEEbdRNS0_INS_4pairI7SPoint3iEENS3_ISG_EEEE
       2475  9AA 0016BD10 _Z29gmshGenerateMonomialsTriangleib
       2476  9AB 00172A80 _Z29gmshGenerateOrderedPointsLineiR10fullVectorIdE
       2477  9AC 0016B090 _Z29gmshGeneratePointsTetrahedronib
       2478  9AD 00CAB090 _Z29kernelLoopWithParametrizationR14GFaceMeshPatchRK16GeomOptimOptionsR14GeomOptimStats
       2479  9AE 003F8870 _Z29meshGEdgeTargetNumberOfPointsP5GEdge
       2480  9AF 000287D0 _Z29opt_general_arrow_head_radiusiid
       2481  9B0 00028820 _Z29opt_general_arrow_stem_lengthiid
       2482  9B1 00028870 _Z29opt_general_arrow_stem_radiusiid
       2483  9B2 00029AF0 _Z29opt_general_confirm_overwriteiid
       2484  9B3 00029B20 _Z29opt_general_context_position0iid
       2485  9B4 00029B50 _Z29opt_general_context_position1iid
       2486  9B5 00029C50 _Z29opt_general_draw_bounding_boxiid
       2487  9B6 00029000 _Z29opt_general_focallength_ratioiid
       2488  9B7 00029F50 _Z29opt_general_graphics_fontsizeiid
       2489  9B8 0002AF40 _Z29opt_general_mouse_invert_zoomiid
       2490  9B9 0002AFA0 _Z29opt_general_non_modal_windowsiid
       2491  9BA 00036640 _Z29opt_geometry_color_highlight0iij
       2492  9BB 00036670 _Z29opt_geometry_color_highlight1iij
       2493  9BC 000366A0 _Z29opt_geometry_color_highlight2iij
       2494  9BD 00036730 _Z29opt_geometry_color_projectioniij
       2495  9BE 0002CE70 _Z29opt_mesh_angle_smooth_normalsiid
       2496  9BF 0002D1A0 _Z29opt_mesh_cgns_export_cpex0045iid
       2497  9C0 0002D820 _Z29opt_mesh_create_topology_msh2iid
       2498  9C1 0002DA20 _Z29opt_mesh_flexible_transfiniteiid
       2499  9C2 0002E220 _Z29opt_mesh_max_iter_delaunay_3diid
       2500  9C3 0002EE40 _Z29opt_mesh_partition_hex_weightiid
       2501  9C4 0002EEA0 _Z29opt_mesh_partition_pri_weightiid
       2502  9C5 0002EED0 _Z29opt_mesh_partition_pyr_weightiid
       2503  9C6 0002EF00 _Z29opt_mesh_partition_qua_weightiid
       2504  9C7 0002EF60 _Z29opt_mesh_partition_tet_weightiid
       2505  9C8 0002EF90 _Z29opt_mesh_partition_tri_weightiid
       2506  9C9 0002FBF0 _Z29opt_mesh_save_groups_of_nodesiid
       2507  9CA 00030AC0 _Z29opt_post_combine_copy_optionsiid
       2508  9CB 000307B0 _Z29opt_solver_auto_load_databaseiid
       2509  9CC 000307E0 _Z29opt_solver_auto_save_databaseiid
       2510  9CD 00026C90 _Z29opt_solver_octave_interpreteriiRKNSt3__112basic_stringIcNS_11char_traitsIcEENS_9allocatorIcEEEE
       2511  9CE 00026CE0 _Z29opt_solver_python_interpreteriiRKNSt3__112basic_stringIcNS_11char_traitsIcEENS_9allocatorIcEEEE
       2512  9CF 00030F20 _Z29opt_view_angle_smooth_normalsiid
       2513  9D0 00031A60 _Z29opt_view_colormap_alpha_poweriid
       2514  9D1 000332A0 _Z29opt_view_force_num_componentsiid
       2515  9D2 0034CEB0 _Z29removeParentCellsWithChildrenP12cartesianBoxIdE
       2516  9D3 000E7820 _Z29signedDistancesPointsTriangleRNSt3__16vectorIdNS_9allocatorIdEEEERNS0_I7SPoint3NS1_IS5_EEEERKS7_RKS5_SC_SC_
       2517  9D4 000EB6F0 _Z29transformPointsIntoOrthoBasisRKNSt3__16vectorI7SPoint3NS_9allocatorIS1_EEEERS4_RKS1_RK10mean_plane
       2518  9D5 009B50C0 _Z2imRK3Qtn
       2519  9D6 009B50B0 _Z2reRK3Qtn
       2520  9D7 00577180 _Z30ConvertOldPartitioningToNewOneP6GModel
       2521  9D8 008BEB40 _Z30create_gmp_Hermite_normal_formP10gmp_matrix13inverted_flagS1_
       2522  9D9 009ACBA0 _Z30distanceFromElementsToGeometryP6GModeliRNSt3__13mapIP8MElementdNS1_4lessIS4_EENS1_9allocatorINS1_4pairIKS4_dEEEEEE
       2523  9DA 00D1D800 _Z30errorAndAbortIfNegativeElementP5GFaceRKNSt3__16vectorIP8MElementNS1_9allocatorIS4_EEEERKNS1_12basic_stringIcNS1_11char_traitsIcEENS5_IcEEEE
       2524  9DB 00D130D0 _Z30getAllParametersWithPeriodJumpP7MVertexP5GFaceRNSt3__16vectorI7SPoint2NS3_9allocatorIS5_EEEE
       2525  9DC 007B2C60 _Z30getElementaryTagsInBoundingBoxiddddddP6List_T
       2526  9DD 00A6CC90 _Z30getIndexForLowestVertexPointerNSt3__16vectorIP7MVertexNS_9allocatorIS2_EEEE
       2527  9DE 00028950 _Z30opt_general_axes_auto_positioniid
       2528  9DF 0002A000 _Z30opt_general_graphics_position0iid
       2529  9E0 0002A030 _Z30opt_general_graphics_position1iid
       2530  9E1 0002AEE0 _Z30opt_general_mouse_hover_meshesiid
       2531  9E2 0002B380 _Z30opt_general_rotation_center_cgiid
       2532  9E3 00025A70 _Z30opt_general_watch_file_patterniiRKNSt3__112basic_stringIcNS_11char_traitsIcEENS_9allocatorIcEEEE
       2533  9E4 0002BE80 _Z30opt_geometry_highlight_orphansiid
       2534  9E5 0002C2A0 _Z30opt_geometry_occ_import_labelsiid
       2535  9E6 0002C580 _Z30opt_geometry_old_ruled_surfaceiid
       2536  9E7 0002C9C0 _Z30opt_geometry_tolerance_booleaniid
       2537  9E8 0002CFC0 _Z30opt_mesh_allow_swap_edge_angleiid
       2538  9E9 0002D110 _Z30opt_mesh_cgns_import_ignore_bciid
       2539  9EA 0002E430 _Z30opt_mesh_lc_from_curvature_isoiid
       2540  9EB 0002EE70 _Z30opt_mesh_partition_line_weightiid
       2541  9EC 0002EF30 _Z30opt_mesh_partition_trih_weightiid
       2542  9ED 0002F200 _Z30opt_mesh_quadqs_sizemap_methodiid
       2543  9EE 0002FAB0 _Z30opt_mesh_reparam_max_trianglesiid
       2544  9EF 0002FB10 _Z30opt_mesh_save_element_tag_typeiid
       2545  9F0 0002FF60 _Z30opt_mesh_stl_linear_deflectioniid
       2546  9F1 000302D0 _Z30opt_mesh_tolerance_edge_lengthiid
       2547  9F2 000308A0 _Z30opt_solver_auto_show_last_stepiid
       2548  9F3 0003C980 _Z30opt_view_nb_non_empty_timestepiid
       2549  9F4 0061A3B0 _Z30optimizeFaceQuadMeshBoundariesP5GFaceb
       2550  9F5 00D13920 _Z30reparamMeshVertexOnFaceWithRefP5GFaceP7MVertexRK7SPoint2RS3_
       2551  9F6 00D38940 _Z30untangleGRegionMeshConstrainedP7GRegionid
       2552  9F7 00A6A030 _Z31QuadToTriInsertFaceEdgeVerticesP5GFaceR12MVertexRTree
       2553  9F8 006184B0 _Z31checkAndReplaceQuadDominantMeshP5GFaceii
       2554  9F9 004DCD90 _Z31computeNeighboringTetsOfACavityRKNSt3__16vectorIP5MTet4NS_9allocatorIS2_EEEERS5_
       2555  9FA 0016E050 _Z31gmshGenerateMonomialsHexahedronib
       2556  9FB 0016C9A0 _Z31gmshGenerateMonomialsQuadrangleib
       2557  9FC 00200050 _Z31intersection_conserve_mostanisoRK8SMetric3S1_
       2558  9FD 00028D70 _Z31opt_general_background_gradientiid
       2559  9FE 00028DD0 _Z31opt_general_background_image_3diid
       2560  9FF 00029750 _Z31opt_general_clip_whole_elementsiid
       2561  A00 00036430 _Z31opt_general_color_ambient_lightiij
       2562  A01 00036490 _Z31opt_general_color_diffuse_lightiij
       2563  A02 000252C0 _Z31opt_general_executable_filenameiiRKNSt3__112basic_stringIcNS_11char_traitsIcEENS_9allocatorIcEEEE
       2564  A03 00025410 _Z31opt_general_graphics_font_titleiiRKNSt3__112basic_stringIcNS_11char_traitsIcEENS_9allocatorIcEEEE
       2565  A04 0002AF70 _Z31opt_general_native_file_chooseriid
       2566  A05 0002B270 _Z31opt_general_progress_meter_stepiid
       2567  A06 00025820 _Z31opt_general_scripting_languagesiiRKNSt3__112basic_stringIcNS_11char_traitsIcEENS_9allocatorIcEEEE
       2568  A07 0002C160 _Z31opt_geometry_occ_bounds_use_stliid
       2569  A08 0002C5E0 _Z31opt_geometry_oriented_physicalsiid
       2570  A09 0002CE40 _Z31opt_mesh_algo_switch_on_failureiid
       2571  A0A 0002D1D0 _Z31opt_mesh_cgns_export_structurediid
       2572  A0B 0002DED0 _Z31opt_mesh_ignore_parametrizationiid
       2573  A0C 0002E810 _Z31opt_mesh_med_file_minor_versioniid
       2574  A0D 0002F0E0 _Z31opt_mesh_partition_convert_msh2iid
       2575  A0E 0002F9C0 _Z31opt_mesh_recombine3d_conformityiid
       2576  A0F 0002FF20 _Z31opt_mesh_stl_angular_deflectioniid
       2577  A10 00035B70 _Z31opt_print_eps_line_width_factoriid
       2578  A11 00035BB0 _Z31opt_print_eps_occlusion_cullingiid
       2579  A12 00035BE0 _Z31opt_print_eps_point_size_factoriid
       2580  A13 000275D0 _Z31opt_view_double_clicked_commandiiRKNSt3__112basic_stringIcNS_11char_traitsIcEENS_9allocatorIcEEEE
       2581  A14 00CB0660 _Z31patchOptimizeGeometryWithKernelR14GFaceMeshPatchRK16GeomOptimOptionsR14GeomOptimStats
       2582  A15 00D05D10 _Z31setQuadqsTransfiniteConstraintsP6GModeld
       2583  A16 004E1620 _Z31smoothing_objective_function_3DdddP7MVertexRNSt3__16vectorIP5MTet4NS1_9allocatorIS4_EEEE
       2584  A17 004FF320 _Z32GFaceDelaunayRefinementOldMesheri
       2585  A18 0042A1F0 _Z32MeshSetTransfiniteFacesAutomaticRNSt3__13setIP5GFaceNS_4lessIS2_EENS_9allocatorIS2_EEEEdbdb
       2586  A19 0016D8B0 _Z32gmshGenerateMonomialsTetrahedronib
       2587  A1A 0016B7F0 _Z32gmshGeneratePointsPyramidGeneralbiib
       2588  A1B 00A66BB0 _Z32meshTransfElemWithInternalVertexP7GRegionNSt3__16vectorIP7MVertexNS1_9allocatorIS4_EEEEPNS1_3setINS1_4pairIS4_S4_EENS1_4lessISA_EENS5_ISA_EEEE
       2589  A1C 00CABEC0 _Z32movePointWithKernelAndProjectionjRKNSt3__16vectorINS_5arrayIdLy3EEENS_9allocatorIS2_EEEERKNS0_IyNS3_IyEEEERKNS0_IjNS3_IjEEEERK15SmoothingKernelSI_bP16SurfaceProjectorRS2_RNS1_IdLy2EEEb
       2590  A1D 000364F0 _Z32opt_general_color_specular_lightiij
       2591  A1E 000253C0 _Z32opt_general_graphics_font_engineiiRKNSt3__112basic_stringIcNS_11char_traitsIcEENS_9allocatorIcEEEE
       2592  A1F 0002B230 _Z32opt_general_polygon_offset_unitsiid
       2593  A20 0002B290 _Z32opt_general_quadric_subdivisionsiid
       2594  A21 0002B700 _Z32opt_general_small_axes_position0iid
       2595  A22 0002B730 _Z32opt_general_small_axes_position1iid
       2596  A23 0002B790 _Z32opt_general_statistics_position0iid
       2597  A24 0002B7C0 _Z32opt_general_statistics_position1iid
       2598  A25 0002BB80 _Z32opt_general_visibility_position0iid
       2599  A26 0002BBB0 _Z32opt_general_visibility_position1iid
       2600  A27 0002BC80 _Z32opt_geometry_copy_meshing_methodiid
       2601  A28 0002BF70 _Z32opt_geometry_match_geom_and_meshiid
       2602  A29 0002C1E0 _Z32opt_geometry_occ_fix_degeneratediid
       2603  A2A 0002C220 _Z32opt_geometry_occ_fix_small_edgesiid
       2604  A2B 0002C260 _Z32opt_geometry_occ_fix_small_facesiid
       2605  A2C 0002D170 _Z32opt_mesh_cgns_construct_topologyiid
       2606  A2D 0002D200 _Z32opt_mesh_lc_extend_from_boundaryiid
       2607  A2E 0002EC40 _Z32opt_mesh_old_initial_delaunay_2diid
       2608  A2F 0002F110 _Z32opt_mesh_preserve_numbering_msh2iid
       2609  A30 0002F6E0 _Z32opt_mesh_read_groups_of_elementsiid
       2610  A31 0002FBC0 _Z32opt_mesh_save_groups_of_elementsiid
       2611  A32 0002FCD0 _Z32opt_mesh_second_order_incompleteiid
       2612  A33 00CD0FF0 _Z32patchIsRemeshableWithQuadPatternRKNSt3__16vectorIyNS_9allocatorIyEEEEyS5_RNS_4pairIyiEERd
       2613  A34 000E9530 _Z32signedDistancesPointsEllipseLineRNSt3__16vectorIdNS_9allocatorIdEEEES4_RNS0_IiNS1_IiEEEERNS0_I7SPoint3NS1_IS8_EEEERKSA_RKS8_SF_ddddi
       2614  A35 00A6A430 _Z33QuadToTriInsertSourceEdgeVerticesP7GRegionR12MVertexRTree
       2615  A36 004488E0 _Z33buildMeshGenerationDataStructuresP5GFaceRNSt3__13setIP5MTri314compareTri3PtrNS1_9allocatorIS4_EEEER13bidimMeshData
       2616  A37 00CF6390 _Z33computeCrossFieldConformalScalingiRKNSt3__16vectorIP9MTriangleNS_9allocatorIS2_EEEERKNS0_INS_5arrayIdLy3EEENS3_IS9_EEEERNS_13unordered_mapIP7MVertexdNS_4hashISG_EENS_8equal_toISG_EENS3_INS_4pairIKSG_dEEEEEE
       2617  A38 00CF5470 _Z33computeCrossFieldWithHeatEquationiRKNSt3__16vectorIP9MTriangleNS_9allocatorIS2_EEEERKNS0_IP5MLineNS3_IS9_EEEERNS0_INS_5arrayIdLy3EEENS3_ISF_EEEEidii
       2618  A39 009AA5B0 _Z33discreteHausdorffDistanceFastEdgeP5MLineP5GEdgedii
       2619  A3A 00D1E4C0 _Z33errorAndAbortIfInvalidSurfaceMeshP5GFaceRKNSt3__112basic_stringIcNS1_11char_traitsIcEENS1_9allocatorIcEEEE
       2620  A3B 00A146C0 _Z33export_the_clique_graphviz_formatIP3HexEvR27cliques_compatibility_graphIT_EiRKNSt3__112basic_stringIcNS6_11char_traitsIcEENS6_9allocatorIcEEEE
       2621  A3C 00607960 _Z33generateMeshWithSpecialParametersP6GModeld
       2622  A3D 001F97D0 _Z33getAffineTransformationParametersIdEbRKNSt3__16vectorIdNS0_9allocatorIdEEEEPT_S8_S8_
       2623  A3E 001F9710 _Z33getAffineTransformationParametersIfEbRKNSt3__16vectorIdNS0_9allocatorIdEEEEPT_S8_S8_
       2624  A3F 006131D0 _Z33getIrregularPatchesAroundVerticesRKNSt3__16vectorIP7MVertexNS_9allocatorIS2_EEEERKN10robin_hood6detail5TableILb1ELy80ES2_NS0_IP8MElementNS3_ISC_EEEENS8_4hashIS2_vEENS_8equal_toIS2_EEEERKNSA_ILb1ELy80ES2_dSG_SI_EERNS0_INS_4pairId14GFaceMeshPatchEENS3_ISR_EEEE
       2625  A40 00528260 _Z33metric_based_on_surface_curvaturePK5GFaceddbdd
       2626  A41 00028E00 _Z33opt_general_background_image_pageiid
       2627  A42 00029BE0 _Z33opt_general_display_border_factoriid
       2628  A43 0002B1C0 _Z33opt_general_polygon_offset_alwaysiid
       2629  A44 0002B1F0 _Z33opt_general_polygon_offset_factoriid
       2630  A45 0002BFE0 _Z33opt_geometry_match_mesh_toleranceiid
       2631  A46 0002DFC0 _Z33opt_mesh_lc_integration_precisioniid
       2632  A47 0002E590 _Z33opt_mesh_partition_metis_min_conniid
       2633  A48 0002F0B0 _Z33opt_mesh_partition_old_style_msh2iid
       2634  A49 00030E40 _Z33opt_view_adapt_visualization_gridiid
       2635  A4A 00CADC80 _Z33quad_opposite_right_angled_cornerNSt3__15arrayIdLy3EEES1_S1_
       2636  A4B 000E9190 _Z33signedDistancesPointsEllipsePointRNSt3__16vectorIdNS_9allocatorIdEEEES4_RNS0_IiNS1_IiEEEERNS0_I7SPoint3NS1_IS8_EEEERKSA_RKS8_SF_d
       2637  A4C 0061D660 _Z33transferSeamGEdgesVerticesToGFaceP6GModel
       2638  A4D 00608060 _Z34BuildBackgroundMeshAndGuidingFieldP6GModelbbbi
       2639  A4E 009A8BD0 _Z34discreteHausdorffDistanceBruteEdgeP5MLineP5GEdgedii
       2640  A4F 00D1DC50 _Z34errorAndAbortIfNonManifoldElementsRKNSt3__16vectorIP8MElementNS_9allocatorIS2_EEEEbRKNS_12basic_stringIcNS_11char_traitsIcEENS3_IcEEEE
       2641  A50 0060B7D0 _Z34getBoundaryIdealAndAllowedValencesiR14GFaceMeshPatchRKN10robin_hood6detail5TableILb1ELy80EP7MVertexNSt3__16vectorIP8MElementNS6_9allocatorIS9_EEEENS1_4hashIS5_vEENS6_8equal_toIS5_EEEERKNS3_ILb1ELy80ES5_dSE_SG_EERNS7_IiNSA_IiEEEERNS7_INS6_4pairIiiEENSA_ISR_EEEE
       2642  A51 007B07E0 _Z34getElementaryTagsForPhysicalGroupsiP6List_TS0_
       2643  A52 002004C0 _Z34intersection_conserve_mostaniso_2dRK8SMetric3S1_
       2644  A53 00028EB0 _Z34opt_general_background_image_size0iid
       2645  A54 00028EF0 _Z34opt_general_background_image_size1iid
       2646  A55 00029E60 _Z34opt_general_file_chooser_position0iid
       2647  A56 00029E90 _Z34opt_general_file_chooser_position1iid
       2648  A57 0002BE50 _Z34opt_geometry_extrude_spline_pointsiid
       2649  A58 0002FE50 _Z34opt_mesh_cross_field_closest_pointiid
       2650  A59 0002D600 _Z34opt_mesh_lc_from_parametric_pointsiid
       2651  A5A 0002EFC0 _Z34opt_mesh_partition_create_topologyiid
       2652  A5B 0002E4C0 _Z34opt_mesh_partition_metis_algorithmiid
       2653  A5C 0002E560 _Z34opt_mesh_partition_metis_objectiveiid
       2654  A5D 0002F260 _Z34opt_mesh_quadqs_remeshing_boldnessiid
       2655  A5E 0002F230 _Z34opt_mesh_quadqs_topo_optim_methodsiid
       2656  A5F 0002F8C0 _Z34opt_mesh_recombine_minimum_qualityiid
       2657  A60 0002FFE0 _Z34opt_mesh_stl_one_solid_per_surfaceiid
       2658  A61 00036180 _Z34opt_print_x3d_remove_inner_bordersiid
       2659  A62 00CC2A00 _Z34remeshLocalWithDiskQuadrangulationP5GFaceRKNSt3__16vectorIP8MElementNS1_9allocatorIS4_EEEERKNS2_IP7MVertexNS5_ISB_EEEESF_RKNS2_IiNS5_IiEEEERKNS2_INS1_4pairIiiEENS5_ISL_EEEES9_dbP16SurfaceProjectorR13GFaceMeshDiff
       2660  A63 00D14AA0 _Z34surfaceEulerCharacteristicDiscreteRKNSt3__16vectorIP9MTriangleNS_9allocatorIS2_EEEE
       2661  A64 0060ABE0 _Z35backgroundMeshAndGuidingFieldExistsP6GModel
       2662  A65 00D1DF80 _Z35errorAndAbortIfInvalidVertexInModelP6GModelRKNSt3__112basic_stringIcNS1_11char_traitsIcEENS1_9allocatorIcEEEE
       2663  A66 0060AC30 _Z35getSingularitiesFromBackgroundFieldP5GFaceRNSt3__16vectorINS1_4pairI7SPoint3iEENS1_9allocatorIS5_EEEE
       2664  A67 0016FE10 _Z35gmshGenerateMonomialsPyramidGeneralbiib
       2665  A68 00029F80 _Z35opt_general_graphics_fontsize_titleiid
       2666  A69 0002B670 _Z35opt_general_show_options_on_startupiid
       2667  A6A 0002BE20 _Z35opt_geometry_extrude_return_lateraliid
       2668  A6B 000261B0 _Z35opt_geometry_pipe_default_trihedroniiRKNSt3__112basic_stringIcNS_11char_traitsIcEENS_9allocatorIcEEEE
       2669  A6C 0002C720 _Z35opt_geometry_reparam_on_face_robustiid
       2670  A6D 0002E850 _Z35opt_mesh_med_import_groups_of_nodesiid
       2671  A6E 0002EFF0 _Z35opt_mesh_partition_create_physicalsiid
       2672  A6F 0002F050 _Z35opt_mesh_partition_split_mesh_filesiid
       2673  A70 00030380 _Z35opt_mesh_tolerance_initial_delaunayiid
       2674  A71 0061CE50 _Z35optimizeTopologyWithCavityRemeshingP6GModel
       2675  A72 00D34A10 _Z36buildTrianglesAndTargetsFromElementsRKNSt3__16vectorINS_5arrayIdLy2EEENS_9allocatorIS2_EEEERKNS0_INS1_IjLy4EEENS3_IS8_EEEERNS0_INS1_IjLy3EEENS3_ISD_EEEERNS0_INS1_IS2_Ly3EEENS3_ISH_EEEEb
       2676  A73 006073D0 _Z36fillSizemapFromScalarBackgroundFieldP6GModelRKNSt3__16vectorIP9MTriangleNS1_9allocatorIS4_EEEERNS1_13unordered_mapIP7MVertexdNS1_4hashISC_EENS1_8equal_toISC_EENS5_INS1_4pairIKSC_dEEEEEE
       2677  A74 00171770 _Z36gmshGenerateMonomialsHexaSerendipityi
       2678  A75 00171270 _Z36gmshGenerateMonomialsQuadSerendipityi
       2679  A76 0002A110 _Z36opt_general_high_resolution_graphicsiid
       2680  A77 0002B6A0 _Z36opt_general_show_messages_on_startupiid
       2681  A78 0002BFA0 _Z36opt_geometry_match_mesh_scale_factoriid
       2682  A79 0002C400 _Z36opt_geometry_occ_thrusections_degreeiid
       2683  A7A 0002D090 _Z36opt_mesh_boundary_layer_fan_elementsiid
       2684  A7B 0002D140 _Z36opt_mesh_cgns_import_ignore_solutioniid
       2685  A7C 0002EA80 _Z36opt_mesh_newton_convergence_test_xyziid
       2686  A7D 0002F860 _Z36opt_mesh_recombine_optimize_topologyiid
       2687  A7E 00030430 _Z36opt_mesh_tolerance_reference_elementiid
       2688  A7F 00030D00 _Z36opt_post_save_interpolation_matricesiid
       2689  A80 00030750 _Z36opt_solver_auto_archive_output_filesiid
       2690  A81 00030900 _Z36opt_solver_show_invisible_parametersiid
       2691  A82 00612DC0 _Z36patchIsValidForDiskRequadrangulationRK14GFaceMeshPatchRKN10robin_hood6detail5TableILb1ELy80EP7MVertexNSt3__16vectorIP8MElementNS7_9allocatorISA_EEEENS2_4hashIS6_vEENS7_8equal_toIS6_EEEE
       2692  A83 0061C510 _Z36quadMeshingOfSimpleFacesWithPatternsP6GModeld
       2693  A84 00455E80 _Z36splitElementsInBoundaryLayerIfNeededP5GFace
       2694  A85 00441AE0 _Z37bowyerWatsonParallelogramsConstrainedP5GFaceRKNSt3__13setIP7MVertexNS1_4lessIS4_EENS1_9allocatorIS4_EEEEPNS1_3mapIS4_S4_S6_NS7_INS1_4pairIKS4_S4_EEEEEEPNSC_IS4_7SPoint2S6_NS7_INSD_ISE_SJ_EEEEEE
       2695  A86 004E16F0 _Z37deriv_smoothing_objective_function_3DPdS_RdPv
       2696  A87 00178760 _Z37gmshGenerateInnerVertexPlacementPrismi
       2697  A88 00171440 _Z37gmshGenerateMonomialsPrismSerendipityi
       2698  A89 00432E80 _Z37modifyInitialMeshToRemoveDegeneraciesP5GFaceR8BDS_MeshPNSt3__13mapIP9BDS_PointP7MVertex13PointLessThanNS3_9allocatorINS3_4pairIKS6_S8_EEEEEE
       2699  A8A 00024DF0 _Z37opt_general_background_image_filenameiiRKNSt3__112basic_stringIcNS_11char_traitsIcEENS_9allocatorIcEEEE
       2700  A8B 00036340 _Z37opt_general_color_background_gradientiij
       2701  A8C 0002F020 _Z37opt_mesh_partition_create_ghost_cellsiid
       2702  A8D 0002F080 _Z37opt_mesh_partition_save_topology_fileiid
       2703  A8E 0002F890 _Z37opt_mesh_recombine_node_repositioningiid
       2704  A8F 00030AF0 _Z37opt_post_double_clicked_graph_point_xiid
       2705  A90 00030B30 _Z37opt_post_double_clicked_graph_point_yiid
       2706  A91 006184A0 _Z38RefineMeshWithBackgroundMeshProjectionP6GModel
       2707  A92 00D1DA10 _Z38errorAndAbortIfInvalidVertexInElementsRKNSt3__16vectorIP8MElementNS_9allocatorIS2_EEEERKNS_12basic_stringIcNS_11char_traitsIcEENS3_IcEEEE
       2708  A93 00028E30 _Z38opt_general_background_image_position0iid
       2709  A94 00028E70 _Z38opt_general_background_image_position1iid
       2710  A95 0002B910 _Z38opt_general_trackball_hyperbolic_sheetiid
       2711  A96 0002BDC0 _Z38opt_geometry_double_clicked_entity_tagiid
       2712  A97 0002CED0 _Z38opt_mesh_angle_tolerance_facet_overlapiid
       2713  A98 0002E4F0 _Z38opt_mesh_partition_metis_edge_matchingiid
       2714  A99 00CADEB0 _Z38quadMeshSpecialAcuteCornerOptimizationP5GFaceP16SurfaceProjector
       2715  A9A 00607AE0 _Z39getGFaceBackgroundMeshLinesAndTrianglesR20GlobalBackgroundMeshP5GFaceRNSt3__16vectorIP5MLineNS3_9allocatorIS6_EEEERNS4_IP9MTriangleNS7_ISC_EEEE
       2716  A9B 0017CB80 _Z39gmshGenerateInnerVertexPlacementPyramidi
       2717  A9C 00171AE0 _Z39gmshGenerateMonomialsPyramidSerendipityi
       2718  A9D 00A64550 _Z39meshQuadToTriRegionAfterGlobalSubdivideP7GRegionPNSt3__13setINS1_4pairIP7MVertexS5_EENS1_4lessIS6_EENS1_9allocatorIS6_EEEER12MVertexRTree
       2719  A9E 0002FFA0 _Z39opt_mesh_stl_linear_deflection_relativeiid
       2720  A9F 00030010 _Z39opt_mesh_stl_remove_duplicate_trianglesiid
       2721  AA0 007B2530 _Z39treat_Struct_FullName_dot_tSTRING_FloatPcS_S_idi
       2722  AA1 000530F0 _Z3Cpuv
       2723  AA2 00BD5150 _Z3argIbET_iPdRKS0_
       2724  AA3 00BD4FE0 _Z3argIdET_iPdRKS0_
       2725  AA4 00BD50F0 _Z3argIlET_iPdRKS0_
       2726  AA5 009BBE20 _Z3mindd
       2727  AA6 009BBE30 _Z3squd
       2728  AA7 00CF9320 _Z40convertToPerTriangleCrossFieldDirectionsiRKNSt3__16vectorIP9MTriangleNS_9allocatorIS2_EEEERKNS0_INS_5arrayIdLy3EEENS3_IS9_EEEERNS0_INS8_IdLy9EEENS3_ISE_EEEE
       2729  AA8 001749F0 _Z40gmshGenerateInnerVertexPlacementTrianglei
       2730  AA9 0045B0E0 _Z40meshGFaceQuadrangulateBipartiteLabellingi
       2731  AAA 0002F2A0 _Z40opt_mesh_quadqs_scaling_on_triangulationiid
       2732  AAB 00D12FD0 _Z40orientElementsAccordingToBoundarySegmentP7MVertexS0_RNSt3__16vectorIP8MElementNS1_9allocatorIS4_EEEE
       2733  AAC 007B3A20 _Z40treat_Struct_FullName_dot_tSTRING_StringPcS_S_iS_i
       2734  AAD 0060BE50 _Z41meshOrientationIsOppositeOfCadOrientationP5GFace
       2735  AAE 00026070 _Z41opt_geometry_double_clicked_curve_commandiiRKNSt3__112basic_stringIcNS_11char_traitsIcEENS_9allocatorIcEEEE
       2736  AAF 00026020 _Z41opt_geometry_double_clicked_point_commandiiRKNSt3__112basic_stringIcNS_11char_traitsIcEENS_9allocatorIcEEEE
       2737  AB0 0041B930 _Z42computePointsUsingScaledCrossFieldPlanarP2PKcS0_iiRNSt3__16vectorIdNS1_9allocatorIdEEEEPFdPdS7_S7_S7_S7_S7_E
       2738  AB1 0017AAC0 _Z42gmshGenerateInnerVertexPlacementHexahedroni
       2739  AB2 001757F0 _Z42gmshGenerateInnerVertexPlacementQuadranglei
       2740  AB3 00CD29C0 _Z42improveQuadMeshTopologyWithCavityRemeshingP5GFaceRKNSt3__16vectorINS1_4pairI7SPoint3iEENS1_9allocatorIS5_EEEEb
       2741  AB4 00026110 _Z42opt_geometry_double_clicked_volume_commandiiRKNSt3__112basic_stringIcNS_11char_traitsIcEENS_9allocatorIcEEEE
       2742  AB5 0002C460 _Z42opt_geometry_occ_use_generic_closest_pointiid
       2743  AB6 00181A50 _Z43gmshGenerateInnerVertexPlacementPrismLinearii
       2744  AB7 001764E0 _Z43gmshGenerateInnerVertexPlacementTetrahedroni
       2745  AB8 000260C0 _Z43opt_geometry_double_clicked_surface_commandiiRKNSt3__112basic_stringIcNS_11char_traitsIcEENS_9allocatorIcEEEE
       2746  AB9 0002C130 _Z43opt_geometry_occ_boolean_preserve_numberingiid
       2747  ABA 0002E520 _Z43opt_mesh_partition_metis_max_load_imbalanceiid
       2748  ABB 000270E0 _Z43opt_post_double_clicked_graph_point_commandiiRKNSt3__112basic_stringIcNS_11char_traitsIcEENS_9allocatorIcEEEE
       2749  ABC 00616480 _Z44RefineMeshWithBackgroundMeshProjectionSimpleP6GModel
       2750  ABD 0060AF30 _Z44getSingularitiesFromNewCrossFieldComputationR20GlobalBackgroundMeshP5GFaceRNSt3__16vectorINS3_4pairI7SPoint3iEENS3_9allocatorIS7_EEEE
       2751  ABE 0002E5C0 _Z45opt_mesh_partition_metis_refinement_algorithmiid
       2752  ABF 007B3180 _Z45treat_Struct_FullName_dot_tSTRING_ListOfFloatPcS_S_
       2753  AC0 0017EB40 _Z46gmshGenerateInnerVertexPlacementTriangleLinearii
       2754  AC1 00029690 _Z46opt_general_clip_only_draw_intersecting_volumeiid
       2755  AC2 007B2900 _Z46treat_Struct_FullName_dot_tSTRING_Float_getDimPcS_S_
       2756  AC3 007B3F00 _Z46treat_Struct_FullName_dot_tSTRING_ListOfStringPcS_S_
       2757  AC4 00CF8390 _Z47computeQuadSizeMapFromCrossFieldConformalFactorRKNSt3__16vectorIP9MTriangleNS_9allocatorIS2_EEEEyRNS_13unordered_mapIP7MVertexdNS_4hashISA_EENS_8equal_toISA_EENS3_INS_4pairIKSA_dEEEEEE
       2758  AC5 00180EB0 _Z48gmshGenerateInnerVertexPlacementHexahedronLinearii
       2759  AC6 0017F6E0 _Z48gmshGenerateInnerVertexPlacementQuadrangleLineari
       2760  AC7 00618EC0 _Z48optimizeQuadMeshWithDiskQuadrangulationRemeshingP5GFace
       2761  AC8 0061C990 _Z48optimizeTopologyWithDiskQuadrangulationRemeshingP6GModel
       2762  AC9 0017FD90 _Z49gmshGenerateInnerVertexPlacementTetrahedronLinearii
       2763  ACA 00BD10B0 _Z4BamgP5Mesh2PdS1_S1_S1_b
       2764  ACB 00075860 _Z4FreePv
       2765  ACC 0003C340 _Z4_h2dc
       2766  ACD 009B50E0 _Z4conjRK3Qtn
       2767  ACE 007D13C0 _Z4ftoad
       2768  ACF 007D1260 _Z4itoai
       2769  AD0 007BEEC0 _Z4skipPKcS0_
       2770  AD1 004F9CB0 _Z4swapRdS_
       2771  AD2 0061B870 _Z54ensureEvenNumberOfEdgesOnCurvesAfterInitialSurfaceMeshP6GModel
       2772  AD3 000528A0 _Z5FopenPKcS0_
       2773  AD4 007D1560 _Z5chmodNSt3__112basic_stringIcNS_11char_traitsIcEENS_9allocatorIcEEEE
       2774  AD5 000E2680 _Z5norm2PA3_d
       2775  AD6 007D17C0 _Z5quoteRKNSt3__112basic_stringIcNS_11char_traitsIcEENS_9allocatorIcEEEE
       2776  AD7 003D4D60 _Z5vecN0i
       2777  AD8 007AF410 _Z5yymsgiPKcz
       2778  AD9 00075800 _Z6Callocyy
       2779  ADA 0041B070 _Z6LENGTHPN8PolyMesh8HalfEdgeERNSt3__13mapIS1_7SPoint2NS2_4lessIS1_EENS2_9allocatorINS2_4pairIKS1_S4_EEEEEEib
       2780  ADB 000757D0 _Z6Mallocy
       2781  ADC 003345B0 _Z6NEWREGv
       2782  ADD 008985C0 _Z6NewtonPK8DI_PointS1_PK10DI_ElementRKNSt3__16vectorIP9gLevelsetNS5_9allocatorIS8_EEEE
       2783  ADE 000E3020 _Z6det2x2PA2_d
       2784  ADF 000E3040 _Z6det2x3PA3_d
       2785  AE0 000E2C10 _Z6det3x3PA3_d
       2786  AE1 004E2630 _Z6fillv_INSt3__111__wrap_iterIPP11MHexahedronEEEvRNS0_8multimapIP7MVertexP8MElementNS0_4lessIS8_EENS0_9allocatorINS0_4pairIKS8_SA_EEEEEET_SK_
       2787  AE2 004E23B0 _Z6fillv_INSt3__111__wrap_iterIPP12MTetrahedronEEEvRNS0_8multimapIP7MVertexP8MElementNS0_4lessIS8_EENS0_9allocatorINS0_4pairIKS8_SA_EEEEEET_SK_
       2788  AE3 004E28B0 _Z6fillv_INSt3__111__wrap_iterIPP6MPrismEEEvRNS0_8multimapIP7MVertexP8MElementNS0_4lessIS8_EENS0_9allocatorINS0_4pairIKS8_SA_EEEEEET_SK_
       2789  AE4 004E2B30 _Z6fillv_INSt3__111__wrap_iterIPP8MPyramidEEEvRNS0_8multimapIP7MVertexP8MElementNS0_4lessIS8_EENS0_9allocatorINS0_4pairIKS8_SA_EEEEEET_SK_
       2790  AE5 00020870 _Z6fscanfP6_iobufPKcz
       2791  AE6 00D2DFF0 _Z6i4_gcdii
       2792  AE7 00D2E050 _Z6i4_maxii
       2793  AE8 00D2E060 _Z6i4_minii
       2794  AE9 000E30B0 _Z6inv2x2PA2_dS0_
       2795  AEA 000E3170 _Z6inv3x3PA3_dS0_
       2796  AEB 00894E90 _Z6isInQEPK11DI_TrianglePK12DI_QualError
       2797  AEC 000E2780 _Z6matmatPA3_dS0_S0_
       2798  AED 000E2700 _Z6matvecPA3_dPdS1_
       2799  AEE 0099C980 _Z6mvboldb
       2800  AEF 0099C920 _Z6mvinitv
       2801  AF0 000E2650 _Z6myacosd
       2802  AF1 000E2620 _Z6myasind
       2803  AF2 00013090 _Z6printfPKcz
       2804  AF3 002B38A0 _Z6sscanfPKcS0_z
       2805  AF4 000E2B40 _Z6sys2x2PA2_dPdS1_
       2806  AF5 000E2D00 _Z6sys3x3PA3_dPdS1_S1_
       2807  AF6 000E2C90 _Z6trace2PA3_d
       2808  AF7 001A8AB0 _Z7CutLinePdS_S_S_ddS_S_S_S_
       2809  AF8 001A7D10 _Z7IsoLinePdS_S_S_dS_S_S_
       2810  AF9 00075830 _Z7ReallocPvy
       2811  AFA 007EB9A0 _Z7annDistiPdS_
       2812  AFB 00075580 _Z7avl_genP20avl_generator_structPPvS2_
       2813  AFC 00895E90 _Z7commonVRiS_S_S_
       2814  AFD 0036F940 _Z7comparePK7MVertexS1_
       2815  AFE 009B8610 _Z7convertRK7cross3D
       2816  AFF 00444FE0 _Z7diffendP7MVertexS0_S0_S0_
       2817  B00 000E54D0 _Z7eigsortPd
       2818  B01 007DA280 _Z7extractRKNSt3__112basic_stringIcNS_11char_traitsIcEENS_9allocatorIcEEEERS5_S8_RNS_6vectorIS5_NS3_IS5_EEEE
       2819  B02 00012E90 _Z7fprintfP6_iobufPKcz
       2820  B03 00895EE0 _Z7minimumPdS_S_i
       2821  B04 0099C9A0 _Z7mvcolorib
       2822  B05 0099C9C0 _Z7mvpausev
       2823  B06 000E2600 _Z7myatan2dd
       2824  B07 0022F460 _Z7nextOneP11GEdgeSignedRNSt3__14listIP5GEdgeNS1_9allocatorIS4_EEEE
       2825  B08 0013CE80 _Z7pow_intRKdRKi
       2826  B09 00012E60 _Z7sprintfPcPKcz
       2827  B0A 007BDF90 _Z7strsavePc
       2828  B0B 009B15B0 _Z7trapezeR7SPoint3S0_
       2829  B0C 007D1850 _Z7unquoteRKNSt3__112basic_stringIcNS_11char_traitsIcEENS_9allocatorIcEEEE
       2830  B0D 0066BD50 _Z8AssembleINSt3__121__tree_const_iteratorIP8MElementPNS0_11__tree_nodeIS3_PvEExEE10dofManagerIdEEvR14LinearTermBaseIdER17FunctionSpaceBaseT_SG_R14QuadratureBaseRT0_
       2831  B0E 0066BF00 _Z8AssembleINSt3__121__tree_const_iteratorIP8MElementPNS0_11__tree_nodeIS3_PvEExEE10dofManagerIdEEvR16BilinearTermBaseR17FunctionSpaceBaseSE_T_SF_R14QuadratureBaseRT0_
       2832  B0F 0066C400 _Z8AssembleINSt3__121__tree_const_iteratorIP8MElementPNS0_11__tree_nodeIS3_PvEExEE10dofManagerIdEEvR16BilinearTermBaseR17FunctionSpaceBaseT_SF_R14QuadratureBaseRT0_
       2833  B10 00320B80 _Z8EndCurveP5Curve
       2834  B11 0003EE10 _Z8GetUsagev
       2835  B12 004A9DB0 _Z8Gmsh2HxtRNSt3__16vectorIP7GRegionNS_9allocatorIS2_EEEEP7HXTMeshRNS_3mapIP7MVertexjNS_4lessISB_EENS3_INS_4pairIKSB_jEEEEEERNS0_ISB_NS3_ISB_EEEE
       2836  B13 00002880 _Z8GmshFLTKiPPc
       2837  B14 00073E20 _Z8List_AddP6List_TPv
       2838  B15 00073EC0 _Z8List_AddP6List_Ti
       2839  B16 00073F60 _Z8List_NbrP6List_T
       2840  B17 000740F0 _Z8List_PopP6List_T
       2841  B18 00074010 _Z8List_PutP6List_TiPv
       2842  B19 00322ED0 _Z8NEWCURVEv
       2843  B1A 003347F0 _Z8NEWFIELDv
       2844  B1B 00322990 _Z8NEWPOINTv
       2845  B1C 00053530 _Z8StatFileRKNSt3__112basic_stringIcNS_11char_traitsIcEENS_9allocatorIcEEEE
       2846  B1D 006E0AE0 _Z8ToStringIdENSt3__112basic_stringIcNS0_11char_traitsIcEENS0_9allocatorIcEEEERKT_
       2847  B1E 006E0960 _Z8ToStringIiENSt3__112basic_stringIcNS0_11char_traitsIcEENS0_9allocatorIcEEEERKT_
       2848  B1F 00053190 _Z8TotalRamv
       2849  B20 00074BD0 _Z8Tree_AddP6Tree_TPv
       2850  B21 00074C20 _Z8Tree_NbrP6Tree_T
       2851  B22 004DB980 _Z8addFacesI11MHexahedronEvRNSt3__16vectorIPT_NS1_9allocatorIS4_EEEERNS1_3setI5MFace13MFaceLessThanNS5_ISA_EEEE
       2852  B23 004DAC20 _Z8addFacesI11MQuadrangleEvRNSt3__16vectorIPT_NS1_9allocatorIS4_EEEERNS1_3setI5MFace13MFaceLessThanNS5_ISA_EEEE
       2853  B24 004DB2D0 _Z8addFacesI12MTetrahedronEvRNSt3__16vectorIPT_NS1_9allocatorIS4_EEEERNS1_3setI5MFace13MFaceLessThanNS5_ISA_EEEE
       2854  B25 004DC030 _Z8addFacesI6MPrismEvRNSt3__16vectorIPT_NS1_9allocatorIS4_EEEERNS1_3setI5MFace13MFaceLessThanNS5_ISA_EEEE
       2855  B26 004DC6E0 _Z8addFacesI8MPyramidEvRNSt3__16vectorIPT_NS1_9allocatorIS4_EEEERNS1_3setI5MFace13MFaceLessThanNS5_ISA_EEEE
       2856  B27 004DA570 _Z8addFacesI9MTriangleEvRNSt3__16vectorIPT_NS1_9allocatorIS4_EEEERNS1_3setI5MFace13MFaceLessThanNS5_ISA_EEEE
       2857  B28 007F06D0 _Z8annClosev
       2858  B29 007EBDC0 _Z8annErrorPc6ANNerr
       2859  B2A 00BCE850 _Z8bamg2mshPN4bamg9TrianglesEb
       2860  B2B 0075A740 _Z8boundaryIiE5ChainIT_ERK9ElemChain
       2861  B2C 000EBB70 _Z8catenarydddddiPd
       2862  B2D 004DD860 _Z8edgeSwapRNSt3__16vectorIP5MTet4NS_9allocatorIS2_EEEES2_iRKN13qmTetrahedron8MeasuresERKNS_3setI5MFace13MFaceLessThanNS3_ISC_EEEE
       2863  B2E 007DB600 _Z8enclosedRKNSt3__112basic_stringIcNS_11char_traitsIcEENS_9allocatorIcEEEERNS_6vectorIS5_NS3_IS5_EEEERy
       2864  B2F 004DEAD0 _Z8faceSwapRNSt3__16vectorIP5MTet4NS_9allocatorIS2_EEEES2_iRKN13qmTetrahedron8MeasuresERKNS_3setI5MFace13MFaceLessThanNS3_ISC_EEEE
       2865  B30 00073CD0 _Z8fcmp_intPKvS0_
       2866  B31 00335150 _Z8findSpandiiPf
       2867  B32 005CA7C0 _Z8isMinMaxP7MVertexNSt3__16vectorIP7cross2dNS1_9allocatorIS4_EEEEP10dofManagerIdERbSB_
       2868  B33 007EF590 _Z8kd_splitPPdPiRK11ANNorthRectiiRiRdS5_
       2869  B34 00BCF690 _Z8msh2bamgRK5Mesh2dPli
       2870  B35 00BD0020 _Z8msh2bamgRK5Mesh2diPiiS2_Pli
       2871  B36 007CE380 _Z8mySystemNSt3__112basic_stringIcNS_11char_traitsIcEENS_9allocatorIcEEEE
       2872  B37 007EC8D0 _Z8rbd_treePPdPiiiiR11ANNorthRectPFvS0_S1_RKS2_iiRiRdS6_E13ANNshrinkRule
       2873  B38 008BA950 _Z8recurCutP12RecurElementii
       2874  B39 007F0940 _Z8rkd_treePPdPiiiiR11ANNorthRectPFvS0_S1_RKS2_iiRiRdS6_E
       2875  B3A 007D16A0 _Z8sanitizeRKNSt3__112basic_stringIcNS_11char_traitsIcEENS_9allocatorIcEEEE
       2876  B3B 007B1130 _Z8setColorRKNSt3__16vectorINS_4pairIiiEENS_9allocatorIS2_EEEEjb
       2877  B3C 007BF740 _Z8skipTestPKcS0_S0_iPi
       2878  B3D 007BDD60 _Z8skiplinev
       2879  B3E 00444840 _Z8swapedgeP7MVertexS0_S0_S0_P5MTri3i
       2880  B3F 000E2C80 _Z8trace3x3PA3_d
       2881  B40 003E9D20 _Z9AdaptMeshP6GModel
       2882  B41 00BCE810 _Z9ExecErrorPKc
       2883  B42 00322570 _Z9FindCurvei
       2884  B43 003220F0 _Z9FindPointi
       2885  B44 007D1E10 _Z9FixOLPathRKNSt3__112basic_stringIcNS_11char_traitsIcEENS_9allocatorIcEEEE
       2886  B45 00322190 _Z9FreeCurvePvS_
       2887  B46 00001A90 _Z9GmshBatchv
       2888  B47 00074710 _Z9List_CopyP6List_TS0_
       2889  B48 00073F70 _Z9List_ReadP6List_TiPv
       2890  B49 000741A0 _Z9List_SortP6List_TPFiPKvS2_E
       2891  B4A 00055510 _Z9MergeFileRKNSt3__112basic_stringIcNS_11char_traitsIcEENS_9allocatorIcEEEEbbbi
       2892  B4B 00323EE0 _Z9NEWVOLUMEv
       2893  B4C 00054FD0 _Z9ParseFileRKNSt3__112basic_stringIcNS_11char_traitsIcEENS_9allocatorIcEEEEbb
       2894  B4D 0054E590 _Z9SetOrder1P6GModelbb
       2895  B4E 00551190 _Z9SetOrderNP6GModelibbb
       2896  B4F 000670D0 _Z9SwapBytesPcii
       2897  B50 000531E0 _Z9TimeOfDayv
       2898  B51 00074DE0 _Z9Tree2ListP6Tree_T
       2899  B52 00074DA0 _Z9Tree_SizeP6Tree_T
       2900  B53 00054000 _Z9UnzipFileRKNSt3__112basic_stringIcNS_11char_traitsIcEENS_9allocatorIcEEEES7_
       2901  B54 004FF5D0 _Z9addPointsP8PolyMeshRNSt3__16vectorIdNS1_9allocatorIdEEEER14SBoundingBox3d
       2902  B55 007EBBD0 _Z9annCopyPtiPd
       2903  B56 007F13C0 _Z9annMinMaxPPdPiiiRdS2_
       2904  B57 007F1350 _Z9annSpreadPPdPiii
       2905  B58 000754D0 _Z9avl_countP15avl_tree_struct
       2906  B59 008951D0 _Z9belongsToPK10DI_ElementS1_
       2907  B5A 004D9C10 _Z9carveHoleI11MHexahedronEvRNSt3__16vectorIPT_NS1_9allocatorIS4_EEEEdP10ANNkd_tree
       2908  B5B 004D98F0 _Z9carveHoleI12MTetrahedronEvRNSt3__16vectorIPT_NS1_9allocatorIS4_EEEEdP10ANNkd_tree
       2909  B5C 004D9F30 _Z9carveHoleI6MPrismEvRNSt3__16vectorIPT_NS1_9allocatorIS4_EEEEdP10ANNkd_tree
       2910  B5D 004DA250 _Z9carveHoleI8MPyramidEvRNSt3__16vectorIPT_NS1_9allocatorIS4_EEEEdP10ANNkd_tree
       2911  B5E 004D8ED0 _Z9carveHoleP7GRegionidRNSt3__16vectorIiNS1_9allocatorIiEEEE
       2912  B5F 004DE340 _Z9edgeSplitRNSt3__16vectorIP5MTet4NS_9allocatorIS2_EEEES2_P7MVertexiRKN13qmTetrahedron8MeasuresE
       2913  B60 00185A80 _Z9getGQHPtsib
       2914  B61 00184C70 _Z9getGQLPtsi
       2915  B62 00185270 _Z9getGQQPtsib
       2916  B63 001850B0 _Z9getGQTPtsib
       2917  B64 0050EE40 _Z9getLSBlobyNSt3__114__map_iteratorINS_15__tree_iteratorINS_12__value_typeIP7MVertexNS_6vectorIP8MElementNS_9allocatorIS7_EEEEEEPNS_11__tree_nodeISB_PvEExEEEERNS_3mapIS4_SA_18MVertexPtrLessThanNS8_INS_4pairIKS4_SA_EEEEEE
       2918  B65 007EABD0 _Z9getNumberRKNSt3__112basic_stringIcNS_11char_traitsIcEENS_9allocatorIcEEEE
       2919  B66 007EAC40 _Z9getStringRKNSt3__112basic_stringIcNS_11char_traitsIcEENS_9allocatorIcEEEE
       2920  B67 004465C0 _Z9getSurfUVP9MTriangleR13bidimMeshData
       2921  B68 00D2E5C0 _Z9i4mat_refiiPi
       2922  B69 00D2EA60 _Z9i4vec_rediPi
       2923  B6A 003DAE80 _Z9incidenceIiET_RK5ChainIS0_ES4_
       2924  B6B 007EAD90 _Z9metamodelRKNSt3__112basic_stringIcNS_11char_traitsIcEENS_9allocatorIcEEEE
       2925  B6C 007EA900 _Z9modelNameRKNSt3__112basic_stringIcNS_11char_traitsIcEENS_9allocatorIcEEEES7_
       2926  B6D 0099CA80 _Z9mvfillRowic
       2927  B6E 0099CA40 _Z9mvprintXYiiPKcz
       2928  B6F 000E63C0 _Z9newton_fdPFbR10fullVectorIdES1_PvES1_S2_dd
       2929  B70 005C7090 _Z9overlap2DP8MElementS0_
       2930  B71 00186660 _Z9quadToTriddPdS_S_
       2931  B72 00546570 _Z9recur_tagP8BDS_FaceP14BDS_GeomEntity
       2932  B73 007EAAA0 _Z9setNumberRKNSt3__112basic_stringIcNS_11char_traitsIcEENS_9allocatorIcEEEEd
       2933  B74 007EAB10 _Z9setStringRKNSt3__112basic_stringIcNS_11char_traitsIcEENS_9allocatorIcEEEES7_
       2934  B75 00D2FDE0 _Z9timestampv
       2935  B76 009EB660 _Z9validFaceP7MVertexS0_S0_S0_RNSt3__13mapIS0_NS1_3setIP8MElementNS1_4lessIS5_EENS1_9allocatorIS5_EEEENS6_IS0_EENS8_INS1_4pairIKS0_SA_EEEEEE
       2936  B77 013ED570 _ZGVN8picojson12last_error_tIbE1sE
       2937  B78 013ED578 _ZGVZN5Eigen8internal20manage_caching_sizesENS_6ActionEPxS2_S2_E12m_cacheSizes
       2938  B79 013ED580 _ZGVZN6netgen14FindInnerPointINS_5ArrayINS_9MeshPointELi0EEENS1_INS_13MiniElement2dELi0EEEEEiRT_RT0_RNS_7Point3dEE5timer
       2939  B7A 013ED588 _ZGVZN6netgen14FindInnerPointINS_5ArrayINS_9MeshPointELi1EEENS1_INS_9Element2dELi0EEEEEiRT_RT0_RNS_7Point3dEE5timer
       2940  B7B 013ED590 _ZGVZNK11FieldOption10listdoubleEvE1l
       2941  B7C 013ED598 _ZGVZNK11FieldOption4listEvE1l
       2942  B7D 013ED5A0 _ZGVZNK20BoundaryLayerColumns9getColumnEP7MVertexiE5error
       2943  B7E 013ED5A8 _ZGVZNK6onelab6string8getValueEvE1n
       2944  B7F 013ED5B0 _ZGVZNK7GEntity5edgesEvE1i
       2945  B80 007EC6A0 _ZN10ANNbd_treeC1EPPdiii12ANNsplitRule13ANNshrinkRule
       2946  B81 007EE200 _ZN10ANNbd_treeC1ERNSt3__113basic_istreamIcNS0_11char_traitsIcEEEE
       2947  B82 007EC6A0 _ZN10ANNbd_treeC2EPPdiii12ANNsplitRule13ANNshrinkRule
       2948  B83 007EE200 _ZN10ANNbd_treeC2ERNSt3__113basic_istreamIcNS0_11char_traitsIcEEEE
       2949  B84 007ED160 _ZN10ANNbd_treeD0Ev
       2950  B85 007F0620 _ZN10ANNkdStats5mergeERKS_
       2951  B86 007EF3D0 _ZN10ANNkd_leaf10ann_searchEd
       2952  B87 007EE7D0 _ZN10ANNkd_leaf13ann_FR_searchEd
       2953  B88 007EEEC0 _ZN10ANNkd_leaf14ann_pri_searchEd
       2954  B89 007ED8C0 _ZN10ANNkd_leaf4dumpERNSt3__113basic_ostreamIcNS0_11char_traitsIcEEEE
       2955  B8A 007F0290 _ZN10ANNkd_leaf5printEiRNSt3__113basic_ostreamIcNS0_11char_traitsIcEEEE
       2956  B8B 007F0230 _ZN10ANNkd_leaf8getStatsEiR10ANNkdStatsR11ANNorthRect
       2957  B8C 007F0DE0 _ZN10ANNkd_leafD0Ev
       2958  B8D 007F0DD0 _ZN10ANNkd_nodeD2Ev
       2959  B8E 007EF080 _ZN10ANNkd_tree10annkSearchEPdiPiS0_d
       2960  B8F 007F0700 _ZN10ANNkd_tree12SkeletonTreeEiiiPPdPi
       2961  B90 007EE480 _ZN10ANNkd_tree12annkFRSearchEPddiPiS0_d
       2962  B91 007EE930 _ZN10ANNkd_tree13annkPriSearchEPdiPiS0_d
       2963  B92 007ED5C0 _ZN10ANNkd_tree4DumpE7ANNboolRNSt3__113basic_ostreamIcNS1_11char_traitsIcEEEE
       2964  B93 007F0030 _ZN10ANNkd_tree5PrintE7ANNboolRNSt3__113basic_ostreamIcNS1_11char_traitsIcEEEE
       2965  B94 007ED180 _ZN10ANNkd_tree6theDimEv
       2966  B95 007ED190 _ZN10ANNkd_tree7nPointsEv
       2967  B96 007F0170 _ZN10ANNkd_tree8getStatsER10ANNkdStats
       2968  B97 007ED1A0 _ZN10ANNkd_tree9thePointsEv
       2969  B98 007F0AD0 _ZN10ANNkd_treeC1EPPdiii12ANNsplitRule
       2970  B99 007EDA80 _ZN10ANNkd_treeC1ERNSt3__113basic_istreamIcNS0_11char_traitsIcEEEE
       2971  B9A 007F0820 _ZN10ANNkd_treeC1Eiii
       2972  B9B 007F0AD0 _ZN10ANNkd_treeC2EPPdiii12ANNsplitRule
       2973  B9C 007EDA80 _ZN10ANNkd_treeC2ERNSt3__113basic_istreamIcNS0_11char_traitsIcEEEE
       2974  B9D 007F0820 _ZN10ANNkd_treeC2Eiii
       2975  B9E 007EFFC0 _ZN10ANNkd_treeD0Ev
       2976  B9F 007F0660 _ZN10ANNkd_treeD1Ev
       2977  BA0 007F0660 _ZN10ANNkd_treeD2Ev
       2978  BA1 013D8060 _ZN10BGMManager11latest2DbgmE
       2979  BA2 013C5138 _ZN10BGMManager15use_cross_fieldE
       2980  BA3 00A38AA0 _ZN10BGMManager19set_use_cross_fieldEb
       2981  BA4 00A38C50 _ZN10BGMManager3getEP5GFace
       2982  BA5 00A38AF0 _ZN10BGMManager3getEP7GRegion
       2983  BA6 013D8048 _ZN10BGMManager4dataE
       2984  BA7 00A38DD0 _ZN10BGMManager9current2DEv
       2985  BA8 0012CB70 _ZN10ClosureGen12addEdgeNodesERNSt3__16vectorIN10nodalBasis7closureENS0_9allocatorIS3_EEEEPKii
       2986  BA9 0012A9F0 _ZN10ClosureGen13rotateHexFullEiiidddRdS0_S0_
       2987  BAA 0012B630 _ZN10ClosureGen17getFaceClosureTetEiiiRN10nodalBasis7closureEi
       2988  BAB 0012EEB0 _ZN10ClosureGen18reorderFaceClosureEiiRN10nodalBasis7closureEiii
       2989  BAC 0012F2F0 _ZN10ClosureGen19getFaceClosurePrismEiiiRN10nodalBasis7closureEi
       2990  BAD 0012EDE0 _ZN10ClosureGen21fillInteriorFaceNodesERN10nodalBasis7closureEiiii
       2991  BAE 00131580 _ZN10ClosureGen21generate2dEdgeClosureERNSt3__16vectorIN10nodalBasis7closureENS0_9allocatorIS3_EEEEii
       2992  BAF 00131E50 _ZN10ClosureGen21generateClosureOrder0ERNSt3__16vectorIN10nodalBasis7closureENS0_9allocatorIS3_EEEEi
       2993  BB0 0012E230 _ZN10ClosureGen22generateFaceClosureHexERNSt3__16vectorIN10nodalBasis7closureENS0_9allocatorIS3_EEEEibRK10fullMatrixIdE
       2994  BB1 00131040 _ZN10ClosureGen22generateFaceClosurePyrERNSt3__16vectorIN10nodalBasis7closureENS0_9allocatorIS3_EEEEibRK10fullMatrixIdE
       2995  BB2 0012D140 _ZN10ClosureGen22generateFaceClosureTetERNSt3__16vectorIN10nodalBasis7closureENS0_9allocatorIS3_EEEEi
       2996  BB3 0012ABF0 _ZN10ClosureGen23generate1dVertexClosureERNSt3__16vectorIN10nodalBasis7closureENS0_9allocatorIS3_EEEEi
       2997  BB4 0012FE40 _ZN10ClosureGen24generateFaceClosurePrismERNSt3__16vectorIN10nodalBasis7closureENS0_9allocatorIS3_EEEEi
       2998  BB5 0012BFB0 _ZN10ClosureGen25generate2dEdgeClosureFullERNSt3__16vectorIN10nodalBasis7closureENS0_9allocatorIS3_EEEERNS1_IiNS4_IiEEEEiib
       2999  BB6 0012E7C0 _ZN10ClosureGen26generateFaceClosureHexFullERNSt3__16vectorIN10nodalBasis7closureENS0_9allocatorIS3_EEEERNS1_IiNS4_IiEEEEibRK10fullMatrixIdE
       3000  BB7 0012D5D0 _ZN10ClosureGen26generateFaceClosureTetFullERNSt3__16vectorIN10nodalBasis7closureENS0_9allocatorIS3_EEEERNS1_IiNS4_IiEEEEib
       3001  BB8 0012AEC0 _ZN10ClosureGen27generate1dVertexClosureFullERNSt3__16vectorIN10nodalBasis7closureENS0_9allocatorIS3_EEEERNS1_IiNS4_IiEEEEi
       3002  BB9 001303C0 _ZN10ClosureGen28generateFaceClosurePrismFullERNSt3__16vectorIN10nodalBasis7closureENS0_9allocatorIS3_EEEERNS1_IiNS4_IiEEEEi
       3003  BBA 0012A900 _ZN10ClosureGen9rotateHexEiiiddRdS0_S0_
       3004  BBB 0012AB00 _ZN10ClosureGen9rotatePyrEiiiddRdS0_S0_
       3005  BBC 0089AD10 _ZN10DI_Element11addQuadEdgeEiP8DI_PointPKS_RKNSt3__16vectorIP9gLevelsetNS4_9allocatorIS7_EEEE
       3006  BBD 0089D960 _ZN10DI_Element15computeLsTagDomEPKS_RKNSt3__16vectorIP9gLevelsetNS2_9allocatorIS5_EEEE
       3007  BBE 0089DEB0 _ZN10DI_Element17computeLsTagBoundERNSt3__16vectorIP7DI_HexaNS0_9allocatorIS3_EEEERNS1_IP8DI_TetraNS4_IS9_EEEE
       3008  BBF 0089DF40 _ZN10DI_Element17computeLsTagBoundERNSt3__16vectorIP7DI_QuadNS0_9allocatorIS3_EEEERNS1_IP11DI_TriangleNS4_IS9_EEEE
       3009  BC0 00899FC0 _ZN10DI_Element18setPolynomialOrderEi
       3010  BC1 0089A460 _ZN10DI_Element18setPolynomialOrderEiPKS_RKNSt3__16vectorIP9gLevelsetNS2_9allocatorIS5_EEEE
       3011  BC2 0089A7F0 _ZN10DI_Element5addLsEPKS_
       3012  BC3 0089A8D0 _ZN10DI_Element5addLsEPKS_PK9gLevelset
       3013  BC4 0089AA80 _ZN10DI_Element5addLsEPKS_PK9gLevelsetiPPd
       3014  BC5 0089A750 _ZN10DI_Element5addLsEPKd
       3015  BC6 0089AC80 _ZN10DI_Element7clearLsEv
       3016  BC7 0089AB70 _ZN10DI_Element8chooseLsEPK9gLevelset
       3017  BC8 00899580 _ZN10DI_ElementC2ERKS_
       3018  BC9 008B61A0 _ZN10DI_ElementD0Ev
       3019  BCA 003BDC30 _ZN10DI_ElementD2Ev
       3020  BCB 00899A40 _ZN10DI_ElementaSERKS_
       3021  BCC 003F9030 _ZN10F_Lc_anisoclEP5GEdged
       3022  BCD 00020B00 _ZN10GmshClient7ConnectEPKc
       3023  BCE 0008B530 _ZN10GmshServer5StartERKNSt3__112basic_stringIcNS0_11char_traitsIcEENS0_9allocatorIcEEEES8_S8_d
       3024  BCF 0008B0D0 _ZN10GmshServerC2Ev
       3025  BD0 0008B520 _ZN10GmshServerD0Ev
       3026  BD1 0008B4D0 _ZN10GmshServerD2Ev
       3027  BD2 00012EC0 _ZN10GmshSocket12SendMessageAEiiPKv
       3028  BD3 00021670 _ZN10GmshSocket13ReceiveHeaderEPiS0_S0_
       3029  BD4 0039FC50 _ZN10MLineChild20getIntegrationPointsEiPiPP5IntPt
       3030  BD5 003BC230 _ZN10MLineChild9setParentEP8MElementb
       3031  BD6 003BC1E0 _ZN10MLineChildD0Ev
       3032  BD7 003BC1B0 _ZN10MLineChildD2Ev
       3033  BD8 00389DB0 _ZN10MTriangle610getEdgeRepEbiPdS0_S0_P8SVector3
       3034  BD9 0038A110 _ZN10MTriangle610getFaceRepEbiPdS0_S0_P8SVector3
       3035  BDA 0038BDF0 _ZN10MTriangle612getVertexUNVEi
       3036  BDB 00389D90 _ZN10MTriangle614getNumEdgesRepEb
       3037  BDC 0038A0E0 _ZN10MTriangle614getNumFacesRepEb
       3038  BDD 00389E40 _ZN10MTriangle616getHighOrderFaceEiii
       3039  BDE 0038BF40 _ZN10MTriangle67reverseEv
       3040  BDF 0038A1B0 _ZN10MTriangle68reorientEib
       3041  BE0 0038BDB0 _ZN10MTriangle69getVertexEi
       3042  BE1 0038BDD0 _ZN10MTriangle69setVertexEiP7MVertex
       3043  BE2 002EA4B0 _ZN10MTriangle6C2ERKNSt3__16vectorIP7MVertexNS0_9allocatorIS3_EEEEii
       3044  BE3 0038BD60 _ZN10MTriangle6D0Ev
       3045  BE4 0038A3C0 _ZN10MTriangleN10getEdgeRepEbiPdS0_S0_P8SVector3
       3046  BE5 0038A820 _ZN10MTriangleN10getFaceRepEbiPdS0_S0_P8SVector3
       3047  BE6 0038A3A0 _ZN10MTriangleN14getNumEdgesRepEb
       3048  BE7 0038A7F0 _ZN10MTriangleN14getNumFacesRepEb
       3049  BE8 0038A450 _ZN10MTriangleN16getHighOrderFaceEiii
       3050  BE9 013D2690 _ZN10MTriangleN24_tuple2indicesReorientedE
       3051  BEA 0038A8C0 _ZN10MTriangleN7reverseEv
       3052  BEB 0038A970 _ZN10MTriangleN8reorientEib
       3053  BEC 0038C100 _ZN10MTriangleN9getVertexEi
       3054  BED 0038C120 _ZN10MTriangleN9setVertexEiP7MVertex
       3055  BEE 00382050 _ZN10MTriangleNC2ERKNSt3__16vectorIP7MVertexNS0_9allocatorIS3_EEEEcii
       3056  BEF 0038C070 _ZN10MTriangleND0Ev
       3057  BF0 0038C050 _ZN10MTriangleND2Ev
       3058  BF1 0039E4F0 _ZN10MTrihedron10getEdgeRepEbiPdS0_S0_P8SVector3
       3059  BF2 0039E600 _ZN10MTrihedron10getFaceRepEbiPdS0_S0_P8SVector3
       3060  BF3 0039E560 _ZN10MTrihedron11getNumFacesEv
       3061  BF4 0039E850 _ZN10MTrihedron13getVolumeSignEv
       3062  BF5 0039E4E0 _ZN10MTrihedron14getNumEdgesRepEb
       3063  BF6 0039E5F0 _ZN10MTrihedron14getNumFacesRepEb
       3064  BF7 0039E860 _ZN10MTrihedron17setVolumePositiveEv
       3065  BF8 0039E820 _ZN10MTrihedron7reverseEv
       3066  BF9 0039E470 _ZN10MTrihedron9getVertexEi
       3067  BFA 0039E840 _ZN10MTrihedron9getVolumeEv
       3068  BFB 0039E480 _ZN10MTrihedron9setVertexEiP7MVertex
       3069  BFC 00384850 _ZN10MTrihedronC2ERKNSt3__16vectorIP7MVertexNS0_9allocatorIS3_EEEEii
       3070  BFD 0039E430 _ZN10MTrihedronD0Ev
       3071  BFE 007B7990 _ZN10NameSpaces16getMember_ValMaxERNSt3__112basic_stringIcNS0_11char_traitsIcEENS0_9allocatorIcEEEES7_
       3072  BFF 007B7A70 _ZN10NameSpaces9defStructERNSt3__112basic_stringIcNS0_11char_traitsIcEENS0_9allocatorIcEEEES7_RNS0_3mapIS6_NS0_6vectorIdNS4_IdEEEENS0_4lessIS6_EENS4_INS0_4pairIKS6_SB_EEEEEERNS8_IS6_NS9_IS6_NS4_IS6_EEEESD_NS4_INSE_ISF_SL_EEEEEERiib
       3073  C00 009A7270 _ZN10ObjContrib13updateResultsEv
       3074  C01 009A7210 _ZN10ObjContribC2ENSt3__112basic_stringIcNS0_11char_traitsIcEENS0_9allocatorIcEEEES6_
       3075  C02 00962340 _ZN10ObjContribD0Ev
       3076  C03 00961E40 _ZN10ObjContribD2Ev
       3077  C04 006F9540 _ZN10OctreePost12searchScalarEdddPdiS0_iS0_S0_S0_bi
       3078  C05 006FA670 _ZN10OctreePost12searchTensorEdddPdiS0_iS0_S0_S0_bi
       3079  C06 006FA020 _ZN10OctreePost12searchVectorEdddPdiS0_iS0_S0_S0_bi
       3080  C07 006F61A0 _ZN10OctreePost7_createEP9PViewData
       3081  C08 006F8F70 _ZN10OctreePost9_getValueEPviPdiS1_S1_b
       3082  C09 006F8890 _ZN10OctreePost9_getValueEPviiiPdiS1_S1_b
       3083  C0A 006F6170 _ZN10OctreePostC1EP5PView
       3084  C0B 006F7420 _ZN10OctreePostC1EP9PViewData
       3085  C0C 006F6170 _ZN10OctreePostC2EP5PView
       3086  C0D 006F7420 _ZN10OctreePostC2EP9PViewData
       3087  C0E 006F6060 _ZN10OctreePostD1Ev
       3088  C0F 006F6060 _ZN10OctreePostD2Ev
       3089  C10 00A007D0 _ZN10PETriangleC1ERKNSt3__16vectorIP7MVertexNS0_9allocatorIS3_EEEE
       3090  C11 00A007D0 _ZN10PETriangleC2ERKNSt3__16vectorIP7MVertexNS0_9allocatorIS3_EEEE
       3091  C12 009D6590 _ZN10PETriangleD0Ev
       3092  C13 00A00610 _ZN10PETriangleD1Ev
       3093  C14 00A00610 _ZN10PETriangleD2Ev
       3094  C15 009C7FE0 _ZN10Size_field11init_regionEP7GRegion
       3095  C16 009C9560 _ZN10Size_field11print_fieldEP7GRegion
       3096  C17 009C9D00 _ZN10Size_field4testEv
       3097  C18 009C9D20 _ZN10Size_field5clearEv
       3098  C19 013D7ED8 _ZN10Size_field5fieldE
       3099  C1A 009C88B0 _ZN10Size_field5solveEP7GRegion
       3100  C1B 013D7F10 _ZN10Size_field6octreeE
       3101  C1C 009C92E0 _ZN10Size_field6searchEddd
       3102  C1D 013D7EF0 _ZN10Size_field7kd_treeE
       3103  C1E 013D7EF8 _ZN10Size_field8boundaryE
       3104  C1F 009C7FD0 _ZN10Size_fieldC1Ev
       3105  C20 009C7FD0 _ZN10Size_fieldC2Ev
       3106  C21 00521330 _ZN10dofManagerIdE11getDofValueERNSt3__16vectorI3DofNS1_9allocatorIS3_EEEERNS2_IdNS4_IdEEEE
       3107  C22 00523930 _ZN10dofManagerIdE11getFixedDofERNSt3__13setI3DofNS1_4lessIS3_EENS1_9allocatorIS3_EEEE
       3108  C23 00523710 _ZN10dofManagerIdE11getFixedDofERNSt3__16vectorI3DofNS1_9allocatorIS3_EEEE
       3109  C24 00521CA0 _ZN10dofManagerIdE11sparsityDofERKNSt3__16vectorI3DofNS1_9allocatorIS3_EEEE
       3110  C25 005231E0 _ZN10dofManagerIdE11systemClearEv
       3111  C26 005231D0 _ZN10dofManagerIdE11systemSolveEv
       3112  C27 00523AA0 _ZN10dofManagerIdE12getDofNumberERK3Dof
       3113  C28 00520E10 _ZN10dofManagerIdE14numberGhostDofE3Dofi
       3114  C29 00523270 _ZN10dofManagerIdE15getLinearSystemERNSt3__112basic_stringIcNS1_11char_traitsIcEENS1_9allocatorIcEEEE
       3115  C2A 00654D40 _ZN10dofManagerIdE15scatterSolutionEv
       3116  C2B 00523470 _ZN10dofManagerIdE16assembleLinConstERK3DofS3_RKd
       3117  C2C 00523210 _ZN10dofManagerIdE16setCurrentMatrixENSt3__112basic_stringIcNS1_11char_traitsIcEENS1_9allocatorIcEEEE
       3118  C2D 005233D0 _ZN10dofManagerIdE19getLinearConstraintE3DofR19DofAffineConstraintIdE
       3119  C2E 005232B0 _ZN10dofManagerIdE19setLinearConstraintE3DofR19DofAffineConstraintIdE
       3120  C2F 00523B60 _ZN10dofManagerIdE23clearAllLineConstraintsEv
       3121  C30 00521AF0 _ZN10dofManagerIdE23insertInSparsityPatternERK3DofS3_
       3122  C31 00521910 _ZN10dofManagerIdE31insertInSparsityPatternLinConstERK3DofS3_
       3123  C32 00520B30 _ZN10dofManagerIdE6fixDofE3DofRKd
       3124  C33 00523010 _ZN10dofManagerIdE8assembleERK3DofRKd
       3125  C34 00521D20 _ZN10dofManagerIdE8assembleERK3DofS3_RKd
       3126  C35 00522B00 _ZN10dofManagerIdE8assembleERNSt3__16vectorI3DofNS1_9allocatorIS3_EEEERK10fullMatrixIdE
       3127  C36 00522700 _ZN10dofManagerIdE8assembleERNSt3__16vectorI3DofNS1_9allocatorIS3_EEEERK10fullVectorIdE
       3128  C37 00521F40 _ZN10dofManagerIdE8assembleERNSt3__16vectorI3DofNS1_9allocatorIS3_EEEES7_RK10fullMatrixIdE
       3129  C38 00521020 _ZN10dofManagerIdE9numberDofE3Dof
       3130  C39 005212E0 _ZN10dofManagerIdE9numberDofERKNSt3__16vectorI3DofNS1_9allocatorIS3_EEEE
       3131  C3A 00520520 _ZN10dofManagerIdEC2EP12linearSystemIdEb
       3132  C3B 00520AA0 _ZN10dofManagerIdED0Ev
       3133  C3C 00520880 _ZN10dofManagerIdED2Ev
       3134  C3D 004485B0 _ZN10edge_angleC1EP7MVertexS1_P8MElementS3_
       3135  C3E 004485B0 _ZN10edge_angleC2EP7MVertexS1_P8MElementS3_
       3136  C3F 000EC0D0 _ZN10fullMatrixIdE3eigER10fullVectorIdES3_RS0_S4_b
       3137  C40 00101330 _ZN10fullMatrixIdE3svdERS0_R10fullVectorIdE
       3138  C41 0012A710 _ZN10fullMatrixIdE4copyERKS0_
       3139  C42 001F7770 _ZN10fullMatrixIdE4gemmERKS0_S2_ddbb
       3140  C43 0012A180 _ZN10fullMatrixIdE6resizeEiib
       3141  C44 00124120 _ZN10fullMatrixIdE7luSolveERK10fullVectorIdERS2_
       3142  C45 000CE080 _ZN10fullMatrixIdEC2Eiib
       3143  C46 00157870 _ZN10fullMatrixIiE6resizeEiib
       3144  C47 00157CA0 _ZN10fullVectorIdE6resizeEib
       3145  C48 00162FD0 _ZN10fullVectorIdEaSERKS0_
       3146  C49 00236190 _ZN10gmshRegion14resetNativePtrEP6Volume
       3147  C4A 00235F20 _ZN10gmshRegion19resetMeshAttributesEv
       3148  C4B 00236140 _ZN10gmshRegionC1EP6GModelP6Volume
       3149  C4C 00236140 _ZN10gmshRegionC2EP6GModelP6Volume
       3150  C4D 00236800 _ZN10gmshRegionD0Ev
       3151  C4E 00236D00 _ZN10gmshSphere9NewSphereEidddd
       3152  C4F 00237550 _ZN10gmshSphereD0Ev
       3153  C50 00230140 _ZN10gmshVertex11setPositionER6GPoint
       3154  C51 00230940 _ZN10gmshVertex14resetNativePtrEP6Vertex
       3155  C52 002300B0 _ZN10gmshVertex19resetMeshAttributesEv
       3156  C53 00230190 _ZN10gmshVertex29setPrescribedMeshSizeAtVertexEd
       3157  C54 00230790 _ZN10gmshVertex7writePYEP6_iobufRKNSt3__112basic_stringIcNS2_11char_traitsIcEENS2_9allocatorIcEEEE
       3158  C55 00230670 _ZN10gmshVertex8writeGEOEP6_iobufRKNSt3__112basic_stringIcNS2_11char_traitsIcEENS2_9allocatorIcEEEE
       3159  C56 00230900 _ZN10gmshVertexC1EP6GModelP6Vertex
       3160  C57 00230900 _ZN10gmshVertexC2EP6GModelP6Vertex
       3161  C58 00230980 _ZN10gmshVertexD0Ev
       3162  C59 006FCC40 _ZN10hexahedron11getNumEdgesEv
       3163  C5A 006FCBE0 _ZN10hexahedron11getNumNodesEv
       3164  C5B 006FCBD0 _ZN10hexahedron12getDimensionEv
       3165  C5C 006FCD70 _ZN10hexahedron13getGaussPointEiRdS0_S0_S0_
       3166  C5D 006FCDD0 _ZN10hexahedron16getShapeFunctionEidddRd
       3167  C5E 006FCD60 _ZN10hexahedron17getNumGaussPointsEv
       3168  C5F 006FCF70 _ZN10hexahedron20getGradShapeFunctionEidddPd
       3169  C60 006FCC50 _ZN10hexahedron7getEdgeEiRiS0_
       3170  C61 006FCBF0 _ZN10hexahedron7getNodeEiRdS0_S0_
       3171  C62 006FCAF0 _ZN10hexahedron8isInsideEddd
       3172  C63 006FCB80 _ZN10hexahedronD0Ev
       3173  C64 0050C000 _ZN10meshMetric10exportInfoEPKc
       3174  C65 00515980 _ZN10meshMetric11getGradientEP7MVertex
       3175  C66 00514C90 _ZN10meshMetric11scaleMetricEiRNSt3__13mapIP7MVertex8SMetric3NS0_4lessIS3_EENS0_9allocatorINS0_4pairIKS3_S4_EEEEEE
       3176  C67 00515800 _ZN10meshMetric12getLaplacianEP7MVertex
       3177  C68 00509D80 _ZN10meshMetric13computeMetricEi
       3178  C69 0050EBB0 _ZN10meshMetric13computeValuesEv
       3179  C6A 0050A8A0 _ZN10meshMetric13updateMetricsEv
       3180  C6B 0050F550 _ZN10meshMetric14computeHessianEv
       3181  C6C 00515B30 _ZN10meshMetric14getDescriptionEv
       3182  C6D 00512300 _ZN10meshMetric17computeMetricFreyEP7MVertexR8SMetric3S3_Rdddd
       3183  C6E 00511B40 _ZN10meshMetric20computeMetricHessianEP7MVertexR8SMetric3S3_Rdddd
       3184  C6F 00512E50 _ZN10meshMetric21computeMetricEigenDirEP7MVertexR8SMetric3S3_Rdddd
       3185  C70 00511110 _ZN10meshMetric21computeMetricLevelSetEP7MVertexR8SMetric3S3_Rdddd
       3186  C71 00514660 _ZN10meshMetric25computeMetricIsoLinInterpEP7MVertexR8SMetric3S3_Rdddd
       3187  C72 00515B20 _ZN10meshMetric7getNameEv
       3188  C73 00509AA0 _ZN10meshMetric9addMetricEiP14simpleFunctionIdERKNSt3__16vectorIdNS3_9allocatorIdEEEE
       3189  C74 00509480 _ZN10meshMetricC1ENSt3__16vectorIP8MElementNS0_9allocatorIS3_EEEE
       3190  C75 00508B90 _ZN10meshMetricC1EP6GModel
       3191  C76 00509480 _ZN10meshMetricC2ENSt3__16vectorIP8MElementNS0_9allocatorIS3_EEEE
       3192  C77 00508B90 _ZN10meshMetricC2EP6GModel
       3193  C78 00506F50 _ZN10meshMetricD0Ev
       3194  C79 0050E9F0 _ZN10meshMetricD1Ev
       3195  C7A 0050E9F0 _ZN10meshMetricD2Ev
       3196  C7B 00506F70 _ZN10meshMetricclEdddP7GEntity
       3197  C7C 005073C0 _ZN10meshMetricclEdddR8SMetric3P7GEntity
       3198  C7D 00132070 _ZN10nodalBasisC2Ei
       3199  C7E 001334A0 _ZN10nodalBasisD0Ev
       3200  C7F 001333B0 _ZN10nodalBasisD2Ev
       3201  C80 0052B110 _ZN10qmTriangle15NCJAndGradientsERK7SPoint3S2_S2_RK8SVector3RNSt3__16vectorIdNS6_9allocatorIdEEEESB_
       3202  C81 0052ADD0 _ZN10qmTriangle3NCJERK7SPoint3S2_S2_RK8SVector3RNSt3__16vectorIdNS6_9allocatorIdEEEE
       3203  C82 0052A1E0 _ZN10qmTriangle3etaEP9MTriangle
       3204  C83 00529F90 _ZN10qmTriangle5gammaEP8BDS_Face
       3205  C84 0052A000 _ZN10qmTriangle5gammaEP9MTriangle
       3206  C85 0052A100 _ZN10qmTriangle5gammaEPK7MVertexS2_S2_
       3207  C86 00529B30 _ZN10qmTriangle5gammaEPK9BDS_PointS2_S2_
       3208  C87 00529B90 _ZN10qmTriangle5gammaERKdS1_S1_S1_S1_S1_S1_S1_S1_
       3209  C88 0052A2D0 _ZN10qmTriangle6anglesEP9MTriangle
       3210  C89 0052A990 _ZN10qmTriangle8NCJRangeEPK9MTriangleRdS3_
       3211  C8A 006FC270 _ZN10quadrangle11getNumEdgesEv
       3212  C8B 006FC220 _ZN10quadrangle11getNumNodesEv
       3213  C8C 006FC210 _ZN10quadrangle12getDimensionEv
       3214  C8D 006FC310 _ZN10quadrangle13getGaussPointEiRdS0_S0_S0_
       3215  C8E 006FC510 _ZN10quadrangle13integrateFluxEPd
       3216  C8F 006FC360 _ZN10quadrangle16getShapeFunctionEidddRd
       3217  C90 006FC300 _ZN10quadrangle17getNumGaussPointsEv
       3218  C91 006FC420 _ZN10quadrangle20getGradShapeFunctionEidddPd
       3219  C92 006FC280 _ZN10quadrangle7getEdgeEiRiS0_
       3220  C93 006FC230 _ZN10quadrangle7getNodeEiRdS0_S0_
       3221  C94 006FC0E0 _ZN10quadrangle8isInsideEddd
       3222  C95 006FC1C0 _ZN10quadrangleD0Ev
       3223  C96 00CE26C0 _ZN10robin_hood6detail5TableILb1ELy80EN3QMT11CavityStartENS2_10StartStatsENS2_15CavityStartHashENSt3__18equal_toIS3_EEE11insert_moveEONS9_8DataNodeIS9_Lb1EEE
       3224  C97 00CE2170 _ZN10robin_hood6detail5TableILb1ELy80EN3QMT11CavityStartENS2_10StartStatsENS2_15CavityStartHashENSt3__18equal_toIS3_EEE13increase_sizeEv
       3225  C98 00CE2520 _ZN10robin_hood6detail5TableILb1ELy80EN3QMT11CavityStartENS2_10StartStatsENS2_15CavityStartHashENSt3__18equal_toIS3_EEE16rehashPowerOfTwoEyb
       3226  C99 00CE1F00 _ZN10robin_hood6detail5TableILb1ELy80EN3QMT11CavityStartENS2_10StartStatsENS2_15CavityStartHashENSt3__18equal_toIS3_EEE25insertKeyPrepareEmptySpotIRKS3_EENS6_4pairIyNS9_14InsertionStateEEEOT_
       3227  C9A 00CE23A0 _ZN10robin_hood6detail5TableILb1ELy80EN3QMT11CavityStartENS2_10StartStatsENS2_15CavityStartHashENSt3__18equal_toIS3_EEE7shiftUpEyy
       3228  C9B 00CEB0C0 _ZN10robin_hood6detail5TableILb1ELy80EN3QMT11CavityStartENS2_10StartStatsENS2_15CavityStartHashENSt3__18equal_toIS3_EEED2Ev
       3229  C9C 00CE1C50 _ZN10robin_hood6detail5TableILb1ELy80EN3QMT11CavityStartENS2_10StartStatsENS2_15CavityStartHashENSt3__18equal_toIS3_EEEixIS4_EENS6_9enable_ifIXntsr3std7is_voidIT_EE5valueERSC_E4typeERKS3_
       3230  C9D 00CEB1C0 _ZN10robin_hood6detail5TableILb1ELy80ENSt3__112basic_stringIcNS2_11char_traitsIcEENS2_9allocatorIcEEEEdNS_4hashIS8_vEENS2_8equal_toIS8_EEED2Ev
       3231  C9E 00CD9710 _ZN10robin_hood6detail5TableILb1ELy80ENSt3__15arrayIjLy2EEENS2_6vectorIP7MVertexNS2_9allocatorIS7_EEEEN3QMT7id2hashENS2_8equal_toIS4_EEE11insert_moveEONSF_8DataNodeISF_Lb1EEE
       3232  C9F 00CD9200 _ZN10robin_hood6detail5TableILb1ELy80ENSt3__15arrayIjLy2EEENS2_6vectorIP7MVertexNS2_9allocatorIS7_EEEEN3QMT7id2hashENS2_8equal_toIS4_EEE13increase_sizeEv
       3233  CA0 00CD9570 _ZN10robin_hood6detail5TableILb1ELy80ENSt3__15arrayIjLy2EEENS2_6vectorIP7MVertexNS2_9allocatorIS7_EEEEN3QMT7id2hashENS2_8equal_toIS4_EEE16rehashPowerOfTwoEyb
       3234  CA1 00CD8FC0 _ZN10robin_hood6detail5TableILb1ELy80ENSt3__15arrayIjLy2EEENS2_6vectorIP7MVertexNS2_9allocatorIS7_EEEEN3QMT7id2hashENS2_8equal_toIS4_EEE25insertKeyPrepareEmptySpotIRKS4_EENS2_4pairIyNSF_14InsertionStateEEEOT_
       3235  CA2 00CD9B10 _ZN10robin_hood6detail5TableILb1ELy80ENSt3__15arrayIjLy2EEENS2_6vectorIP7MVertexNS2_9allocatorIS7_EEEEN3QMT7id2hashENS2_8equal_toIS4_EEE7destroyEv
       3236  CA3 00CD9430 _ZN10robin_hood6detail5TableILb1ELy80ENSt3__15arrayIjLy2EEENS2_6vectorIP7MVertexNS2_9allocatorIS7_EEEEN3QMT7id2hashENS2_8equal_toIS4_EEE7shiftUpEyy
       3237  CA4 00CEA140 _ZN10robin_hood6detail5TableILb1ELy80ENSt3__15arrayIjLy2EEEjN3QMT7id2hashENS2_8equal_toIS4_EEE11insert_moveEONS9_8DataNodeIS9_Lb1EEE
       3238  CA5 00CE9D80 _ZN10robin_hood6detail5TableILb1ELy80ENSt3__15arrayIjLy2EEEjN3QMT7id2hashENS2_8equal_toIS4_EEE13increase_sizeEv
       3239  CA6 00CE9FB0 _ZN10robin_hood6detail5TableILb1ELy80ENSt3__15arrayIjLy2EEEjN3QMT7id2hashENS2_8equal_toIS4_EEE16rehashPowerOfTwoEyb
       3240  CA7 00CE9AA0 _ZN10robin_hood6detail5TableILb1ELy80ENSt3__15arrayIjLy2EEEjN3QMT7id2hashENS2_8equal_toIS4_EEE25insertKeyPrepareEmptySpotIRKS4_EENS2_4pairIyNS9_14InsertionStateEEEOT_
       3241  CA8 00CE0A10 _ZN10robin_hood6detail5TableILb1ELy80ENSt3__15arrayIjLy2EEEvN3QMT7id2hashENS2_8equal_toIS4_EEE11insert_moveEONS9_8DataNodeIS9_Lb1EEE
       3242  CA9 00CE0660 _ZN10robin_hood6detail5TableILb1ELy80ENSt3__15arrayIjLy2EEEvN3QMT7id2hashENS2_8equal_toIS4_EEE13increase_sizeEv
       3243  CAA 00CE0880 _ZN10robin_hood6detail5TableILb1ELy80ENSt3__15arrayIjLy2EEEvN3QMT7id2hashENS2_8equal_toIS4_EEE16rehashPowerOfTwoEyb
       3244  CAB 00CE03C0 _ZN10robin_hood6detail5TableILb1ELy80ENSt3__15arrayIjLy2EEEvN3QMT7id2hashENS2_8equal_toIS4_EEE25insertKeyPrepareEmptySpotIRKS4_EENS2_4pairIyNS9_14InsertionStateEEEOT_
       3245  CAC 00CDFA70 _ZN10robin_hood6detail5TableILb1ELy80EP11MQuadranglejNS_4hashIS3_vEENSt3__18equal_toIS3_EEE11insert_moveEONS9_8DataNodeIS9_Lb1EEE
       3246  CAD 00CDF6B0 _ZN10robin_hood6detail5TableILb1ELy80EP11MQuadranglejNS_4hashIS3_vEENSt3__18equal_toIS3_EEE13increase_sizeEv
       3247  CAE 00CDF8E0 _ZN10robin_hood6detail5TableILb1ELy80EP11MQuadranglejNS_4hashIS3_vEENSt3__18equal_toIS3_EEE16rehashPowerOfTwoEyb
       3248  CAF 00CDF460 _ZN10robin_hood6detail5TableILb1ELy80EP11MQuadranglejNS_4hashIS3_vEENSt3__18equal_toIS3_EEE25insertKeyPrepareEmptySpotIRKS3_EENS6_4pairIyNS9_14InsertionStateEEEOT_
       3249  CB0 00CEBAA0 _ZN10robin_hood6detail5TableILb1ELy80EP7GVertexNSt3__16vectorIP5GEdgeNS4_9allocatorIS7_EEEENS_4hashIS3_vEENS4_8equal_toIS3_EEE11insert_moveEONSF_8DataNodeISF_Lb1EEE
       3250  CB1 00CEB590 _ZN10robin_hood6detail5TableILb1ELy80EP7GVertexNSt3__16vectorIP5GEdgeNS4_9allocatorIS7_EEEENS_4hashIS3_vEENS4_8equal_toIS3_EEE13increase_sizeEv
       3251  CB2 00CEB900 _ZN10robin_hood6detail5TableILb1ELy80EP7GVertexNSt3__16vectorIP5GEdgeNS4_9allocatorIS7_EEEENS_4hashIS3_vEENS4_8equal_toIS3_EEE16rehashPowerOfTwoEyb
       3252  CB3 00CEB3C0 _ZN10robin_hood6detail5TableILb1ELy80EP7GVertexNSt3__16vectorIP5GEdgeNS4_9allocatorIS7_EEEENS_4hashIS3_vEENS4_8equal_toIS3_EEE25insertKeyPrepareEmptySpotIRKS3_EENS4_4pairIyNSF_14InsertionStateEEEOT_
       3253  CB4 00CEC8E0 _ZN10robin_hood6detail5TableILb1ELy80EP7GVertexNSt3__16vectorIP5GEdgeNS4_9allocatorIS7_EEEENS_4hashIS3_vEENS4_8equal_toIS3_EEE7destroyEv
       3254  CB5 00CEB7C0 _ZN10robin_hood6detail5TableILb1ELy80EP7GVertexNSt3__16vectorIP5GEdgeNS4_9allocatorIS7_EEEENS_4hashIS3_vEENS4_8equal_toIS3_EEE7shiftUpEyy
       3255  CB6 00D22D40 _ZN10robin_hood6detail5TableILb1ELy80EP7GVertexNSt3__16vectorIP8MElementNS4_9allocatorIS7_EEEENS_4hashIS3_vEENS4_8equal_toIS3_EEE11insert_moveEONSF_8DataNodeISF_Lb1EEE
       3256  CB7 00D22830 _ZN10robin_hood6detail5TableILb1ELy80EP7GVertexNSt3__16vectorIP8MElementNS4_9allocatorIS7_EEEENS_4hashIS3_vEENS4_8equal_toIS3_EEE13increase_sizeEv
       3257  CB8 00D22BA0 _ZN10robin_hood6detail5TableILb1ELy80EP7GVertexNSt3__16vectorIP8MElementNS4_9allocatorIS7_EEEENS_4hashIS3_vEENS4_8equal_toIS3_EEE16rehashPowerOfTwoEyb
       3258  CB9 00D23F30 _ZN10robin_hood6detail5TableILb1ELy80EP7GVertexNSt3__16vectorIP8MElementNS4_9allocatorIS7_EEEENS_4hashIS3_vEENS4_8equal_toIS3_EEE7destroyEv
       3259  CBA 00D22A60 _ZN10robin_hood6detail5TableILb1ELy80EP7GVertexNSt3__16vectorIP8MElementNS4_9allocatorIS7_EEEENS_4hashIS3_vEENS4_8equal_toIS3_EEE7shiftUpEyy
       3260  CBB 00D235F0 _ZN10robin_hood6detail5TableILb1ELy80EP7GVertexdNS_4hashIS3_vEENSt3__18equal_toIS3_EEE11insert_moveEONS9_8DataNodeIS9_Lb1EEE
       3261  CBC 00D23230 _ZN10robin_hood6detail5TableILb1ELy80EP7GVertexdNS_4hashIS3_vEENSt3__18equal_toIS3_EEE13increase_sizeEv
       3262  CBD 00D23460 _ZN10robin_hood6detail5TableILb1ELy80EP7GVertexdNS_4hashIS3_vEENSt3__18equal_toIS3_EEE16rehashPowerOfTwoEyb
       3263  CBE 00D22FE0 _ZN10robin_hood6detail5TableILb1ELy80EP7GVertexdNS_4hashIS3_vEENSt3__18equal_toIS3_EEE25insertKeyPrepareEmptySpotIRKS3_EENS6_4pairIyNS9_14InsertionStateEEEOT_
       3264  CBF 00D23C90 _ZN10robin_hood6detail5TableILb1ELy80EP7GVertexvNS_4hashIS3_vEENSt3__18equal_toIS3_EEE11insert_moveEONS9_8DataNodeIS9_Lb1EEE
       3265  CC0 00D238E0 _ZN10robin_hood6detail5TableILb1ELy80EP7GVertexvNS_4hashIS3_vEENSt3__18equal_toIS3_EEE13increase_sizeEv
       3266  CC1 00D23B00 _ZN10robin_hood6detail5TableILb1ELy80EP7GVertexvNS_4hashIS3_vEENSt3__18equal_toIS3_EEE16rehashPowerOfTwoEyb
       3267  CC2 00625EB0 _ZN10robin_hood6detail5TableILb1ELy80EP7MVertexNSt3__16vectorIP8MElementNS4_9allocatorIS7_EEEENS_4hashIS3_vEENS4_8equal_toIS3_EEE11insert_moveEONSF_8DataNodeISF_Lb1EEE
       3268  CC3 006259A0 _ZN10robin_hood6detail5TableILb1ELy80EP7MVertexNSt3__16vectorIP8MElementNS4_9allocatorIS7_EEEENS_4hashIS3_vEENS4_8equal_toIS3_EEE13increase_sizeEv
       3269  CC4 00625D10 _ZN10robin_hood6detail5TableILb1ELy80EP7MVertexNSt3__16vectorIP8MElementNS4_9allocatorIS7_EEEENS_4hashIS3_vEENS4_8equal_toIS3_EEE16rehashPowerOfTwoEyb
       3270  CC5 00625BD0 _ZN10robin_hood6detail5TableILb1ELy80EP7MVertexNSt3__16vectorIP8MElementNS4_9allocatorIS7_EEEENS_4hashIS3_vEENS4_8equal_toIS3_EEE7shiftUpEyy
       3271  CC6 00625850 _ZN10robin_hood6detail5TableILb1ELy80EP7MVertexNSt3__16vectorIP8MElementNS4_9allocatorIS7_EEEENS_4hashIS3_vEENS4_8equal_toIS3_EEE9shiftDownEy
       3272  CC7 00629210 _ZN10robin_hood6detail5TableILb1ELy80EP7MVertexNSt3__16vectorIP8MElementNS4_9allocatorIS7_EEEENS_4hashIS3_vEENS4_8equal_toIS3_EEED2Ev
       3273  CC8 006288C0 _ZN10robin_hood6detail5TableILb1ELy80EP7MVertexS3_NS_4hashIS3_vEENSt3__18equal_toIS3_EEE11insert_moveEONS9_8DataNodeIS9_Lb1EEE
       3274  CC9 00628500 _ZN10robin_hood6detail5TableILb1ELy80EP7MVertexS3_NS_4hashIS3_vEENSt3__18equal_toIS3_EEE13increase_sizeEv
       3275  CCA 00628730 _ZN10robin_hood6detail5TableILb1ELy80EP7MVertexS3_NS_4hashIS3_vEENSt3__18equal_toIS3_EEE16rehashPowerOfTwoEyb
       3276  CCB 006282B0 _ZN10robin_hood6detail5TableILb1ELy80EP7MVertexS3_NS_4hashIS3_vEENSt3__18equal_toIS3_EEE25insertKeyPrepareEmptySpotIRKS3_EENS6_4pairIyNS9_14InsertionStateEEEOT_
       3277  CCC 00624DE0 _ZN10robin_hood6detail5TableILb1ELy80EP7MVertexdNS_4hashIS3_vEENSt3__18equal_toIS3_EEE11insert_moveEONS9_8DataNodeIS9_Lb1EEE
       3278  CCD 006249E0 _ZN10robin_hood6detail5TableILb1ELy80EP7MVertexdNS_4hashIS3_vEENSt3__18equal_toIS3_EEE13increase_sizeEv
       3279  CCE 00624C10 _ZN10robin_hood6detail5TableILb1ELy80EP7MVertexdNS_4hashIS3_vEENSt3__18equal_toIS3_EEE16rehashPowerOfTwoEyb
       3280  CCF 00628F70 _ZN10robin_hood6detail5TableILb1ELy80EP7MVertexiNS_4hashIS3_vEENSt3__18equal_toIS3_EEE11insert_moveEONS9_8DataNodeIS9_Lb1EEE
       3281  CD0 00628BB0 _ZN10robin_hood6detail5TableILb1ELy80EP7MVertexiNS_4hashIS3_vEENSt3__18equal_toIS3_EEE13increase_sizeEv
       3282  CD1 00628DE0 _ZN10robin_hood6detail5TableILb1ELy80EP7MVertexiNS_4hashIS3_vEENSt3__18equal_toIS3_EEE16rehashPowerOfTwoEyb
       3283  CD2 00CE0120 _ZN10robin_hood6detail5TableILb1ELy80EP7MVertexjNS_4hashIS3_vEENSt3__18equal_toIS3_EEE11insert_moveEONS9_8DataNodeIS9_Lb1EEE
       3284  CD3 00CDFD60 _ZN10robin_hood6detail5TableILb1ELy80EP7MVertexjNS_4hashIS3_vEENSt3__18equal_toIS3_EEE13increase_sizeEv
       3285  CD4 00CDFF90 _ZN10robin_hood6detail5TableILb1ELy80EP7MVertexjNS_4hashIS3_vEENSt3__18equal_toIS3_EEE16rehashPowerOfTwoEyb
       3286  CD5 00CE1300 _ZN10robin_hood6detail5TableILb1ELy80EP7MVertexvNS_4hashIS3_vEENSt3__18equal_toIS3_EEE11insert_moveEONS9_8DataNodeIS9_Lb1EEE
       3287  CD6 00CE0F50 _ZN10robin_hood6detail5TableILb1ELy80EP7MVertexvNS_4hashIS3_vEENSt3__18equal_toIS3_EEE13increase_sizeEv
       3288  CD7 00CE1170 _ZN10robin_hood6detail5TableILb1ELy80EP7MVertexvNS_4hashIS3_vEENSt3__18equal_toIS3_EEE16rehashPowerOfTwoEyb
       3289  CD8 00CE0CF0 _ZN10robin_hood6detail5TableILb1ELy80EP7MVertexvNS_4hashIS3_vEENSt3__18equal_toIS3_EEE25insertKeyPrepareEmptySpotIRKS3_EENS6_4pairIyNS9_14InsertionStateEEEOT_
       3290  CD9 00CE54E0 _ZN10robin_hood6detail5TableILb1ELy80EjvNS_4hashIjvEENSt3__18equal_toIjEEE11insert_moveEONS7_8DataNodeIS7_Lb1EEE
       3291  CDA 00CE5130 _ZN10robin_hood6detail5TableILb1ELy80EjvNS_4hashIjvEENSt3__18equal_toIjEEE13increase_sizeEv
       3292  CDB 00CE5350 _ZN10robin_hood6detail5TableILb1ELy80EjvNS_4hashIjvEENSt3__18equal_toIjEEE16rehashPowerOfTwoEyb
       3293  CDC 00CE4F00 _ZN10robin_hood6detail5TableILb1ELy80EjvNS_4hashIjvEENSt3__18equal_toIjEEE25insertKeyPrepareEmptySpotIRKjEENS4_4pairIyNS7_14InsertionStateEEEOT_
       3294  CDD 00CE6790 _ZN10robin_hood6detail5TableILb1ELy80EjvNS_4hashIjvEENSt3__18equal_toIjEEEaSERKS7_
       3295  CDE 00CEACD0 _ZN10robin_hood6detail5TableILb1ELy80EyyNS_4hashIyvEENSt3__18equal_toIyEEE11insert_moveEONS7_8DataNodeIS7_Lb1EEE
       3296  CDF 00CEA910 _ZN10robin_hood6detail5TableILb1ELy80EyyNS_4hashIyvEENSt3__18equal_toIyEEE13increase_sizeEv
       3297  CE0 00CEAB40 _ZN10robin_hood6detail5TableILb1ELy80EyyNS_4hashIyvEENSt3__18equal_toIyEEE16rehashPowerOfTwoEyb
       3298  CE1 00CEA6C0 _ZN10robin_hood6detail5TableILb1ELy80EyyNS_4hashIyvEENSt3__18equal_toIyEEE25insertKeyPrepareEmptySpotIRKyEENS4_4pairIyNS7_14InsertionStateEEEOT_
       3299  CE2 00624DA0 _ZN10robin_hood6detail7doThrowISt9bad_allocJEEEvDpOT0_
       3300  CE3 00C74200 _ZN10tetgenmesh10carveholesEv
       3301  CE4 00C489E0 _ZN10tetgenmesh10facenormalEPdS0_S0_S0_iS0_
       3302  CE5 013EA1B0 _ZN10tetgenmesh10facepivot1E
       3303  CE6 013EA1E0 _ZN10tetgenmesh10facepivot2E
       3304  CE7 00C633A0 _ZN10tetgenmesh10flipshpushEPNS_4faceE
       3305  CE8 00C7F1D0 _ZN10tetgenmesh10freememoryEv
       3306  CE9 00C49D90 _ZN10tetgenmesh10incircle3dEPdS0_S0_S0_
       3307  CEA 00C44FE0 _ZN10tetgenmesh10inittablesEv
       3308  CEB 00C477D0 _ZN10tetgenmesh10insphere_sEPdS0_S0_S0_S0_
       3309  CEC 00C63410 _ZN10tetgenmesh10lawsonflipEv
       3310  CED 00C460F0 _ZN10tetgenmesh10memorypool13traversalinitEv
       3311  CEE 00C46010 _ZN10tetgenmesh10memorypool5allocEv
       3312  CEF 00C460E0 _ZN10tetgenmesh10memorypool7deallocEPv
       3313  CF0 00C45FD0 _ZN10tetgenmesh10memorypool7restartEv
       3314  CF1 00C45EE0 _ZN10tetgenmesh10memorypool8poolinitEiiii
       3315  CF2 00C46120 _ZN10tetgenmesh10memorypool8traverseEv
       3316  CF3 00C45E20 _ZN10tetgenmesh10memorypoolC1Eiiii
       3317  CF4 00C45E00 _ZN10tetgenmesh10memorypoolC1Ev
       3318  CF5 00C45E20 _ZN10tetgenmesh10memorypoolC2Eiiii
       3319  CF6 00C45E00 _ZN10tetgenmesh10memorypoolC2Ev
       3320  CF7 00C45FA0 _ZN10tetgenmesh10memorypoolD1Ev
       3321  CF8 00C45FA0 _ZN10tetgenmesh10memorypoolD2Ev
       3322  CF9 00C47A10 _ZN10tetgenmesh10orient4d_sEPdS0_S0_S0_S0_ddddd
       3323  CFA 013CCE60 _ZN10tetgenmesh10sapexpivotE
       3324  CFB 013CCE40 _ZN10tetgenmesh10sdestpivotE
       3325  CFC 013CCE00 _ZN10tetgenmesh10snextpivotE
       3326  CFD 013EA780 _ZN10tetgenmesh10stpivottblE
       3327  CFE 013EA660 _ZN10tetgenmesh10tspivottblE
       3328  CFF 013E9F10 _ZN10tetgenmesh11eorgoppotblE
       3329  D00 00C57A30 _ZN10tetgenmesh11flipnm_postEPNS_7trifaceEiiiPNS_15flipconstraintsE
       3330  D01 00C57F70 _ZN10tetgenmesh11insertpointEPdPNS_7trifaceEPNS_4faceES4_PNS_17insertvertexflagsE
       3331  D02 00C4C320 _ZN10tetgenmesh11linelineintEPdS0_S0_S0_S0_S0_S0_S0_
       3332  D03 00C67E90 _ZN10tetgenmesh11mergefacetsEv
       3333  D04 00C4BEE0 _ZN10tetgenmesh11orthosphereEPdS0_S0_S0_ddddS0_S0_
       3334  D05 00C4A7C0 _ZN10tetgenmesh11projpt2edgeEPdS0_S0_S0_
       3335  D06 00C4A900 _ZN10tetgenmesh11projpt2faceEPdS0_S0_S0_S0_
       3336  D07 00C65E20 _ZN10tetgenmesh11scarveholesEiPd
       3337  D08 00C6A5C0 _ZN10tetgenmesh11smoothpointEPdPNS_9arraypoolEiPNS_13optparametersE
       3338  D09 00C7B350 _ZN10tetgenmesh11splitsliverEPNS_7trifaceEdi
       3339  D0A 00C4C5D0 _ZN10tetgenmesh11tetprismvolEPdS0_S0_S0_
       3340  D0B 00C47C10 _ZN10tetgenmesh11tri_edge_2dEPdS0_S0_S0_S0_S0_iPiS1_
       3341  D0C 00C49F90 _ZN10tetgenmesh12circumsphereEPdS0_S0_S0_S0_S0_
       3342  D0D 013E9F40 _ZN10tetgenmesh12edestoppotblE
       3343  D0E 013E9EB0 _ZN10tetgenmesh12enextesymtblE
       3344  D0F 013E9EE0 _ZN10tetgenmesh12eprevesymtblE
       3345  D10 00C60950 _ZN10tetgenmesh12hilbert_initEi
       3346  D11 00C78000 _ZN10tetgenmesh12lawsonflip3dEPNS_15flipconstraintsE
       3347  D12 00C7C330 _ZN10tetgenmesh12optimizemeshEv
       3348  D13 00C4A520 _ZN10tetgenmesh12orient3dfastEPdS0_S0_S0_
       3349  D14 00C4C1D0 _ZN10tetgenmesh12planelineintEPdS0_S0_S0_S0_S0_S0_
       3350  D15 00C46AB0 _ZN10tetgenmesh12pointdeallocEPd
       3351  D16 00C608A0 _ZN10tetgenmesh12randomnationEj
       3352  D17 00C5E1B0 _ZN10tetgenmesh12randomsampleEPdPNS_7trifaceE
       3353  D18 00C4B2F0 _ZN10tetgenmesh12tetallnormalEPdS0_S0_S0_PA3_dS0_
       3354  D19 00C60400 _ZN10tetgenmesh13finddirectionEPNS_7trifaceEPd
       3355  D1A 00C6DDB0 _ZN10tetgenmesh13getvertexstarEiPdPNS_9arraypoolES2_S2_
       3356  D1B 00C60C90 _ZN10tetgenmesh13hilbert_sort3EPPdiiiddddddi
       3357  D1C 00C60AE0 _ZN10tetgenmesh13hilbert_splitEPPdiiidddddd
       3358  D1D 00C4A5F0 _ZN10tetgenmesh13interiorangleEPdS0_S0_S0_
       3359  D1E 00C7CA70 _ZN10tetgenmesh13jettisonnodesEv
       3360  D1F 00C46BD0 _ZN10tetgenmesh13makeshellfaceEPNS_10memorypoolEPNS_4faceE
       3361  D20 00C46310 _ZN10tetgenmesh13pointtraverseEv
       3362  D21 00C7B910 _ZN10tetgenmesh13removesliversEi
       3363  D22 00C4A2D0 _ZN10tetgenmesh13shortdistanceEPdS0_S0_
       3364  D23 00C5ECD0 _ZN10tetgenmesh13sinsertvertexEPdPNS_4faceES2_iii
       3365  D24 00C63C50 _ZN10tetgenmesh13sremovevertexEPdPNS_4faceES2_i
       3366  D25 00C65440 _ZN10tetgenmesh13sscoutsegmentEPNS_4faceEPdiii
       3367  D26 00C48C70 _ZN10tetgenmesh13tri_edge_tailEPdS0_S0_S0_S0_S0_ddiPiS1_
       3368  D27 00C490C0 _ZN10tetgenmesh13tri_edge_testEPdS0_S0_S0_S0_S0_iPiS1_
       3369  D28 00C49240 _ZN10tetgenmesh13tri_tri_interEPdS0_S0_S0_S0_S0_
       3370  D29 00C66770 _ZN10tetgenmesh13unifysegmentsEv
       3371  D2A 00C50250 _ZN10tetgenmesh14enqueuesubfaceEPNS_10memorypoolEPNS_4faceE
       3372  D2B 00C79BD0 _ZN10tetgenmesh14gettetrahedronEPdS0_S0_S0_PNS_7trifaceE
       3373  D2C 00C4AA40 _ZN10tetgenmesh14tetalldihedralEPdS0_S0_S0_S0_S0_S0_
       3374  D2D 00C4B720 _ZN10tetgenmesh14tetaspectratioEPdS0_S0_S0_
       3375  D2E 00C61390 _ZN10tetgenmesh15incrementalflipEPdiPNS_15flipconstraintsE
       3376  D2F 00C61FD0 _ZN10tetgenmesh15initialdelaunayEPdS0_S0_S0_
       3377  D30 00C46DC0 _ZN10tetgenmesh15initializepoolsEv
       3378  D31 00C46AE0 _ZN10tetgenmesh15maketetrahedronEPNS_7trifaceE
       3379  D32 00C7CC90 _ZN10tetgenmesh15reconstructmeshEPvd
       3380  D33 00C72CD0 _ZN10tetgenmesh15recoverboundaryERl
       3381  D34 00C78D40 _ZN10tetgenmesh15recoverdelaunayEv
       3382  D35 00C6C010 _ZN10tetgenmesh15recoversegmentsEPNS_9arraypoolEii
       3383  D36 00C6CC60 _ZN10tetgenmesh15recoversubfacesEPNS_9arraypoolEi
       3384  D37 00C463A0 _ZN10tetgenmesh16makepoint2submapEPNS_10memorypoolERPiRPNS_4faceE
       3385  D38 00C46A90 _ZN10tetgenmesh16shellfacedeallocEPNS_10memorypoolEPPPd
       3386  D39 00C5EB50 _ZN10tetgenmesh17insertpoint_abortEPNS_4faceEPNS_17insertvertexflagsE
       3387  D3A 00C68C00 _ZN10tetgenmesh17removeedgebyflipsEPNS_7trifaceEPNS_15flipconstraintsE
       3388  D3B 00C68EB0 _ZN10tetgenmesh17removefacebyflipsEPNS_7trifaceEPNS_15flipconstraintsE
       3389  D3C 00C468B0 _ZN10tetgenmesh17shellfacetraverseEPNS_10memorypoolE
       3390  D3D 00C50290 _ZN10tetgenmesh18enqueuetetrahedronEPNS_7trifaceE
       3391  D3E 00C67900 _ZN10tetgenmesh18identifyinputedgesEPPd
       3392  D3F 00C46170 _ZN10tetgenmesh18makeindex2pointmapERPPd
       3393  D40 00C69060 _ZN10tetgenmesh18recoveredgebyflipsEPdS0_PNS_4faceEPNS_7trifaceEi
       3394  D41 00C6C4E0 _ZN10tetgenmesh18recoverfacebyflipsEPdS0_S0_PNS_4faceEPNS_7trifaceE
       3395  D42 00C46920 _ZN10tetgenmesh18tetrahedrondeallocEPPPd
       3396  D43 00C4C5E0 _ZN10tetgenmesh19calculateabovepointEPNS_9arraypoolEPPdS3_S3_
       3397  D44 00C62600 _ZN10tetgenmesh19incrementaldelaunayERl
       3398  D45 00C6E910 _ZN10tetgenmesh19reduceedgesatvertexEPdPNS_9arraypoolE
       3399  D46 00C6EB40 _ZN10tetgenmesh19removevertexbyflipsEPd
       3400  D47 00C4CDB0 _ZN10tetgenmesh19report_selfint_edgeEPdS0_PNS_4faceEPNS_7trifaceENS_11interresultE
       3401  D48 00C4DC10 _ZN10tetgenmesh19report_selfint_faceEPdS0_S0_PNS_4faceEPNS_7trifaceEiPiS5_
       3402  D49 00C46980 _ZN10tetgenmesh19tetrahedrontraverseEv
       3403  D4A 00C49190 _ZN10tetgenmesh19tri_edge_inter_tailEPdS0_S0_S0_S0_dd
       3404  D4B 00C612B0 _ZN10tetgenmesh20brio_multiscale_sortEPPdiidPi
       3405  D4C 00C4C9F0 _ZN10tetgenmesh20calculateabovepoint4EPdS0_S0_S0_
       3406  D4D 00C57320 _ZN10tetgenmesh20checkflipeligibilityEiPdS0_S0_S0_S0_iiPNS_15flipconstraintsE
       3407  D4E 00C79CE0 _ZN10tetgenmesh21improvequalitybyflipsEv
       3408  D4F 00C726D0 _ZN10tetgenmesh21suppresssteinerpointsEv
       3409  D50 00C46A20 _ZN10tetgenmesh22alltetrahedrontraverseEv
       3410  D51 00C6AE00 _ZN10tetgenmesh24add_steinerpt_in_segmentEPNS_4faceEi
       3411  D52 00C70400 _ZN10tetgenmesh24suppressbdrysteinerpointEPd
       3412  D53 00C6B7A0 _ZN10tetgenmesh25addsteiner4recoversegmentEPNS_4faceEi
       3413  D54 00C7A9D0 _ZN10tetgenmesh25improvequalitybysmoothingEPNS_13optparametersE
       3414  D55 00C4CBB0 _ZN10tetgenmesh25report_overlapping_facetsEPNS_4faceES1_d
       3415  D56 013CCE78 _ZN10tetgenmesh2PIE
       3416  D57 00C69AF0 _ZN10tetgenmesh32add_steinerpt_in_schoenhardtpolyEPNS_7trifaceEii
       3417  D58 013CCDD0 _ZN10tetgenmesh6epivotE
       3418  D59 00C52740 _ZN10tetgenmesh6flip22EPNS_4faceEii
       3419  D5A 00C4E380 _ZN10tetgenmesh6flip23EPNS_7trifaceEiPNS_15flipconstraintsE
       3420  D5B 00C54E30 _ZN10tetgenmesh6flip31EPNS_4faceEi
       3421  D5C 00C50350 _ZN10tetgenmesh6flip32EPNS_7trifaceEiPNS_15flipconstraintsE
       3422  D5D 00C53030 _ZN10tetgenmesh6flip41EPNS_7trifaceEiPNS_15flipconstraintsE
       3423  D5E 00C55540 _ZN10tetgenmesh6flipnmEPNS_7trifaceEiiiPNS_15flipconstraintsE
       3424  D5F 00C5E680 _ZN10tetgenmesh6locateEPdPNS_7trifaceEi
       3425  D60 013E9C10 _ZN10tetgenmesh7bondtblE
       3426  D61 013CCC90 _ZN10tetgenmesh7esymtblE
       3427  D62 00C7F0B0 _ZN10tetgenmesh7farsorgERNS_4faceE
       3428  D63 013E9F70 _ZN10tetgenmesh7fsymtblE
       3429  D64 00C56DB0 _ZN10tetgenmesh7getedgeEPdS0_PNS_7trifaceE
       3430  D65 00C635C0 _ZN10tetgenmesh7slocateEPdPNS_4faceEiii
       3431  D66 00C4A470 _ZN10tetgenmesh7triareaEPdS0_S0_
       3432  D67 013CCDB0 _ZN10tetgenmesh8edge2verE
       3433  D68 013E9E50 _ZN10tetgenmesh8enexttblE
       3434  D69 013E9E80 _ZN10tetgenmesh8eprevtblE
       3435  D6A 00C7F140 _ZN10tetgenmesh8farsdestERNS_4faceE
       3436  D6B 00C502E0 _ZN10tetgenmesh8flippushERPNS_7badfaceEPNS_7trifaceE
       3437  D6C 00C49700 _ZN10tetgenmesh8lu_decmpEPA4_diPiPdi
       3438  D6D 00C49BF0 _ZN10tetgenmesh8lu_solveEPA4_diPiPdi
       3439  D6E 013CCCC0 _ZN10tetgenmesh8orgpivotE
       3440  D6F 013CCD80 _ZN10tetgenmesh8ver2edgeE
       3441  D70 013CCD20 _ZN10tetgenmesh9apexpivotE
       3442  D71 00C45D70 _ZN10tetgenmesh9arraypool6lookupEi
       3443  D72 00C45AD0 _ZN10tetgenmesh9arraypool7restartEv
       3444  D73 00C45BD0 _ZN10tetgenmesh9arraypool8getblockEi
       3445  D74 00C45DB0 _ZN10tetgenmesh9arraypool8newindexEPPv
       3446  D75 00C45AE0 _ZN10tetgenmesh9arraypool8poolinitEii
       3447  D76 00C45B20 _ZN10tetgenmesh9arraypoolC1Eii
       3448  D77 00C45B20 _ZN10tetgenmesh9arraypoolC2Eii
       3449  D78 00C45B60 _ZN10tetgenmesh9arraypoolD1Ev
       3450  D79 00C45B60 _ZN10tetgenmesh9arraypoolD2Ev
       3451  D7A 013CCCF0 _ZN10tetgenmesh9destpivotE
       3452  D7B 00C46CC0 _ZN10tetgenmesh9makepointEPPdNS_8verttypeE
       3453  D7C 013CCD50 _ZN10tetgenmesh9oppopivotE
       3454  D7D 013CCE20 _ZN10tetgenmesh9sorgpivotE
       3455  D7E 013EA540 _ZN10tetgenmesh9stbondtblE
       3456  D7F 013EA420 _ZN10tetgenmesh9tsbondtblE
       3457  D80 007EF230 _ZN11ANNkd_split10ann_searchEd
       3458  D81 007EE690 _ZN11ANNkd_split13ann_FR_searchEd
       3459  D82 007EECF0 _ZN11ANNkd_split14ann_pri_searchEd
       3460  D83 007ED7F0 _ZN11ANNkd_split4dumpERNSt3__113basic_ostreamIcNS0_11char_traitsIcEEEE
       3461  D84 007F0500 _ZN11ANNkd_split5printEiRNSt3__113basic_ostreamIcNS0_11char_traitsIcEEEE
       3462  D85 007F03B0 _ZN11ANNkd_split8getStatsEiR10ANNkdStatsR11ANNorthRect
       3463  D86 007F0E50 _ZN11ANNkd_splitD0Ev
       3464  D87 007F0DF0 _ZN11ANNkd_splitD2Ev
       3465  D88 007EBD50 _ZN11ANNorthRect6insideEiPd
       3466  D89 007ED130 _ZN11ANNorthRectD2Ev
       3467  D8A 00140060 _ZN11BergotBasisC1Eib
       3468  D8B 00140060 _ZN11BergotBasisC2Eib
       3469  D8C 00140050 _ZN11BergotBasisD0Ev
       3470  D8D 001400A0 _ZN11BergotBasisD1Ev
       3471  D8E 001400A0 _ZN11BergotBasisD2Ev
       3472  D8F 003CAB60 _ZN11CellComplex10insertCellEP4Cell
       3473  D90 003CA430 _ZN11CellComplex10removeCellEP4Cellbb
       3474  D91 003CAD80 _ZN11CellComplex11coreductionEP4CelliRNSt3__16vectorIS1_NS2_9allocatorIS1_EEEE
       3475  D92 003CB6F0 _ZN11CellComplex11coreductionEiiRNSt3__16vectorIP4CellNS0_9allocatorIS3_EEEE
       3476  D93 003CA3E0 _ZN11CellComplex11getNumCellsEii
       3477  D94 003CEDA0 _ZN11CellComplex11loadComplexERKNSt3__112basic_stringIcNS0_11char_traitsIcEENS0_9allocatorIcEEEE
       3478  D95 003CCE60 _ZN11CellComplex11removeCellsEi
       3479  D96 003CED90 _ZN11CellComplex11saveComplexERKNSt3__112basic_stringIcNS0_11char_traitsIcEENS0_9allocatorIcEEEE
       3480  D97 003C9190 _ZN11CellComplex12_insertCellsERNSt3__16vectorIP8MElementNS0_9allocatorIS3_EEEEi
       3481  D98 003C9960 _ZN11CellComplex12_removeCellsERNSt3__16vectorIP8MElementNS0_9allocatorIS3_EEEEi
       3482  D99 003CABD0 _ZN11CellComplex12enqueueCellsERNSt3__13mapIP4Cells15CellPtrLessThanNS0_9allocatorINS0_4pairIKS3_sEEEEEERNS0_5queueIS3_NS0_5dequeIS3_NS5_IS3_EEEEEERNS0_3setIS3_S4_SE_EE
       3483  D9A 003CEC50 _ZN11CellComplex12printComplexEi
       3484  D9B 003CBEE0 _ZN11CellComplex13reduceComplexEibb
       3485  D9C 003CA2C0 _ZN11CellComplex14_immunizeCellsERNSt3__16vectorIP8MElementNS0_9allocatorIS3_EEEE
       3486  D9D 003CEA20 _ZN11CellComplex14restoreComplexEv
       3487  D9E 003CD0D0 _ZN11CellComplex15coreduceComplexEibi
       3488  D9F 003CC420 _ZN11CellComplex15removeSubdomainEv
       3489  DA0 003CE740 _ZN11CellComplex18bettiReduceComplexEv
       3490  DA1 003CC6B0 _ZN11CellComplex7combineEi
       3491  DA2 003C9900 _ZN11CellComplex7getSizeEib
       3492  DA3 003CD9B0 _ZN11CellComplex7hasCellEP4Cellb
       3493  DA4 003CE2A0 _ZN11CellComplex8coherentEv
       3494  DA5 003CE890 _ZN11CellComplex8getACellEii
       3495  DA6 003CE790 _ZN11CellComplex8getCellsERNSt3__13setIP4Cell15CellPtrLessThanNS0_9allocatorIS3_EEEEii
       3496  DA7 003CBB30 _ZN11CellComplex9_omitCellEP4Cellb
       3497  DA8 013C0EA8 _ZN11CellComplex9_patienceE
       3498  DA9 003CDAC0 _ZN11CellComplex9cocombineEi
       3499  DAA 003CBAC0 _ZN11CellComplex9getDomainEP4CellRNSt3__112basic_stringIcNS2_11char_traitsIcEENS2_9allocatorIcEEEE
       3500  DAB 003CB310 _ZN11CellComplex9reductionEiiRNSt3__16vectorIP4CellNS0_9allocatorIS3_EEEE
       3501  DAC 003C8BD0 _ZN11CellComplexC1EP6GModelRNSt3__16vectorIP8MElementNS2_9allocatorIS5_EEEES9_S9_S9_S9_b
       3502  DAD 003C8BD0 _ZN11CellComplexC2EP6GModelRNSt3__16vectorIP8MElementNS2_9allocatorIS5_EEEES9_S9_S9_S9_b
       3503  DAE 003CA780 _ZN11CellComplexD1Ev
       3504  DAF 003CA780 _ZN11CellComplexD2Ev
       3505  DB0 00893620 _ZN11DI_Triangle15computeIntegralEv
       3506  DB1 008AA130 _ZN11DI_Triangle3cutEPK10DI_ElementRKNSt3__16vectorIP9gLevelsetNS3_9allocatorIS6_EEEERNS4_IP7DI_QuadNS7_ISD_EEEERNS4_IPS_NS7_ISH_EEEERNS4_IP7DI_LineNS7_ISM_EEEERNS4_IP15DI_CuttingPointNS7_ISR_EEEE
       3507  DB2 008B6B80 _ZN11DI_TriangleC2EPK8DI_PointS2_S2_i
       3508  DB3 003BD890 _ZN11DI_TriangleC2Eddddddddd
       3509  DB4 008B9960 _ZN11DI_TriangleC2Edddddddddd
       3510  DB5 008B6310 _ZN11DI_TriangleD0Ev
       3511  DB6 0005F990 _ZN11ElementDataILi3EEC2EPdS1_S1_P8SVector3PhS4_S4_S4_P8MElement
       3512  DB7 00182E70 _ZN11ElementType12getDimensionEi
       3513  DB8 001828B0 _ZN11ElementType13getParentTypeEi
       3514  DB9 00183100 _ZN11ElementType14getNumVerticesEi
       3515  DBA 00183FA0 _ZN11ElementType14getPrimaryTypeEi
       3516  DBB 00183690 _ZN11ElementType14getSerendipityEi
       3517  DBC 00183FF0 _ZN11ElementType16nameOfParentTypeEib
       3518  DBD 00183910 _ZN11ElementType7getTypeEiib
       3519  DBE 00182BA0 _ZN11ElementType8getOrderEi
       3520  DBF 005B7240 _ZN11ExtendField14getDescriptionEv
       3521  DC0 005B7290 _ZN11ExtendField15recomputeCurvesEv
       3522  DC1 005B7820 _ZN11ExtendField17recomputeSurfacesEv
       3523  DC2 005B7230 _ZN11ExtendField7getNameEv
       3524  DC3 005B62C0 _ZN11ExtendFieldC2Ev
       3525  DC4 005B6E40 _ZN11ExtendFieldD0Ev
       3526  DC5 005B6BE0 _ZN11ExtendFieldD2Ev
       3527  DC6 005B6E60 _ZN11ExtendFieldclEdddP7GEntity
       3528  DC7 00003FB0 _ZN11FieldOption10listdoubleENSt3__14listIdNS0_9allocatorIdEEEE
       3529  DC8 00003E80 _ZN11FieldOption14getDescriptionEv
       3530  DC9 00003EA0 _ZN11FieldOption14numericalValueEd
       3531  DCA 00003FA0 _ZN11FieldOption4listENSt3__14listIiNS0_9allocatorIiEEEE
       3532  DCB 00004020 _ZN11FieldOption6stringENSt3__112basic_stringIcNS0_11char_traitsIcEENS0_9allocatorIcEEEE
       3533  DCC 00004000 _ZN11FieldOptionD0Ev
       3534  DCD 00004FD0 _ZN11FieldOptionD2Ev
       3535  DCE 013D7E90 _ZN11Frame_field10crossFieldE
       3536  DCF 009BFB00 _ZN11Frame_field10initRegionEP7GRegioni
       3537  DD0 009BFF10 _ZN11Frame_field10smoothFaceEP5GFacei
       3538  DD1 009B8E20 _ZN11Frame_field11init_regionEP7GRegion
       3539  DD2 009C70D0 _ZN11Frame_field11save_energyEP7GRegionRKNSt3__112basic_stringIcNS2_11char_traitsIcEENS2_9allocatorIcEEEE
       3540  DD3 009BD9B0 _ZN11Frame_field12buildAnnDataEP7GEntityi
       3541  DD4 009BF730 _ZN11Frame_field12checkAnnDataEP7GEntityRKNSt3__112basic_stringIcNS2_11char_traitsIcEENS2_9allocatorIcEEEE
       3542  DD5 009BDBD0 _ZN11Frame_field12findAnnIndexERK7SPoint3
       3543  DD6 013D7E78 _ZN11Frame_field12listVerticesE
       3544  DD7 009BAE10 _ZN11Frame_field12print_field1Ev
       3545  DD8 009BB240 _ZN11Frame_field12print_field2EP7GRegion
       3546  DD9 009C4C80 _ZN11Frame_field12smoothRegionEP7GRegioni
       3547  DDA 009BDB70 _ZN11Frame_field13deleteAnnDataEv
       3548  DDB 009BACB0 _ZN11Frame_field13print_segmentERK7SPoint3S2_ddRNSt3__114basic_ofstreamIcNS3_11char_traitsIcEEEE
       3549  DDC 009C01F0 _ZN11Frame_field14findBarycenterENSt3__120__map_const_iteratorINS0_21__tree_const_iteratorINS0_12__value_typeIP7MVertexNS0_3setIS5_NS0_4lessIS5_EENS0_9allocatorIS5_EEEEEEPNS0_11__tree_nodeISC_PvEExEEEER8STensor3
       3550  DDD 009C67B0 _ZN11Frame_field14saveCrossFieldERKNSt3__112basic_stringIcNS0_11char_traitsIcEENS0_9allocatorIcEEEEdb
       3551  DDE 009C0DA0 _ZN11Frame_field15buildSmoothnessEv
       3552  DDF 009BD4E0 _ZN11Frame_field18build_listVerticesEP7GEntityib
       3553  DE0 009C5430 _ZN11Frame_field18recur_connect_vertEP6_iobufiP7MVertexR8STensor3RNSt3__18multimapIS3_S3_NS6_4lessIS3_EENS6_9allocatorINS6_4pairIKS3_S3_EEEEEERNS6_3setIS3_S9_NSA_IS3_EEEE
       3554  DE1 013D7E60 _ZN11Frame_field18vertex_to_elementsE
       3555  DE2 013D7E48 _ZN11Frame_field18vertex_to_verticesE
       3556  DE3 009C61D0 _ZN11Frame_field20continuousCrossFieldEP7GRegionP5GFace
       3557  DE4 013D7EC0 _ZN11Frame_field20crossFieldSmoothnessE
       3558  DE5 009BCAE0 _ZN11Frame_field24build_vertex_to_elementsEP7GEntityb
       3559  DE6 009BBE40 _ZN11Frame_field24build_vertex_to_verticesEP7GEntityib
       3560  DE7 009C4D80 _ZN11Frame_field4saveERKNSt3__16vectorINS0_4pairI7SPoint38STensor3EENS0_9allocatorIS5_EEEERKNS0_12basic_stringIcNS0_11char_traitsIcEENS6_IcEEEE
       3561  DE8 009BBC50 _ZN11Frame_field4testEv
       3562  DE9 009BBC70 _ZN11Frame_field5clearEv
       3563  DEA 013D7E08 _ZN11Frame_field5fieldE
       3564  DEB 013D7E20 _ZN11Frame_field6labelsE
       3565  DEC 009BA400 _ZN11Frame_field6searchEddd
       3566  DED 009C47E0 _ZN11Frame_field6smoothEv
       3567  DEE 013D7E40 _ZN11Frame_field7annTreeE
       3568  DEF 009BA630 _ZN11Frame_field7combineEddd
       3569  DF0 013D7E38 _ZN11Frame_field7kd_treeE
       3570  DF1 009BDC80 _ZN11Frame_field8initFaceEP5GFace
       3571  DF2 013D7EA8 _ZN11Frame_field9crossDistE
       3572  DF3 009C0020 _ZN11Frame_field9findCrossEddd
       3573  DF4 009B9EC0 _ZN11Frame_field9init_faceEP5GFace
       3574  DF5 009C6C90 _ZN11Frame_field9save_distERKNSt3__112basic_stringIcNS0_11char_traitsIcEENS0_9allocatorIcEEEE
       3575  DF6 009B8E10 _ZN11Frame_fieldC1Ev
       3576  DF7 009B8E10 _ZN11Frame_fieldC2Ev
       3577  DF8 007012F0 _ZN11GMSH_Plugin12getOptionStrEi
       3578  DF9 00700D60 _ZN11GMSH_Plugin15setDrawFunctionEPFvPvE
       3579  DFA 013D49B8 _ZN11GMSH_Plugin4drawE
       3580  DFB 007012D0 _ZN11GMSH_Plugin9getOptionEi
       3581  DFC 00700D70 _ZN11GMSH_Plugin9serializeEv
       3582  DFD 00701210 _ZN11GMSH_PluginD0Ev
       3583  DFE 00701200 _ZN11GMSH_PluginD2Ev
       3584  DFF 001873C0 _ZN11HilbertSort15ComputeGrayCodeEi
       3585  E00 00188170 _ZN11HilbertSort21MultiscaleSortHilbertEPP7MVertexiidPi
       3586  E01 001877C0 _ZN11HilbertSort4SortEPP7MVertexiiiddddddi
       3587  E02 00187F00 _ZN11HilbertSort5ApplyERNSt3__16vectorIP7MVertexNS0_9allocatorIS3_EEEE
       3588  E03 00187550 _ZN11HilbertSort5SplitEPP7MVertexiiidddddd
       3589  E04 00187DE0 _ZN11HilbertSortC2Eii
       3590  E05 0067ABC0 _ZN11LagMultTermD0Ev
       3591  E06 0066D540 _ZN11LaplaceTermIddED0Ev
       3592  E07 005B2440 _ZN11LonLatField14getDescriptionEv
       3593  E08 005B2430 _ZN11LonLatField7getNameEv
       3594  E09 005B1C10 _ZN11LonLatFieldC2Ev
       3595  E0A 005B22A0 _ZN11LonLatFieldD0Ev
       3596  E0B 005B22C0 _ZN11LonLatFieldclEdddP7GEntity
       3597  E0C 000C8150 _ZN11MEdgeVertex12setParameterEid
       3598  E0D 000C8080 _ZN11MEdgeVertexD0Ev
       3599  E0E 000C8000 _ZN11MEdgeVertexD2Ev
       3600  E0F 000C82B0 _ZN11MFaceVertex12setParameterEid
       3601  E10 000C81F0 _ZN11MFaceVertexD0Ev
       3602  E11 000C8170 _ZN11MFaceVertexD2Ev
       3603  E12 00393EF0 _ZN11MHexahedron10getEdgeRepEbiPdS0_S0_P8SVector3
       3604  E13 003941F0 _ZN11MHexahedron10getFaceRepEbiPdS0_S0_P8SVector3
       3605  E14 003963C0 _ZN11MHexahedron11getNumFacesEv
       3606  E15 00396370 _ZN11MHexahedron12getEdgeSolinEi
       3607  E16 00396430 _ZN11MHexahedron12getFaceSolinEi
       3608  E17 003962E0 _ZN11MHexahedron12getVertexNEUEi
       3609  E18 003962C0 _ZN11MHexahedron13getVertexDIFFEi
       3610  E19 003944E0 _ZN11MHexahedron13getVolumeSignEv
       3611  E1A 00394260 _ZN11MHexahedron14getInnerRadiusEv
       3612  E1B 003963B0 _ZN11MHexahedron14getNumEdgesRepEb
       3613  E1C 003941E0 _ZN11MHexahedron14getNumFacesRepEb
       3614  E1D 00394250 _ZN11MHexahedron17angleShapeMeasureEv
       3615  E1E 003945B0 _ZN11MHexahedron20getIntegrationPointsEiPiPP5IntPt
       3616  E1F 003965E0 _ZN11MHexahedron7reverseEv
       3617  E20 003962A0 _ZN11MHexahedron9getVertexEi
       3618  E21 003962B0 _ZN11MHexahedron9setVertexEiP7MVertex
       3619  E22 000C97C0 _ZN11MHexahedronC2ERKNSt3__16vectorIP7MVertexNS0_9allocatorIS3_EEEEii
       3620  E23 00396260 _ZN11MHexahedronD0Ev
       3621  E24 003A0720 _ZN11MLineBorder20getIntegrationPointsEiPiPP5IntPt
       3622  E25 003BC3C0 _ZN11MLineBorder9setDomainEP8MElementi
       3623  E26 003BC370 _ZN11MLineBorderD0Ev
       3624  E27 003BB8D0 _ZN11MPolyhedron10getEdgeRepEbiPdS0_S0_P8SVector3
       3625  E28 003BBC20 _ZN11MPolyhedron10getFaceRepEbiPdS0_S0_P8SVector3
       3626  E29 003BBBB0 _ZN11MPolyhedron11getNumFacesEv
       3627  E2A 003BB8B0 _ZN11MPolyhedron14getNumEdgesRepEb
       3628  E2B 003BBC00 _ZN11MPolyhedron14getNumFacesRepEb
       3629  E2C 003BC060 _ZN11MPolyhedron19getVerticesIdForMSHERNSt3__16vectorIiNS0_9allocatorIiEEEE
       3630  E2D 0039ECE0 _ZN11MPolyhedron20getIntegrationPointsEiPiPP5IntPt
       3631  E2E 003BC050 _ZN11MPolyhedron20getNumVerticesForMSHEv
       3632  E2F 003BC020 _ZN11MPolyhedron20getShapeFunctionNodeEi
       3633  E30 003A09B0 _ZN11MPolyhedron5_initEv
       3634  E31 003BBDF0 _ZN11MPolyhedron7reverseEv
       3635  E32 003BB830 _ZN11MPolyhedron9getVertexEi
       3636  E33 003BBEC0 _ZN11MPolyhedron9getVolumeEv
       3637  E34 003BBDA0 _ZN11MPolyhedron9setParentEP8MElementb
       3638  E35 003BD5D0 _ZN11MPolyhedronC2ENSt3__16vectorIP12MTetrahedronNS0_9allocatorIS3_EEEEiibP8MElement
       3639  E36 00383810 _ZN11MPolyhedronC2ENSt3__16vectorIP7MVertexNS0_9allocatorIS3_EEEEiibP8MElement
       3640  E37 003BB7B0 _ZN11MPolyhedronD0Ev
       3641  E38 003BB660 _ZN11MPolyhedronD2Ev
       3642  E39 0038C650 _ZN11MQuadrangle10getEdgeRepEbiPdS0_S0_P8SVector3
       3643  E3A 0038CB40 _ZN11MQuadrangle10getFaceRepEbiPdS0_S0_P8SVector3
       3644  E3B 00390220 _ZN11MQuadrangle11getNumFacesEv
       3645  E3C 003901D0 _ZN11MQuadrangle12getEdgeSolinEi
       3646  E3D 00390270 _ZN11MQuadrangle12getFaceSolinEi
       3647  E3E 00390140 _ZN11MQuadrangle13getVertexDIFFEi
       3648  E3F 0038CBD0 _ZN11MQuadrangle14getInnerRadiusEv
       3649  E40 00390210 _ZN11MQuadrangle14getNumEdgesRepEb
       3650  E41 0038CB30 _ZN11MQuadrangle14getNumFacesRepEb
       3651  E42 0038D4E0 _ZN11MQuadrangle14getOuterRadiusEv
       3652  E43 0038CBB0 _ZN11MQuadrangle15etaShapeMeasureEv
       3653  E44 0038C860 _ZN11MQuadrangle16getHighOrderFaceEiii
       3654  E45 0038CBC0 _ZN11MQuadrangle17angleShapeMeasureEv
       3655  E46 0038CBA0 _ZN11MQuadrangle17gammaShapeMeasureEv
       3656  E47 0038D7F0 _ZN11MQuadrangle20getIntegrationPointsEiPiPP5IntPt
       3657  E48 003903E0 _ZN11MQuadrangle7reverseEv
       3658  E49 0038D850 _ZN11MQuadrangle8reorientEib
       3659  E4A 00390120 _ZN11MQuadrangle9getVertexEi
       3660  E4B 0038D4F0 _ZN11MQuadrangle9getVolumeEv
       3661  E4C 00390130 _ZN11MQuadrangle9setVertexEiP7MVertex
       3662  E4D 002EA330 _ZN11MQuadrangleC2ERKNSt3__16vectorIP7MVertexNS0_9allocatorIS3_EEEEii
       3663  E4E 003900E0 _ZN11MQuadrangleD0Ev
       3664  E4F 007474B0 _ZN11MakeSimplex12numSimplicesEv
       3665  E50 00748910 _ZN11MakeSimplex15numSimplexNodesEv
       3666  E51 00748930 _ZN11MakeSimplex7reorderEPiiPdS1_S1_S1_S1_S1_S1_S1_
       3667  E52 007474D0 _ZN11MakeSimplex9decomposeEiPdS0_S0_S0_S0_S0_S0_S0_
       3668  E53 00748920 _ZN11MakeSimplexC1Eiii
       3669  E54 00748920 _ZN11MakeSimplexC2Eiii
       3670  E55 005B4680 _ZN11OctreeField14getDescriptionEv
       3671  E56 005B4750 _ZN11OctreeField4Cell4initEddddR5Fieldi
       3672  E57 005B46E0 _ZN11OctreeField4CellD2Ev
       3673  E58 005B43D0 _ZN11OctreeField6updateEv
       3674  E59 005B4670 _ZN11OctreeField7getNameEv
       3675  E5A 005B40D0 _ZN11OctreeFieldC2Ev
       3676  E5B 005B4380 _ZN11OctreeFieldD0Ev
       3677  E5C 005B4340 _ZN11OctreeFieldD2Ev
       3678  E5D 005B4580 _ZN11OctreeFieldclEdddP7GEntity
       3679  E5E 0066A3D0 _ZN11SolverFieldI8SVector3ED0Ev
       3680  E5F 0066E070 _ZN11SolverFieldIdED0Ev
       3681  E60 0005CF70 _ZN11VertexArray10_addNormalEfff
       3682  E61 0005CC50 _ZN11VertexArray10_addVertexEfff
       3683  E62 0005D540 _ZN11VertexArray11_addElementEP8MElement
       3684  E63 0005F220 _ZN11VertexArray12decodeHeaderEiPKciRNSt3__112basic_stringIcNS2_11char_traitsIcEENS2_9allocatorIcEEEERiSA_RdSB_SA_SB_SB_SB_SB_SB_SB_SB_
       3685  E64 0005CC10 _ZN11VertexArray13getMemoryInMbEv
       3686  E65 0005D7E0 _ZN11VertexArray3addEPdS0_S0_P8SVector3PhS3_S3_S3_P8MElementbb
       3687  E66 0005D670 _ZN11VertexArray3addEPdS0_S0_P8SVector3PjP8MElementbb
       3688  E67 0005DFD0 _ZN11VertexArray4sortEddd
       3689  E68 0005F840 _ZN11VertexArray5mergeEPS_
       3690  E69 0005EF30 _ZN11VertexArray6toCharEiRKNSt3__112basic_stringIcNS0_11char_traitsIcEENS0_9allocatorIcEEEEiddidRK14SBoundingBox3dRi
       3691  E6A 0005DAC0 _ZN11VertexArray8finalizeEv
       3692  E6B 0005F3F0 _ZN11VertexArray8fromCharEiPKci
       3693  E6C 0005D210 _ZN11VertexArray9_addColorEhhhh
       3694  E6D 0005C930 _ZN11VertexArrayC1Eii
       3695  E6E 0005C930 _ZN11VertexArrayC2Eii
       3696  E6F 001FC8F0 _ZN11VertexArrayD2Ev
       3697  E70 009A6320 _ZN11VertexCoord17exportVertexCoordERK7SPoint3
       3698  E71 009A6410 _ZN11VertexCoordD2Ev
       3699  E72 007F7990 _ZN11alglib_impl10ae_c_add_dENS_10ae_complexEd
       3700  E73 007F7A30 _ZN11alglib_impl10ae_c_d_divEdNS_10ae_complexE
       3701  E74 007F79F0 _ZN11alglib_impl10ae_c_d_subEdNS_10ae_complexE
       3702  E75 007F7A10 _ZN11alglib_impl10ae_c_div_dENS_10ae_complexEd
       3703  E76 007F79B0 _ZN11alglib_impl10ae_c_mul_dENS_10ae_complexEd
       3704  E77 007F7930 _ZN11alglib_impl10ae_c_neq_dENS_10ae_complexEd
       3705  E78 007F79D0 _ZN11alglib_impl10ae_c_sub_dENS_10ae_complexEd
       3706  E79 007F2F80 _ZN11alglib_impl10ae_db_freeEPNS_12ae_dyn_blockE
       3707  E7A 007F2FB0 _ZN11alglib_impl10ae_db_swapEPNS_12ae_dyn_blockES1_
       3708  E7B 007F4110 _ZN11alglib_impl10ae_fp_lessEdd
       3709  E7C 007F67C0 _ZN11alglib_impl10ae_int2strExPcPNS_8ae_stateE
       3710  E7D 007F4510 _ZN11alglib_impl10ae_maxrealEddPNS_8ae_stateE
       3711  E7E 007F4520 _ZN11alglib_impl10ae_minrealEddPNS_8ae_stateE
       3712  E7F 007F6930 _ZN11alglib_impl10ae_str2intEPKcPNS_8ae_stateEPS1_
       3713  E80 007F8B10 _ZN11alglib_impl10ae_v_caddcEPNS_10ae_complexExPKS0_xPKcxS0_
       3714  E81 007F87B0 _ZN11alglib_impl10ae_v_cadddEPNS_10ae_complexExPKS0_xPKcxd
       3715  E82 007F7D80 _ZN11alglib_impl10ae_v_cmoveEPNS_10ae_complexExPKS0_xPKcx
       3716  E83 007F9210 _ZN11alglib_impl10ae_v_cmulcEPNS_10ae_complexExxS0_
       3717  E84 007F9120 _ZN11alglib_impl10ae_v_cmuldEPNS_10ae_complexExxd
       3718  E85 007F90D0 _ZN11alglib_impl10ae_v_csubcEPNS_10ae_complexExPKS0_xPKcxS0_
       3719  E86 007F90A0 _ZN11alglib_impl10ae_v_csubdEPNS_10ae_complexExPKS0_xPKcxd
       3720  E87 007F95C0 _ZN11alglib_impl10ae_v_movedEPdxPKdxxd
       3721  E88 00849900 _ZN11alglib_impl10cmatrixdetEPNS_9ae_matrixExPNS_8ae_stateE
       3722  E89 0085B3B0 _ZN11alglib_impl10cmatrixlupEPNS_9ae_matrixExxPNS_9ae_vectorEPNS_8ae_stateE
       3723  E8A 0080C190 _ZN11alglib_impl10cmatrixmvfExxPNS_9ae_matrixExxxPNS_9ae_vectorExS3_xPNS_8ae_stateE
       3724  E8B 00859020 _ZN11alglib_impl10cmatrixpluEPNS_9ae_matrixExxPNS_9ae_vectorEPNS_8ae_stateE
       3725  E8C 0080C7A0 _ZN11alglib_impl10copymatrixEPNS_9ae_matrixExxxxS1_xxxxPNS_8ae_stateE
       3726  E8D 0083B3A0 _ZN11alglib_impl10hmatrixevdEPNS_9ae_matrixExxbPNS_9ae_vectorES1_PNS_8ae_stateE
       3727  E8E 0081E0F0 _ZN11alglib_impl10hqrndunit2EPNS_10hqrndstateEPdS2_PNS_8ae_stateE
       3728  E8F 0087E950 _ZN11alglib_impl10minlmsetbcEPNS_10minlmstateEPNS_9ae_vectorES3_PNS_8ae_stateE
       3729  E90 0087AA60 _ZN11alglib_impl10minqpsetbcEPNS_10minqpstateEPNS_9ae_vectorES3_PNS_8ae_stateE
       3730  E91 008491C0 _ZN11alglib_impl10rmatrixdetEPNS_9ae_matrixExPNS_8ae_stateE
       3731  E92 0083DFE0 _ZN11alglib_impl10rmatrixevdEPNS_9ae_matrixExxPNS_9ae_vectorES3_S1_S1_PNS_8ae_stateE
       3732  E93 0085A450 _ZN11alglib_impl10rmatrixlupEPNS_9ae_matrixExxPNS_9ae_vectorEPNS_8ae_stateE
       3733  E94 0080C1A0 _ZN11alglib_impl10rmatrixmvfExxPNS_9ae_matrixExxxPNS_9ae_vectorExS3_xPNS_8ae_stateE
       3734  E95 00858DA0 _ZN11alglib_impl10rmatrixpluEPNS_9ae_matrixExxPNS_9ae_vectorEPNS_8ae_stateE
       3735  E96 00847D20 _ZN11alglib_impl10rmatrixsvdEPNS_9ae_matrixExxxxxPNS_9ae_vectorES1_S1_PNS_8ae_stateE
       3736  E97 0083AB90 _ZN11alglib_impl10smatrixevdEPNS_9ae_matrixExxbPNS_9ae_vectorES1_PNS_8ae_stateE
       3737  E98 0080AD30 _ZN11alglib_impl10tagsortbufEPNS_9ae_vectorExS1_S1_PNS_9apbuffersEPNS_8ae_stateE
       3738  E99 007F66E0 _ZN11alglib_impl11ae_bool2strEbPcPNS_8ae_stateE
       3739  E9A 007F42E0 _ZN11alglib_impl11ae_isfiniteEdPNS_8ae_stateE
       3740  E9B 007F43B0 _ZN11alglib_impl11ae_isneginfEdPNS_8ae_stateE
       3741  E9C 007F4380 _ZN11alglib_impl11ae_isposinfEdPNS_8ae_stateE
       3742  E9D 007F6710 _ZN11alglib_impl11ae_str2boolEPKcPNS_8ae_stateEPS1_
       3743  E9E 007F82B0 _ZN11alglib_impl11ae_v_cmovecEPNS_10ae_complexExPKS0_xPKcxS0_
       3744  E9F 007F7FC0 _ZN11alglib_impl11ae_v_cmovedEPNS_10ae_complexExPKS0_xPKcxd
       3745  EA0 00809490 _ZN11alglib_impl11aredistinctEPNS_9ae_vectorExPNS_8ae_stateE
       3746  EA1 00823490 _ZN11alglib_impl11cmatrixcopyExxPNS_9ae_matrixExxS1_xxPNS_8ae_stateE
       3747  EA2 0082CAB0 _ZN11alglib_impl11cmatrixgemmExxxNS_10ae_complexEPNS_9ae_matrixExxxS2_xxxS0_S2_xxPNS_8ae_stateE
       3748  EA3 0082AA60 _ZN11alglib_impl11cmatrixsyrkExxdPNS_9ae_matrixExxxdS1_xxbPNS_8ae_stateE
       3749  EA4 0083BDF0 _ZN11alglib_impl11hmatrixevdiEPNS_9ae_matrixExxbxxPNS_9ae_vectorES1_PNS_8ae_stateE
       3750  EA5 0083B890 _ZN11alglib_impl11hmatrixevdrEPNS_9ae_matrixExxbddPxPNS_9ae_vectorES1_PNS_8ae_stateE
       3751  EA6 0081E000 _ZN11alglib_impl11hqrndnormalEPNS_10hqrndstateEPNS_8ae_stateE
       3752  EA7 0081F1E0 _ZN11alglib_impl11kdtreeallocEPNS_13ae_serializerEPNS_6kdtreeEPNS_8ae_stateE
       3753  EA8 0081F780 _ZN11alglib_impl11kdtreebuildEPNS_9ae_matrixExxxxPNS_6kdtreeEPNS_8ae_stateE
       3754  EA9 0086D020 _ZN11alglib_impl11mincgcreateExPNS_9ae_vectorEPNS_10mincgstateEPNS_8ae_stateE
       3755  EAA 00879EA0 _ZN11alglib_impl11minqpcreateExPNS_10minqpstateEPNS_8ae_stateE
       3756  EAB 00890240 _ZN11alglib_impl11nleqresultsEPNS_9nleqstateEPNS_9ae_vectorEPNS_10nleqreportEPNS_8ae_stateE
       3757  EAC 0088F210 _ZN11alglib_impl11nleqsetcondEPNS_9nleqstateEdxPNS_8ae_stateE
       3758  EAD 0088F370 _ZN11alglib_impl11nleqsetxrepEPNS_9nleqstateEbPNS_8ae_stateE
       3759  EAE 008236B0 _ZN11alglib_impl11rmatrixcopyExxPNS_9ae_matrixExxS1_xxPNS_8ae_stateE
       3760  EAF 0082EFA0 _ZN11alglib_impl11rmatrixgemmExxxdPNS_9ae_matrixExxxS1_xxxdS1_xxPNS_8ae_stateE
       3761  EB0 0082BBA0 _ZN11alglib_impl11rmatrixsyrkExxdPNS_9ae_matrixExxxdS1_xxbPNS_8ae_stateE
       3762  EB1 00809CE0 _ZN11alglib_impl11safepythag2EddPNS_8ae_stateE
       3763  EB2 00809D90 _ZN11alglib_impl11safepythag3EdddPNS_8ae_stateE
       3764  EB3 0083B120 _ZN11alglib_impl11smatrixevdiEPNS_9ae_matrixExxbxxPNS_9ae_vectorES1_PNS_8ae_stateE
       3765  EB4 0083AE30 _ZN11alglib_impl11smatrixevdrEPNS_9ae_matrixExxbddPxPNS_9ae_vectorES1_PNS_8ae_stateE
       3766  EB5 0084A370 _ZN11alglib_impl11smatrixgevdEPNS_9ae_matrixExbS1_bxxPNS_9ae_vectorES1_PNS_8ae_stateE
       3767  EB6 0080BDC0 _ZN11alglib_impl11tagheappopiEPNS_9ae_vectorES1_PxPNS_8ae_stateE
       3768  EB7 0080B810 _ZN11alglib_impl11tagsortfastEPNS_9ae_vectorES1_xPNS_8ae_stateE
       3769  EB8 008196B0 _ZN11alglib_impl11trimprepareEdPdPNS_8ae_stateE
       3770  EB9 0080C2C0 _ZN11alglib_impl11vectornorm2EPNS_9ae_vectorExxPNS_8ae_stateE
       3771  EBA 0081CEF0 _ZN11alglib_impl12_ftplan_initEPNS_6ftplanEPNS_8ae_stateEb
       3772  EBB 00803410 _ZN11alglib_impl12_ialglib_cmvExxPKdS1_PNS_10ae_complexEPdxS2_S2_
       3773  EBC 00802EE0 _ZN11alglib_impl12_ialglib_rmvExxPKdS1_Pdxdd
       3774  EBD 0081E970 _ZN11alglib_impl12_kdtree_initEPNS_6kdtreeEPNS_8ae_stateEb
       3775  EBE 007F2DB0 _ZN11alglib_impl12ae_db_attachEPNS_12ae_dyn_blockEPNS_8ae_stateE
       3776  EBF 007F2DC0 _ZN11alglib_impl12ae_db_mallocEPNS_12ae_dyn_blockExPNS_8ae_stateEb
       3777  EC0 007F9520 _ZN11alglib_impl12ae_v_movenegEPdxPKdxx
       3778  EC1 007F2B10 _ZN11alglib_impl12aligned_freeEPv
       3779  EC2 0080A290 _ZN11alglib_impl12alloccomplexEPNS_13ae_serializerENS_10ae_complexEPNS_8ae_stateE
       3780  EC3 00818E30 _ZN11alglib_impl12armijocreateExPNS_9ae_vectorEdS1_ddxPNS_11armijostateEPNS_8ae_stateE
       3781  EC4 0080C220 _ZN11alglib_impl12cmatrixgemmfExxxNS_10ae_complexEPNS_9ae_matrixExxxS2_xxxS0_S2_xxPNS_8ae_stateE
       3782  EC5 00849530 _ZN11alglib_impl12cmatrixludetEPNS_9ae_matrixEPNS_9ae_vectorExPNS_8ae_stateE
       3783  EC6 00823990 _ZN11alglib_impl12cmatrixrank1ExxPNS_9ae_matrixExxPNS_9ae_vectorExS3_xPNS_8ae_stateE
       3784  EC7 0088AEB0 _ZN11alglib_impl12cmatrixsolveEPNS_9ae_matrixExPNS_9ae_vectorEPxPNS_17densesolverreportES3_PNS_8ae_stateE
       3785  EC8 0080C1F0 _ZN11alglib_impl12cmatrixsyrkfExxdPNS_9ae_matrixExxxdS1_xxbPNS_8ae_stateE
       3786  EC9 0086ACF0 _ZN11alglib_impl12fblscgcreateEPNS_9ae_vectorES1_xPNS_14fblslincgstateEPNS_8ae_stateE
       3787  ECA 00869FD0 _ZN11alglib_impl12fblssolvecgxEPNS_9ae_matrixExxdPNS_9ae_vectorES3_S3_PNS_8ae_stateE
       3788  ECB 0081E2C0 _ZN11alglib_impl12hqrndnormal2EPNS_10hqrndstateEPdS2_PNS_8ae_stateE
       3789  ECC 008838C0 _ZN11alglib_impl12minasacreateExPNS_9ae_vectorES1_S1_PNS_11minasastateEPNS_8ae_stateE
       3790  ECD 0086D2E0 _ZN11alglib_impl12mincgcreatefExPNS_9ae_vectorEdPNS_10mincgstateEPNS_8ae_stateE
       3791  ECE 0086F780 _ZN11alglib_impl12mincgresultsEPNS_10mincgstateEPNS_9ae_vectorEPNS_11mincgreportEPNS_8ae_stateE
       3792  ECF 0086D5C0 _ZN11alglib_impl12mincgsetcondEPNS_10mincgstateEdddxPNS_8ae_stateE
       3793  ED0 00886710 _ZN11alglib_impl12mincgsetdrepEPNS_10mincgstateEbPNS_8ae_stateE
       3794  ED1 0086D970 _ZN11alglib_impl12mincgsetxrepEPNS_10mincgstateEbPNS_8ae_stateE
       3795  ED2 0087DB30 _ZN11alglib_impl12minlmcreatevExxPNS_9ae_vectorEdPNS_10minlmstateEPNS_8ae_stateE
       3796  ED3 00881A40 _ZN11alglib_impl12minlmresultsEPNS_10minlmstateEPNS_9ae_vectorEPNS_11minlmreportEPNS_8ae_stateE
       3797  ED4 0087E360 _ZN11alglib_impl12minlmsetcondEPNS_10minlmstateEdddxPNS_8ae_stateE
       3798  ED5 0087E580 _ZN11alglib_impl12minlmsetxrepEPNS_10minlmstateEbPNS_8ae_stateE
       3799  ED6 0087C1A0 _ZN11alglib_impl12minqpresultsEPNS_10minqpstateEPNS_9ae_vectorEPNS_11minqpreportEPNS_8ae_stateE
       3800  ED7 0088EDC0 _ZN11alglib_impl12nleqcreatelmExxPNS_9ae_vectorEPNS_9nleqstateEPNS_8ae_stateE
       3801  ED8 008479B0 _ZN11alglib_impl12rmatrixbdsvdEPNS_9ae_vectorES1_xbbPNS_9ae_matrixExS3_xS3_xPNS_8ae_stateE
       3802  ED9 0080C210 _ZN11alglib_impl12rmatrixgemmfExxxdPNS_9ae_matrixExxxS1_xxxdS1_xxPNS_8ae_stateE
       3803  EDA 00848EA0 _ZN11alglib_impl12rmatrixludetEPNS_9ae_matrixEPNS_9ae_vectorExPNS_8ae_stateE
       3804  EDB 00823D00 _ZN11alglib_impl12rmatrixrank1ExxPNS_9ae_matrixExxPNS_9ae_vectorExS3_xPNS_8ae_stateE
       3805  EDC 0084C1E0 _ZN11alglib_impl12rmatrixschurEPNS_9ae_matrixExS1_PNS_8ae_stateE
       3806  EDD 00889850 _ZN11alglib_impl12rmatrixsolveEPNS_9ae_matrixExPNS_9ae_vectorEPxPNS_17densesolverreportES3_PNS_8ae_stateE
       3807  EDE 0080C200 _ZN11alglib_impl12rmatrixsyrkfExxdPNS_9ae_matrixExxxdS1_xxbPNS_8ae_stateE
       3808  EDF 0080C580 _ZN11alglib_impl12rowidxabsmaxEPNS_9ae_matrixExxxPNS_8ae_stateE
       3809  EE0 0080A030 _ZN11alglib_impl12safeminposrvEdddPNS_8ae_stateE
       3810  EE1 0083C300 _ZN11alglib_impl12smatrixtdevdEPNS_9ae_vectorES1_xxPNS_9ae_matrixEPNS_8ae_stateE
       3811  EE2 00849F70 _ZN11alglib_impl12spdmatrixdetEPNS_9ae_matrixExbPNS_8ae_stateE
       3812  EE3 0080BB80 _ZN11alglib_impl12tagheappushiEPNS_9ae_vectorES1_PxdxPNS_8ae_stateE
       3813  EE4 0080AF40 _ZN11alglib_impl12tagsortfastiEPNS_9ae_vectorES1_S1_S1_xPNS_8ae_stateE
       3814  EE5 0080B3B0 _ZN11alglib_impl12tagsortfastrEPNS_9ae_vectorES1_S1_S1_xPNS_8ae_stateE
       3815  EE6 00808CF0 _ZN11alglib_impl12taskgenint1dEddxPNS_9ae_vectorES1_PNS_8ae_stateE
       3816  EE7 008196F0 _ZN11alglib_impl12trimfunctionEPdPNS_9ae_vectorExdPNS_8ae_stateE
       3817  EE8 008198E0 _ZN11alglib_impl13_ftplan_clearEPNS_6ftplanE
       3818  EE9 00808490 _ZN11alglib_impl13_ialglib_mm22EdPKdS1_xdPdxx
       3819  EEA 0081EE70 _ZN11alglib_impl13_kdtree_clearEPNS_6kdtreeE
       3820  EEB 007F2EC0 _ZN11alglib_impl13ae_db_reallocEPNS_12ae_dyn_blockExPNS_8ae_stateE
       3821  EEC 007F6B30 _ZN11alglib_impl13ae_double2strEdPcPNS_8ae_stateE
       3822  EED 007F4170 _ZN11alglib_impl13ae_fp_greaterEdd
       3823  EEE 007F4140 _ZN11alglib_impl13ae_fp_less_eqEdd
       3824  EEF 007F2D90 _ZN11alglib_impl13ae_frame_makeEPNS_8ae_stateEPNS_8ae_frameE
       3825  EF0 007F4530 _ZN11alglib_impl13ae_randomrealEPNS_8ae_stateE
       3826  EF1 007F2CC0 _ZN11alglib_impl13ae_state_initEPNS_8ae_stateE
       3827  EF2 007F6CE0 _ZN11alglib_impl13ae_str2doubleEPKcPNS_8ae_stateEPS1_
       3828  EF3 007F7E90 _ZN11alglib_impl13ae_v_cmovenegEPNS_10ae_complexExPKS0_xPKcx
       3829  EF4 0080A0C0 _ZN11alglib_impl13apperiodicmapEPdddS0_PNS_8ae_stateE
       3830  EF5 00819420 _ZN11alglib_impl13armijoresultsEPNS_11armijostateEPxPdS3_PNS_8ae_stateE
       3831  EF6 0080C170 _ZN11alglib_impl13cmatrixrank1fExxPNS_9ae_matrixExxPNS_9ae_vectorExS3_xPNS_8ae_stateE
       3832  EF7 00843420 _ZN11alglib_impl13cmatrixrcond1EPNS_9ae_matrixExPNS_8ae_stateE
       3833  EF8 0088AAA0 _ZN11alglib_impl13cmatrixsolvemEPNS_9ae_matrixExS1_xbPxPNS_17densesolverreportES1_PNS_8ae_stateE
       3834  EF9 0080A850 _ZN11alglib_impl13copyrealarrayEPNS_9ae_vectorES1_PNS_8ae_stateE
       3835  EFA 0081DDC0 _ZN11alglib_impl13hqrnduniformiEPNS_10hqrndstateExPNS_8ae_stateE
       3836  EFB 0081DC10 _ZN11alglib_impl13hqrnduniformrEPNS_10hqrndstateEPNS_8ae_stateE
       3837  EFC 008860F0 _ZN11alglib_impl13minasaresultsEPNS_11minasastateEPNS_9ae_vectorEPNS_12minasareportEPNS_8ae_stateE
       3838  EFD 00883E80 _ZN11alglib_impl13minasasetcondEPNS_11minasastateEdddxPNS_8ae_stateE
       3839  EFE 008840A0 _ZN11alglib_impl13minasasetxrepEPNS_11minasastateEbPNS_8ae_stateE
       3840  EFF 00871590 _ZN11alglib_impl13minbleicsetbcEPNS_13minbleicstateEPNS_9ae_vectorES3_PNS_8ae_stateE
       3841  F00 008717F0 _ZN11alglib_impl13minbleicsetlcEPNS_13minbleicstateEPNS_9ae_matrixEPNS_9ae_vectorExPNS_8ae_stateE
       3842  F01 0086D7F0 _ZN11alglib_impl13mincgsetscaleEPNS_10mincgstateEPNS_9ae_vectorEPNS_8ae_stateE
       3843  F02 00882430 _ZN11alglib_impl13minlmcreatefjExxPNS_9ae_vectorEPNS_10minlmstateEPNS_8ae_stateE
       3844  F03 0087D740 _ZN11alglib_impl13minlmcreatevjExxPNS_9ae_vectorEPNS_10minlmstateEPNS_8ae_stateE
       3845  F04 0087E7B0 _ZN11alglib_impl13minlmsetscaleEPNS_10minlmstateEPNS_9ae_vectorEPNS_8ae_stateE
       3846  F05 0087AC80 _ZN11alglib_impl13minqpoptimizeEPNS_10minqpstateEPNS_8ae_stateE
       3847  F06 0088F590 _ZN11alglib_impl13nleqiterationEPNS_9nleqstateEPNS_8ae_stateE
       3848  F07 0088F480 _ZN11alglib_impl13nleqsetstpmaxEPNS_9nleqstateEdPNS_8ae_stateE
       3849  F08 0080C180 _ZN11alglib_impl13rmatrixrank1fExxPNS_9ae_matrixExxPNS_9ae_vectorExS3_xPNS_8ae_stateE
       3850  F09 00842070 _ZN11alglib_impl13rmatrixrcond1EPNS_9ae_matrixExPNS_8ae_stateE
       3851  F0A 00809660 _ZN11alglib_impl13rmatrixresizeEPNS_9ae_matrixExxPNS_8ae_stateE
       3852  F0B 00889B20 _ZN11alglib_impl13rmatrixsolvemEPNS_9ae_matrixExS1_xbPxPNS_17densesolverreportES1_PNS_8ae_stateE
       3853  F0C 0083D3E0 _ZN11alglib_impl13smatrixtdevdiEPNS_9ae_vectorES1_xxxxPNS_9ae_matrixEPNS_8ae_stateE
       3854  F0D 0083C820 _ZN11alglib_impl13smatrixtdevdrEPNS_9ae_vectorES1_xxddPxPNS_9ae_matrixEPNS_8ae_stateE
       3855  F0E 00802930 _ZN11alglib_impl14_ialglib_mv_32EPKdS1_Pdxdd
       3856  F0F 008036A0 _ZN11alglib_impl14_ialglib_vcopyExPKdxPdx
       3857  F10 00803600 _ZN11alglib_impl14_ialglib_vzeroExPdx
       3858  F11 0084C550 _ZN11alglib_impl14ablasblocksizeEPNS_9ae_matrixEPNS_8ae_stateE
       3859  F12 007F2D20 _ZN11alglib_impl14ae_frame_leaveEPNS_8ae_stateE
       3860  F13 007F33A0 _ZN11alglib_impl14ae_matrix_initEPNS_9ae_matrixExxxPNS_8ae_stateEb
       3861  F14 007F2A10 _ZN11alglib_impl14ae_state_clearEPNS_8ae_stateE
       3862  F15 007F2FE0 _ZN11alglib_impl14ae_vector_initEPNS_9ae_vectorExxPNS_8ae_stateEb
       3863  F16 007F2AA0 _ZN11alglib_impl14aligned_mallocEyy
       3864  F17 0080A320 _ZN11alglib_impl14allocrealarrayEPNS_13ae_serializerEPNS_9ae_vectorExPNS_8ae_stateE
       3865  F18 00845AD0 _ZN11alglib_impl14cmatrixinverseEPNS_9ae_matrixExPxPNS_12matinvreportEPNS_8ae_stateE
       3866  F19 0088B4B0 _ZN11alglib_impl14cmatrixlusolveEPNS_9ae_matrixEPNS_9ae_vectorExS3_PxPNS_17densesolverreportES3_PNS_8ae_stateE
       3867  F1A 0083F1C0 _ZN11alglib_impl14cmatrixrndcondExdPNS_9ae_matrixEPNS_8ae_stateE
       3868  F1B 0080A8C0 _ZN11alglib_impl14copyrealmatrixEPNS_9ae_matrixES1_PNS_8ae_stateE
       3869  F1C 0081CC00 _ZN11alglib_impl14ftbaseissmoothExPNS_8ae_stateE
       3870  F1D 0083F9D0 _ZN11alglib_impl14hmatrixrndcondExdPNS_9ae_matrixEPNS_8ae_stateE
       3871  F1E 00843060 _ZN11alglib_impl14hpdmatrixrcondEPNS_9ae_matrixExbPNS_8ae_stateE
       3872  F1F 0088CED0 _ZN11alglib_impl14hpdmatrixsolveEPNS_9ae_matrixExbPNS_9ae_vectorEPxPNS_17densesolverreportES3_PNS_8ae_stateE
       3873  F20 0081D810 _ZN11alglib_impl14hqrndrandomizeEPNS_10hqrndstateEPNS_8ae_stateE
       3874  F21 00809760 _ZN11alglib_impl14isfinitevectorEPNS_9ae_vectorExPNS_8ae_stateE
       3875  F22 008202D0 _ZN11alglib_impl14kdtreequeryknnEPNS_6kdtreeEPNS_9ae_vectorExbPNS_8ae_stateE
       3876  F23 008205A0 _ZN11alglib_impl14kdtreequeryrnnEPNS_6kdtreeEPNS_9ae_vectorEdbPNS_8ae_stateE
       3877  F24 00871000 _ZN11alglib_impl14minbleiccreateExPNS_9ae_vectorEPNS_13minbleicstateEPNS_8ae_stateE
       3878  F25 0086E170 _ZN11alglib_impl14mincgiterationEPNS_10mincgstateEPNS_8ae_stateE
       3879  F26 0086DA60 _ZN11alglib_impl14mincgsetcgtypeEPNS_10mincgstateExPNS_8ae_stateE
       3880  F27 0086DBA0 _ZN11alglib_impl14mincgsetstpmaxEPNS_10mincgstateEdPNS_8ae_stateE
       3881  F28 008761D0 _ZN11alglib_impl14minlbfgscreateExxPNS_9ae_vectorEPNS_13minlbfgsstateEPNS_8ae_stateE
       3882  F29 0087DF80 _ZN11alglib_impl14minlmcreatefghExPNS_9ae_vectorEPNS_10minlmstateEPNS_8ae_stateE
       3883  F2A 00882220 _ZN11alglib_impl14minlmcreatefgjExxPNS_9ae_vectorEPNS_10minlmstateEPNS_8ae_stateE
       3884  F2B 00882000 _ZN11alglib_impl14minlmcreatevgjExxPNS_9ae_vectorEPNS_10minlmstateEPNS_8ae_stateE
       3885  F2C 0087ED00 _ZN11alglib_impl14minlmiterationEPNS_10minlmstateEPNS_8ae_stateE
       3886  F2D 0087E690 _ZN11alglib_impl14minlmsetstpmaxEPNS_10minlmstateEdPNS_8ae_stateE
       3887  F2E 0087A840 _ZN11alglib_impl14minqpsetoriginEPNS_10minqpstateEPNS_9ae_vectorEPNS_8ae_stateE
       3888  F2F 008903F0 _ZN11alglib_impl14nleqresultsbufEPNS_9nleqstateEPNS_9ae_vectorEPNS_10nleqreportEPNS_8ae_stateE
       3889  F30 0085E9D0 _ZN11alglib_impl14rcondthresholdEPNS_8ae_stateE
       3890  F31 00845190 _ZN11alglib_impl14rmatrixinverseEPNS_9ae_matrixExPxPNS_12matinvreportEPNS_8ae_stateE
       3891  F32 00889F20 _ZN11alglib_impl14rmatrixlusolveEPNS_9ae_matrixEPNS_9ae_vectorExS3_PxPNS_17densesolverreportES3_PNS_8ae_stateE
       3892  F33 0083ED60 _ZN11alglib_impl14rmatrixrndcondExdPNS_9ae_matrixEPNS_8ae_stateE
       3893  F34 0088D7D0 _ZN11alglib_impl14rmatrixsolvelsEPNS_9ae_matrixExxPNS_9ae_vectorEdPxPNS_19densesolverlsreportES3_PNS_8ae_stateE
       3894  F35 0083F4E0 _ZN11alglib_impl14smatrixrndcondExdPNS_9ae_matrixEPNS_8ae_stateE
       3895  F36 008425D0 _ZN11alglib_impl14spdmatrixrcondEPNS_9ae_matrixExbPNS_8ae_stateE
       3896  F37 0088C1B0 _ZN11alglib_impl14spdmatrixsolveEPNS_9ae_matrixExbPNS_9ae_vectorEPxPNS_17densesolverreportES3_PNS_8ae_stateE
       3897  F38 007F4E60 _ZN11alglib_impl14x_is_hermitianEPNS_8x_matrixE
       3898  F39 007F46A0 _ZN11alglib_impl14x_is_symmetricEPNS_8x_matrixE
       3899  F3A 007F4050 _ZN11alglib_impl14x_vector_clearEPNS_8x_vectorE
       3900  F3B 0080AA10 _ZN11alglib_impl15_apbuffers_initEPNS_9apbuffersEPNS_8ae_stateEb
       3901  F3C 00808640 _ZN11alglib_impl15_ialglib_mm22x2EdPKdS1_S1_xdPdx
       3902  F3D 0088E250 _ZN11alglib_impl15_nleqstate_initEPNS_9nleqstateEPNS_8ae_stateEb
       3903  F3E 007F6640 _ZN11alglib_impl15ae_char2sixbitsEc
       3904  F3F 007F63D0 _ZN11alglib_impl15ae_is_hermitianEPNS_9ae_matrixE
       3905  F40 007F6260 _ZN11alglib_impl15ae_is_symmetricEPNS_9ae_matrixE
       3906  F41 007F3BB0 _ZN11alglib_impl15ae_matrix_clearEPNS_9ae_matrixE
       3907  F42 007F2920 _ZN11alglib_impl15ae_misalignmentEPKvy
       3908  F43 007F6620 _ZN11alglib_impl15ae_sixbits2charEx
       3909  F44 007F3350 _ZN11alglib_impl15ae_swap_vectorsEPNS_9ae_vectorES1_
       3910  F45 007F9370 _ZN11alglib_impl15ae_v_dotproductEPKdxS1_xx
       3911  F46 007F3310 _ZN11alglib_impl15ae_vector_clearEPNS_9ae_vectorE
       3912  F47 007F3DA0 _ZN11alglib_impl15ae_x_set_matrixEPNS_8x_matrixEPNS_9ae_matrixEPNS_8ae_stateE
       3913  F48 007F3C60 _ZN11alglib_impl15ae_x_set_vectorEPNS_8x_vectorEPNS_9ae_vectorEPNS_8ae_stateE
       3914  F49 0080A5C0 _ZN11alglib_impl15allocrealmatrixEPNS_13ae_serializerEPNS_9ae_matrixExxPNS_8ae_stateE
       3915  F4A 00818FA0 _ZN11alglib_impl15armijoiterationEPNS_11armijostateEPNS_8ae_stateE
       3916  F4B 00826560 _ZN11alglib_impl15cmatrixlefttrsmExxPNS_9ae_matrixExxbbxS1_xxPNS_8ae_stateE
       3917  F4C 00843EC0 _ZN11alglib_impl15cmatrixlurcond1EPNS_9ae_matrixExPNS_8ae_stateE
       3918  F4D 0088B1B0 _ZN11alglib_impl15cmatrixlusolvemEPNS_9ae_matrixEPNS_9ae_vectorExS1_xPxPNS_17densesolverreportES1_PNS_8ae_stateE
       3919  F4E 00843730 _ZN11alglib_impl15cmatrixrcondinfEPNS_9ae_matrixExPNS_8ae_stateE
       3920  F4F 00844180 _ZN11alglib_impl15cmatrixtrrcond1EPNS_9ae_matrixExbbPNS_8ae_stateE
       3921  F50 0080C4C0 _ZN11alglib_impl15columnidxabsmaxEPNS_9ae_matrixExxxPNS_8ae_stateE
       3922  F51 0086AF60 _ZN11alglib_impl15fblscgiterationEPNS_14fblslincgstateEPNS_8ae_stateE
       3923  F52 0081A4C0 _ZN11alglib_impl15ftbasefactorizeExxPxS0_PNS_8ae_stateE
       3924  F53 0088CA60 _ZN11alglib_impl15hpdmatrixsolvemEPNS_9ae_matrixExbS1_xPxPNS_17densesolverreportES1_PNS_8ae_stateE
       3925  F54 008097F0 _ZN11alglib_impl15isfinitecvectorEPNS_9ae_vectorExPNS_8ae_stateE
       3926  F55 008208C0 _ZN11alglib_impl15kdtreequeryaknnEPNS_6kdtreeEPNS_9ae_vectorExbdPNS_8ae_stateE
       3927  F56 0081F2C0 _ZN11alglib_impl15kdtreeserializeEPNS_13ae_serializerEPNS_6kdtreeEPNS_8ae_stateE
       3928  F57 008843E0 _ZN11alglib_impl15minasaiterationEPNS_11minasastateEPNS_8ae_stateE
       3929  F58 008842D0 _ZN11alglib_impl15minasasetstpmaxEPNS_11minasastateEdPNS_8ae_stateE
       3930  F59 008712A0 _ZN11alglib_impl15minbleiccreatefExPNS_9ae_vectorEdPNS_13minbleicstateEPNS_8ae_stateE
       3931  F5A 00874EB0 _ZN11alglib_impl15minbleicresultsEPNS_13minbleicstateEPNS_9ae_vectorEPNS_14minbleicreportEPNS_8ae_stateE
       3932  F5B 00872510 _ZN11alglib_impl15minbleicsetxrepEPNS_13minbleicstateEbPNS_8ae_stateE
       3933  F5C 0086F930 _ZN11alglib_impl15mincgresultsbufEPNS_10mincgstateEPNS_9ae_vectorEPNS_11mincgreportEPNS_8ae_stateE
       3934  F5D 00876520 _ZN11alglib_impl15minlbfgscreatefExxPNS_9ae_vectorEdPNS_13minlbfgsstateEPNS_8ae_stateE
       3935  F5E 00888170 _ZN11alglib_impl15minlbfgscreatexExxPNS_9ae_vectorExdPNS_13minlbfgsstateEPNS_8ae_stateE
       3936  F5F 00878B20 _ZN11alglib_impl15minlbfgsresultsEPNS_13minlbfgsstateEPNS_9ae_vectorEPNS_14minlbfgsreportEPNS_8ae_stateE
       3937  F60 00876850 _ZN11alglib_impl15minlbfgssetcondEPNS_13minlbfgsstateEdddxPNS_8ae_stateE
       3938  F61 00876A70 _ZN11alglib_impl15minlbfgssetxrepEPNS_13minlbfgsstateEbPNS_8ae_stateE
       3939  F62 00881C10 _ZN11alglib_impl15minlmresultsbufEPNS_10minlmstateEPNS_9ae_vectorEPNS_11minlmreportEPNS_8ae_stateE
       3940  F63 0087EBD0 _ZN11alglib_impl15minlmsetacctypeEPNS_10minlmstateExPNS_8ae_stateE
       3941  F64 0087C360 _ZN11alglib_impl15minqpresultsbufEPNS_10minqpstateEPNS_9ae_vectorEPNS_11minqpreportEPNS_8ae_stateE
       3942  F65 00890530 _ZN11alglib_impl15nleqrestartfromEPNS_9nleqstateEPNS_9ae_vectorEPNS_8ae_stateE
       3943  F66 00829790 _ZN11alglib_impl15rmatrixlefttrsmExxPNS_9ae_matrixExxbbxS1_xxPNS_8ae_stateE
       3944  F67 008439D0 _ZN11alglib_impl15rmatrixlurcond1EPNS_9ae_matrixExPNS_8ae_stateE
       3945  F68 0088A220 _ZN11alglib_impl15rmatrixlusolvemEPNS_9ae_matrixEPNS_9ae_vectorExS1_xPxPNS_17densesolverreportES1_PNS_8ae_stateE
       3946  F69 00842350 _ZN11alglib_impl15rmatrixrcondinfEPNS_9ae_matrixExPNS_8ae_stateE
       3947  F6A 00842940 _ZN11alglib_impl15rmatrixtrrcond1EPNS_9ae_matrixExbbPNS_8ae_stateE
       3948  F6B 0088BDA0 _ZN11alglib_impl15spdmatrixsolvemEPNS_9ae_matrixExbS1_xPxPNS_17densesolverreportES1_PNS_8ae_stateE
       3949  F6C 0080C410 _ZN11alglib_impl15vectoridxabsmaxEPNS_9ae_vectorExxPNS_8ae_stateE
       3950  F6D 0080AC30 _ZN11alglib_impl16_apbuffers_clearEPNS_9apbuffersE
       3951  F6E 0081D410 _ZN11alglib_impl16_hqrndstate_initEPNS_10hqrndstateEPNS_8ae_stateEb
       3952  F6F 008083E0 _ZN11alglib_impl16_ialglib_pack_n2EPdS0_xxS0_
       3953  F70 0086C140 _ZN11alglib_impl16_mincgstate_initEPNS_10mincgstateEPNS_8ae_stateEb
       3954  F71 0087C4A0 _ZN11alglib_impl16_minlmstate_initEPNS_10minlmstateEPNS_8ae_stateEb
       3955  F72 00879040 _ZN11alglib_impl16_minqpstate_initEPNS_10minqpstateEPNS_8ae_stateEb
       3956  F73 0088EA10 _ZN11alglib_impl16_nleqreport_initEPNS_10nleqreportEPNS_8ae_stateEb
       3957  F74 0088E690 _ZN11alglib_impl16_nleqstate_clearEPNS_9nleqstateE
       3958  F75 007F9C80 _ZN11alglib_impl16_rcommstate_initEPNS_10rcommstateEPNS_8ae_stateEb
       3959  F76 0084C4A0 _ZN11alglib_impl16ablassplitlengthEPNS_9ae_matrixExPxS2_PNS_8ae_stateE
       3960  F77 007F41A0 _ZN11alglib_impl16ae_fp_greater_eqEdd
       3961  F78 007F45B0 _ZN11alglib_impl16ae_randomintegerExPNS_8ae_stateE
       3962  F79 007F3C00 _ZN11alglib_impl16ae_swap_matricesEPNS_9ae_matrixES1_
       3963  F7A 007F7AC0 _ZN11alglib_impl16ae_v_cdotproductEPKNS_10ae_complexExPKcS2_xS4_x
       3964  F7B 0080C1C0 _ZN11alglib_impl16cmatrixlefttrsmfExxPNS_9ae_matrixExxbbxS1_xxPNS_8ae_stateE
       3965  F7C 00836040 _ZN11alglib_impl16cmatrixlqunpacklEPNS_9ae_matrixExxS1_PNS_8ae_stateE
       3966  F7D 00835600 _ZN11alglib_impl16cmatrixlqunpackqEPNS_9ae_matrixExxPNS_9ae_vectorExS1_PNS_8ae_stateE
       3967  F7E 00845510 _ZN11alglib_impl16cmatrixluinverseEPNS_9ae_matrixEPNS_9ae_vectorExPxPNS_12matinvreportEPNS_8ae_stateE
       3968  F7F 00834920 _ZN11alglib_impl16cmatrixqrunpackqEPNS_9ae_matrixExxPNS_9ae_vectorExS1_PNS_8ae_stateE
       3969  F80 00835380 _ZN11alglib_impl16cmatrixqrunpackrEPNS_9ae_matrixExxS1_PNS_8ae_stateE
       3970  F81 00824890 _ZN11alglib_impl16cmatrixrighttrsmExxPNS_9ae_matrixExxbbxS1_xxPNS_8ae_stateE
       3971  F82 00822AB0 _ZN11alglib_impl16cmatrixtransposeExxPNS_9ae_matrixExxS1_xxPNS_8ae_stateE
       3972  F83 008474C0 _ZN11alglib_impl16cmatrixtrinverseEPNS_9ae_matrixExbbPxPNS_12matinvreportEPNS_8ae_stateE
       3973  F84 0080CA70 _ZN11alglib_impl16copyandtransposeEPNS_9ae_matrixExxxxS1_xxxxPNS_8ae_stateE
       3974  F85 0080A7F0 _ZN11alglib_impl16copyintegerarrayEPNS_9ae_vectorES1_PNS_8ae_stateE
       3975  F86 0081A5F0 _ZN11alglib_impl16ftbasefindsmoothExPNS_8ae_stateE
       3976  F87 008108C0 _ZN11alglib_impl16generaterotationEddPdS0_S0_PNS_8ae_stateE
       3977  F88 0083A6A0 _ZN11alglib_impl16hmatrixtdunpackqEPNS_9ae_matrixExbPNS_9ae_vectorES1_PNS_8ae_stateE
       3978  F89 00846C40 _ZN11alglib_impl16hpdmatrixinverseEPNS_9ae_matrixExbPxPNS_12matinvreportEPNS_8ae_stateE
       3979  F8A 0083FD00 _ZN11alglib_impl16hpdmatrixrndcondExdPNS_9ae_matrixEPNS_8ae_stateE
       3980  F8B 0081E780 _ZN11alglib_impl16hqrndexponentialEPNS_10hqrndstateEdPNS_8ae_stateE
       3981  F8C 0080C8C0 _ZN11alglib_impl16inplacetransposeEPNS_9ae_matrixExxxxPNS_9ae_vectorEPNS_8ae_stateE
       3982  F8D 00817830 _ZN11alglib_impl16linminnormalizedEPNS_9ae_vectorEPdxPNS_8ae_stateE
       3983  F8E 00886200 _ZN11alglib_impl16minasaresultsbufEPNS_11minasastateEPNS_9ae_vectorEPNS_12minasareportEPNS_8ae_stateE
       3984  F8F 00871F60 _ZN11alglib_impl16minbleicsetscaleEPNS_13minbleicstateEPNS_9ae_vectorEPNS_8ae_stateE
       3985  F90 0086FA70 _ZN11alglib_impl16mincgrestartfromEPNS_10mincgstateEPNS_9ae_vectorEPNS_8ae_stateE
       3986  F91 0086DEE0 _ZN11alglib_impl16mincgsetprecdiagEPNS_10mincgstateEPNS_9ae_vectorEPNS_8ae_stateE
       3987  F92 0086DD00 _ZN11alglib_impl16mincgsuggeststepEPNS_10mincgstateEdPNS_8ae_stateE
       3988  F93 00876CA0 _ZN11alglib_impl16minlbfgssetscaleEPNS_13minlbfgsstateEPNS_9ae_vectorEPNS_8ae_stateE
       3989  F94 00881E30 _ZN11alglib_impl16minlmrestartfromEPNS_10minlmstateEPNS_9ae_vectorEPNS_8ae_stateE
       3990  F95 00836AD0 _ZN11alglib_impl16rmatrixbdunpackqEPNS_9ae_matrixExxPNS_9ae_vectorExS1_PNS_8ae_stateE
       3991  F96 0080C1E0 _ZN11alglib_impl16rmatrixlefttrsmfExxPNS_9ae_matrixExxbbxS1_xxPNS_8ae_stateE
       3992  F97 008346E0 _ZN11alglib_impl16rmatrixlqunpacklEPNS_9ae_matrixExxS1_PNS_8ae_stateE
       3993  F98 00833E00 _ZN11alglib_impl16rmatrixlqunpackqEPNS_9ae_matrixExxPNS_9ae_vectorExS1_PNS_8ae_stateE
       3994  F99 00844C30 _ZN11alglib_impl16rmatrixluinverseEPNS_9ae_matrixEPNS_9ae_vectorExPxPNS_12matinvreportEPNS_8ae_stateE
       3995  F9A 008332D0 _ZN11alglib_impl16rmatrixqrunpackqEPNS_9ae_matrixExxPNS_9ae_vectorExS1_PNS_8ae_stateE
       3996  F9B 00833BB0 _ZN11alglib_impl16rmatrixqrunpackrEPNS_9ae_matrixExxS1_PNS_8ae_stateE
       3997  F9C 00828070 _ZN11alglib_impl16rmatrixrighttrsmExxPNS_9ae_matrixExxbbxS1_xxPNS_8ae_stateE
       3998  F9D 00822FB0 _ZN11alglib_impl16rmatrixtransposeExxPNS_9ae_matrixExxS1_xxPNS_8ae_stateE
       3999  F9E 00847050 _ZN11alglib_impl16rmatrixtrinverseEPNS_9ae_matrixExbbPxPNS_12matinvreportEPNS_8ae_stateE
       4000  F9F 0080A2B0 _ZN11alglib_impl16serializecomplexEPNS_13ae_serializerENS_10ae_complexEPNS_8ae_stateE
       4001  FA0 00839360 _ZN11alglib_impl16smatrixtdunpackqEPNS_9ae_matrixExbPNS_9ae_vectorES1_PNS_8ae_stateE
       4002  FA1 00846300 _ZN11alglib_impl16spdmatrixinverseEPNS_9ae_matrixExbPxPNS_12matinvreportEPNS_8ae_stateE
       4003  FA2 0083F790 _ZN11alglib_impl16spdmatrixrndcondExdPNS_9ae_matrixEPNS_8ae_stateE
       4004  FA3 00819500 _ZN11alglib_impl17_armijostate_initEPNS_11armijostateEPNS_8ae_stateEb
       4005  FA4 0081CF80 _ZN11alglib_impl17_ftplan_init_copyEPNS_6ftplanES1_PNS_8ae_stateEb
       4006  FA5 0081D510 _ZN11alglib_impl17_hqrndstate_clearEPNS_10hqrndstateE
       4007  FA6 0081EBD0 _ZN11alglib_impl17_kdtree_init_copyEPNS_6kdtreeES1_PNS_8ae_stateEb
       4008  FA7 00819450 _ZN11alglib_impl17_linminstate_initEPNS_11linminstateEPNS_8ae_stateEb
       4009  FA8 008827D0 _ZN11alglib_impl17_minasastate_initEPNS_11minasastateEPNS_8ae_stateEb
       4010  FA9 0086CC40 _ZN11alglib_impl17_mincgreport_initEPNS_11mincgreportEPNS_8ae_stateEb
       4011  FAA 0086C870 _ZN11alglib_impl17_mincgstate_clearEPNS_10mincgstateE
       4012  FAB 0087D3A0 _ZN11alglib_impl17_minlmreport_initEPNS_11minlmreportEPNS_8ae_stateEb
       4013  FAC 0087CE00 _ZN11alglib_impl17_minlmstate_clearEPNS_10minlmstateE
       4014  FAD 00879AD0 _ZN11alglib_impl17_minqpreport_initEPNS_11minqpreportEPNS_8ae_stateEb
       4015  FAE 00879800 _ZN11alglib_impl17_minqpstate_clearEPNS_10minqpstateE
       4016  FAF 0088EAF0 _ZN11alglib_impl17_nleqreport_clearEPNS_10nleqreportE
       4017  FB0 007F9F70 _ZN11alglib_impl17_rcommstate_clearEPNS_10rcommstateE
       4018  FB1 007F75F0 _ZN11alglib_impl17ae_complex_from_dEd
       4019  FB2 007F2D10 _ZN11alglib_impl17ae_get_endiannessEv
       4020  FB3 0080A470 _ZN11alglib_impl17allocintegerarrayEPNS_13ae_serializerEPNS_9ae_vectorExPNS_8ae_stateE
       4021  FB4 00844030 _ZN11alglib_impl17cmatrixlurcondinfEPNS_9ae_matrixExPNS_8ae_stateE
       4022  FB5 0088BA90 _ZN11alglib_impl17cmatrixmixedsolveEPNS_9ae_matrixES1_PNS_9ae_vectorExS3_PxPNS_17densesolverreportES3_PNS_8ae_stateE
       4023  FB6 0080C1B0 _ZN11alglib_impl17cmatrixrighttrsmfExxPNS_9ae_matrixExxbbxS1_xxPNS_8ae_stateE
       4024  FB7 008445B0 _ZN11alglib_impl17cmatrixtrrcondinfEPNS_9ae_matrixExbbPNS_8ae_stateE
       4025  FB8 00869BA0 _ZN11alglib_impl17fblscholeskysolveEPNS_9ae_matrixEdxbPNS_9ae_vectorES3_PNS_8ae_stateE
       4026  FB9 0081C2B0 _ZN11alglib_impl17ftbaseexecuteplanEPNS_9ae_vectorExxPNS_6ftplanEPNS_8ae_stateE
       4027  FBA 00841D70 _ZN11alglib_impl17hpdmatrixcholeskyEPNS_9ae_matrixExbPNS_8ae_stateE
       4028  FBB 00809A40 _ZN11alglib_impl17isfinitertrmatrixEPNS_9ae_matrixExbPNS_8ae_stateE
       4029  FBC 0081FB30 _ZN11alglib_impl17kdtreebuildtaggedEPNS_9ae_matrixEPNS_9ae_vectorExxxxPNS_6kdtreeEPNS_8ae_stateE
       4030  FBD 0081F4D0 _ZN11alglib_impl17kdtreeunserializeEPNS_13ae_serializerEPNS_6kdtreeEPNS_8ae_stateE
       4031  FBE 008863A0 _ZN11alglib_impl17minasarestartfromEPNS_11minasastateEPNS_9ae_vectorES3_S3_PNS_8ae_stateE
       4032  FBF 00872730 _ZN11alglib_impl17minbleiciterationEPNS_13minbleicstateEPNS_8ae_stateE
       4033  FC0 00872430 _ZN11alglib_impl17minbleicsetmaxitsEPNS_13minbleicstateExPNS_8ae_stateE
       4034  FC1 00872620 _ZN11alglib_impl17minbleicsetstpmaxEPNS_13minbleicstateEdPNS_8ae_stateE
       4035  FC2 0086E0B0 _ZN11alglib_impl17mincgsetprecscaleEPNS_10mincgstateEPNS_8ae_stateE
       4036  FC3 00877350 _ZN11alglib_impl17minlbfgsiterationEPNS_13minlbfgsstateEPNS_8ae_stateE
       4037  FC4 00876B80 _ZN11alglib_impl17minlbfgssetstpmaxEPNS_13minlbfgsstateEdPNS_8ae_stateE
       4038  FC5 00837420 _ZN11alglib_impl17rmatrixbdunpackptEPNS_9ae_matrixExxPNS_9ae_vectorExS1_PNS_8ae_stateE
       4039  FC6 00837FF0 _ZN11alglib_impl17rmatrixhessenbergEPNS_9ae_matrixExPNS_9ae_vectorEPNS_8ae_stateE
       4040  FC7 00843B10 _ZN11alglib_impl17rmatrixlurcondinfEPNS_9ae_matrixExPNS_8ae_stateE
       4041  FC8 0088A500 _ZN11alglib_impl17rmatrixmixedsolveEPNS_9ae_matrixES1_PNS_9ae_vectorExS3_PxPNS_17densesolverreportES3_PNS_8ae_stateE
       4042  FC9 0080C1D0 _ZN11alglib_impl17rmatrixrighttrsmfExxPNS_9ae_matrixExxbbxS1_xxPNS_8ae_stateE
       4043  FCA 00842D20 _ZN11alglib_impl17rmatrixtrrcondinfEPNS_9ae_matrixExbbPNS_8ae_stateE
       4044  FCB 0084A7A0 _ZN11alglib_impl17smatrixgevdreduceEPNS_9ae_matrixExbS1_bxS1_PbPNS_8ae_stateE
       4045  FCC 00841F20 _ZN11alglib_impl17spdmatrixcholeskyEPNS_9ae_matrixExbPNS_8ae_stateE
       4046  FCD 00809080 _ZN11alglib_impl17taskgenint1dcheb1EddxPNS_9ae_vectorES1_PNS_8ae_stateE
       4047  FCE 00809280 _ZN11alglib_impl17taskgenint1dcheb2EddxPNS_9ae_vectorES1_PNS_8ae_stateE
       4048  FCF 007F5E30 _ZN11alglib_impl17x_force_hermitianEPNS_8x_matrixE
       4049  FD0 007F5A40 _ZN11alglib_impl17x_force_symmetricEPNS_8x_matrixE
       4050  FD1 00819670 _ZN11alglib_impl18_armijostate_clearEPNS_11armijostateE
       4051  FD2 008194F0 _ZN11alglib_impl18_linminstate_clearEPNS_11linminstateE
       4052  FD3 008448B0 _ZN11alglib_impl18_matinvreport_initEPNS_12matinvreportEPNS_8ae_stateEb
       4053  FD4 008831F0 _ZN11alglib_impl18_minasareport_initEPNS_12minasareportEPNS_8ae_stateEb
       4054  FD5 00882E40 _ZN11alglib_impl18_minasastate_clearEPNS_11minasastateE
       4055  FD6 0086CD20 _ZN11alglib_impl18_mincgreport_clearEPNS_11mincgreportE
       4056  FD7 0087D4B0 _ZN11alglib_impl18_minlmreport_clearEPNS_11minlmreportE
       4057  FD8 00879BD0 _ZN11alglib_impl18_minqpreport_clearEPNS_11minqpreportE
       4058  FD9 007F65B0 _ZN11alglib_impl18ae_force_hermitianEPNS_9ae_matrixE
       4059  FDA 007F6540 _ZN11alglib_impl18ae_force_symmetricEPNS_9ae_matrixE
       4060  FDB 007F4230 _ZN11alglib_impl18ae_isinf_statelessEdx
       4061  FDC 007F41F0 _ZN11alglib_impl18ae_isnan_statelessEdx
       4062  FDD 007F6F70 _ZN11alglib_impl18ae_serializer_initEPNS_13ae_serializerE
       4063  FDE 007F75E0 _ZN11alglib_impl18ae_serializer_stopEPNS_13ae_serializerE
       4064  FDF 0088B7D0 _ZN11alglib_impl18cmatrixmixedsolvemEPNS_9ae_matrixES1_PNS_9ae_vectorExS1_xPxPNS_17densesolverreportES1_PNS_8ae_stateE
       4065  FE0 0080E470 _ZN11alglib_impl18generatereflectionEPNS_9ae_vectorExPdPNS_8ae_stateE
       4066  FE1 00841520 _ZN11alglib_impl18hmatrixrndmultiplyEPNS_9ae_matrixExPNS_8ae_stateE
       4067  FE2 00884190 _ZN11alglib_impl18minasasetalgorithmEPNS_11minasastateExPNS_8ae_stateE
       4068  FE3 00874FC0 _ZN11alglib_impl18minbleicresultsbufEPNS_13minbleicstateEPNS_9ae_vectorEPNS_14minbleicreportEPNS_8ae_stateE
       4069  FE4 00878CD0 _ZN11alglib_impl18minlbfgsresultsbufEPNS_13minlbfgsstateEPNS_9ae_vectorEPNS_14minlbfgsreportEPNS_8ae_stateE
       4070  FE5 0087A170 _ZN11alglib_impl18minqpsetlineartermEPNS_10minqpstateEPNS_9ae_vectorEPNS_8ae_stateE
       4071  FE6 00888650 _ZN11alglib_impl18minqpsetoriginfastEPNS_10minqpstateEPNS_9ae_vectorEPNS_8ae_stateE
       4072  FE7 0084BEE0 _ZN11alglib_impl18rmatrixinvupdateuvEPNS_9ae_matrixExPNS_9ae_vectorES3_PNS_8ae_stateE
       4073  FE8 0088A820 _ZN11alglib_impl18rmatrixmixedsolvemEPNS_9ae_matrixES1_PNS_9ae_vectorExS1_xPxPNS_17densesolverreportES1_PNS_8ae_stateE
       4074  FE9 00813E30 _ZN11alglib_impl18rmatrixtrsafesolveEPNS_9ae_matrixExPNS_9ae_vectorEPdbbbPNS_8ae_stateE
       4075  FEA 0080A370 _ZN11alglib_impl18serializerealarrayEPNS_13ae_serializerEPNS_9ae_vectorExPNS_8ae_stateE
       4076  FEB 00841150 _ZN11alglib_impl18smatrixrndmultiplyEPNS_9ae_matrixExPNS_8ae_stateE
       4077  FEC 0080BC50 _ZN11alglib_impl18tagheapreplacetopiEPNS_9ae_vectorES1_xdxPNS_8ae_stateE
       4078  FED 0080A2E0 _ZN11alglib_impl18unserializecomplexEPNS_13ae_serializerEPNS_8ae_stateE
       4079  FEE 00803870 _ZN11alglib_impl19_ialglib_mcopyblockExxPKdxxPd
       4080  FEF 00844980 _ZN11alglib_impl19_matinvreport_clearEPNS_12matinvreportE
       4081  FF0 008832D0 _ZN11alglib_impl19_minasareport_clearEPNS_12minasareportE
       4082  FF1 0086FC30 _ZN11alglib_impl19_minbleicstate_initEPNS_13minbleicstateEPNS_8ae_stateEb
       4083  FF2 008753A0 _ZN11alglib_impl19_minlbfgsstate_initEPNS_13minlbfgsstateEPNS_8ae_stateEb
       4084  FF3 0084C560 _ZN11alglib_impl19ablasmicroblocksizeEPNS_8ae_stateE
       4085  FF4 007F36A0 _ZN11alglib_impl19ae_matrix_init_copyEPNS_9ae_matrixES1_PNS_8ae_stateEb
       4086  FF5 007F6F80 _ZN11alglib_impl19ae_serializer_clearEPNS_13ae_serializerE
       4087  FF6 007F3110 _ZN11alglib_impl19ae_vector_init_copyEPNS_9ae_vectorES1_PNS_8ae_stateEb
       4088  FF7 00820CB0 _ZN11alglib_impl19kdtreequeryresultsxEPNS_6kdtreeEPNS_9ae_matrixEPNS_8ae_stateE
       4089  FF8 00875210 _ZN11alglib_impl19minbleicrestartfromEPNS_13minbleicstateEPNS_9ae_vectorEPNS_8ae_stateE
       4090  FF9 008721B0 _ZN11alglib_impl19minbleicsetprecdiagEPNS_13minbleicstateEPNS_9ae_vectorEPNS_8ae_stateE
       4091  FFA 0086DE10 _ZN11alglib_impl19mincgsetprecdefaultEPNS_10mincgstateEPNS_8ae_stateE
       4092  FFB 00887100 _ZN11alglib_impl19mincgsetprecvarpartEPNS_10mincgstateEPNS_9ae_vectorEPNS_8ae_stateE
       4093  FFC 00878EC0 _ZN11alglib_impl19minlbfgsrestartfromEPNS_13minlbfgsstateEPNS_9ae_vectorEPNS_8ae_stateE
       4094  FFD 008770F0 _ZN11alglib_impl19minlbfgssetprecdiagEPNS_13minlbfgsstateEPNS_9ae_vectorEPNS_8ae_stateE
       4095  FFE 0084B930 _ZN11alglib_impl19rmatrixinvupdaterowEPNS_9ae_matrixExxPNS_9ae_vectorEPNS_8ae_stateE
       4096  FFF 00814030 _ZN11alglib_impl19safesolvetriangularEPNS_9ae_matrixExPNS_9ae_vectorEPdbbbbS3_PNS_8ae_stateE
       4097 1000 0080A640 _ZN11alglib_impl19serializerealmatrixEPNS_13ae_serializerEPNS_9ae_matrixExxPNS_8ae_stateE
       4098 1001 0080AB30 _ZN11alglib_impl20_apbuffers_init_copyEPNS_9apbuffersES1_PNS_8ae_stateEb
       4099 1002 0086B690 _ZN11alglib_impl20_fblslincgstate_initEPNS_14fblslincgstateEPNS_8ae_stateEb
       4100 1003 008045A0 _ZN11alglib_impl20_ialglib_cmatrixgemmExxxNS_10ae_complexEPS0_xxS1_xxS0_S1_x
       4101 1004 008064B0 _ZN11alglib_impl20_ialglib_cmatrixsyrkExxdPNS_10ae_complexExxdS1_xb
       4102 1005 00804030 _ZN11alglib_impl20_ialglib_rmatrixgemmExxxdPdxxS0_xxdS0_x
       4103 1006 00806AF0 _ZN11alglib_impl20_ialglib_rmatrixsyrkExxdPdxxdS0_xb
       4104 1007 00870C70 _ZN11alglib_impl20_minbleicreport_initEPNS_14minbleicreportEPNS_8ae_stateEb
       4105 1008 008707D0 _ZN11alglib_impl20_minbleicstate_clearEPNS_13minbleicstateE
       4106 1009 00875DA0 _ZN11alglib_impl20_minlbfgsreport_initEPNS_14minlbfgsreportEPNS_8ae_stateEb
       4107 100A 008759E0 _ZN11alglib_impl20_minlbfgsstate_clearEPNS_13minlbfgsstateE
       4108 100B 0088E420 _ZN11alglib_impl20_nleqstate_init_copyEPNS_9nleqstateES1_PNS_8ae_stateEb
       4109 100C 007F38E0 _ZN11alglib_impl20ae_matrix_set_lengthEPNS_9ae_matrixExxPNS_8ae_stateE
       4110 100D 007F31F0 _ZN11alglib_impl20ae_vector_set_lengthEPNS_9ae_vectorExPNS_8ae_stateE
       4111 100E 008098A0 _ZN11alglib_impl20apservisfinitematrixEPNS_9ae_matrixExxPNS_8ae_stateE
       4112 100F 0083EFE0 _ZN11alglib_impl20cmatrixrndorthogonalExPNS_9ae_matrixEPNS_8ae_stateE
       4113 1010 0081A640 _ZN11alglib_impl20ftbaseexecuteplanrecEPNS_9ae_vectorExPNS_6ftplanExxPNS_8ae_stateE
       4114 1011 0081CE10 _ZN11alglib_impl20ftbasefindsmoothevenExPNS_8ae_stateE
       4115 1012 0080DF80 _ZN11alglib_impl20hermitianrank2updateEPNS_9ae_matrixEbxxPNS_9ae_vectorES3_S3_NS_10ae_complexEPNS_8ae_stateE
       4116 1013 00821350 _ZN11alglib_impl20kdtreequeryresultsxiEPNS_6kdtreeEPNS_9ae_matrixEPNS_8ae_stateE
       4117 1014 00820E40 _ZN11alglib_impl20kdtreequeryresultsxyEPNS_6kdtreeEPNS_9ae_matrixEPNS_8ae_stateE
       4118 1015 0080D000 _ZN11alglib_impl20matrixmatrixmultiplyEPNS_9ae_matrixExxxxbS1_xxxxbdS1_xxxxdPNS_9ae_vectorEPNS_8ae_stateE
       4119 1016 0080CB90 _ZN11alglib_impl20matrixvectormultiplyEPNS_9ae_matrixExxxxbPNS_9ae_vectorExxdS3_xxdPNS_8ae_stateE
       4120 1017 00871BA0 _ZN11alglib_impl20minbleicsetinnercondEPNS_13minbleicstateEdddPNS_8ae_stateE
       4121 1018 00871DF0 _ZN11alglib_impl20minbleicsetoutercondEPNS_13minbleicstateEddPNS_8ae_stateE
       4122 1019 00872350 _ZN11alglib_impl20minbleicsetprecscaleEPNS_13minbleicstateEPNS_8ae_stateE
       4123 101A 00886720 _ZN11alglib_impl20mincgsetprecdiagfastEPNS_10mincgstateEPNS_9ae_vectorEPNS_8ae_stateE
       4124 101B 00877290 _ZN11alglib_impl20minlbfgssetprecscaleEPNS_13minlbfgsstateEPNS_8ae_stateE
       4125 101C 008886A0 _ZN11alglib_impl20minqprewritediagonalEPNS_10minqpstateEPNS_9ae_vectorEPNS_8ae_stateE
       4126 101D 0087A980 _ZN11alglib_impl20minqpsetalgocholeskyEPNS_10minqpstateEPNS_8ae_stateE
       4127 101E 00837680 _ZN11alglib_impl20rmatrixbdmultiplybypEPNS_9ae_matrixExxPNS_9ae_vectorES1_xxbbPNS_8ae_stateE
       4128 101F 00836D30 _ZN11alglib_impl20rmatrixbdmultiplybyqEPNS_9ae_matrixExxPNS_9ae_vectorES1_xxbbPNS_8ae_stateE
       4129 1020 0083EBF0 _ZN11alglib_impl20rmatrixrndorthogonalExPNS_9ae_matrixEPNS_8ae_stateE
       4130 1021 00849C60 _ZN11alglib_impl20spdmatrixcholeskydetEPNS_9ae_matrixExPNS_8ae_stateE
       4131 1022 00859C40 _ZN11alglib_impl20spdmatrixcholeskyrecEPNS_9ae_matrixExxbPNS_9ae_vectorEPNS_8ae_stateE
       4132 1023 0080F8B0 _ZN11alglib_impl20symmetricrank2updateEPNS_9ae_matrixEbxxPNS_9ae_vectorES3_S3_dPNS_8ae_stateE
       4133 1024 00808EF0 _ZN11alglib_impl20taskgenint1dequidistEddxPNS_9ae_vectorES1_PNS_8ae_stateE
       4134 1025 0080A3E0 _ZN11alglib_impl20unserializerealarrayEPNS_13ae_serializerEPNS_9ae_vectorEPNS_8ae_stateE
       4135 1026 0080C640 _ZN11alglib_impl20upperhessenberg1normEPNS_9ae_matrixExxxxPNS_9ae_vectorEPNS_8ae_stateE
       4136 1027 0086B9A0 _ZN11alglib_impl21_fblslincgstate_clearEPNS_14fblslincgstateE
       4137 1028 0081D4C0 _ZN11alglib_impl21_hqrndstate_init_copyEPNS_10hqrndstateES1_PNS_8ae_stateEb
       4138 1029 008071D0 _ZN11alglib_impl21_ialglib_cmatrixrank1ExxPNS_10ae_complexExS1_S1_
       4139 102A 00803A90 _ZN11alglib_impl21_ialglib_mcopyunblockExxPKdxPdx
       4140 102B 00807A60 _ZN11alglib_impl21_ialglib_rmatrixrank1ExxPdxS0_S0_
       4141 102C 00870D80 _ZN11alglib_impl21_minbleicreport_clearEPNS_14minbleicreportE
       4142 102D 0086C420 _ZN11alglib_impl21_mincgstate_init_copyEPNS_10mincgstateES1_PNS_8ae_stateEb
       4143 102E 00875E80 _ZN11alglib_impl21_minlbfgsreport_clearEPNS_14minlbfgsreportE
       4144 102F 0087C8A0 _ZN11alglib_impl21_minlmstate_init_copyEPNS_10minlmstateES1_PNS_8ae_stateEb
       4145 1030 00879420 _ZN11alglib_impl21_minqpstate_init_copyEPNS_10minqpstateES1_PNS_8ae_stateEb
       4146 1031 0088EAB0 _ZN11alglib_impl21_nleqreport_init_copyEPNS_10nleqreportES1_PNS_8ae_stateEb
       4147 1032 007F9DC0 _ZN11alglib_impl21_rcommstate_init_copyEPNS_10rcommstateES1_PNS_8ae_stateEb
       4148 1033 0084C650 _ZN11alglib_impl21ablascomplexblocksizeEPNS_9ae_matrixEPNS_8ae_stateE
       4149 1034 007F41D0 _ZN11alglib_impl21ae_isfinite_statelessEdx
       4150 1035 007F42A0 _ZN11alglib_impl21ae_isneginf_statelessEdx
       4151 1036 007F4270 _ZN11alglib_impl21ae_isposinf_statelessEdx
       4152 1037 007F37A0 _ZN11alglib_impl21ae_matrix_init_from_xEPNS_9ae_matrixEPNS_8x_matrixEPNS_8ae_stateEb
       4153 1038 007F3180 _ZN11alglib_impl21ae_vector_init_from_xEPNS_9ae_vectorEPNS_8x_vectorEPNS_8ae_stateEb
       4154 1039 007F4000 _ZN11alglib_impl21ae_x_attach_to_matrixEPNS_8x_matrixEPNS_9ae_matrixE
       4155 103A 007F3FB0 _ZN11alglib_impl21ae_x_attach_to_vectorEPNS_8x_vectorEPNS_9ae_vectorE
       4156 103B 00809960 _ZN11alglib_impl21apservisfinitecmatrixEPNS_9ae_matrixExxPNS_8ae_stateE
       4157 103C 0081CE60 _ZN11alglib_impl21ftbasegetflopestimateExPNS_8ae_stateE
       4158 103D 00821500 _ZN11alglib_impl21kdtreequeryresultsxyiEPNS_6kdtreeEPNS_9ae_matrixEPNS_8ae_stateE
       4159 103E 0087A330 _ZN11alglib_impl21minqpsetquadratictermEPNS_10minqpstateEPNS_9ae_matrixEbPNS_8ae_stateE
       4160 103F 0087A680 _ZN11alglib_impl21minqpsetstartingpointEPNS_10minqpstateEPNS_9ae_vectorEPNS_8ae_stateE
       4161 1040 0080A4C0 _ZN11alglib_impl21serializeintegerarrayEPNS_13ae_serializerEPNS_9ae_vectorExPNS_8ae_stateE
       4162 1041 0080A710 _ZN11alglib_impl21unserializerealmatrixEPNS_13ae_serializerEPNS_9ae_matrixEPNS_8ae_stateE
       4163 1042 00819590 _ZN11alglib_impl22_armijostate_init_copyEPNS_11armijostateES1_PNS_8ae_stateEb
       4164 1043 00803730 _ZN11alglib_impl22_ialglib_vcopy_complexExPKNS_10ae_complexExPdxPKc
       4165 1044 00803650 _ZN11alglib_impl22_ialglib_vzero_complexExPNS_10ae_complexEx
       4166 1045 00819460 _ZN11alglib_impl22_linminstate_init_copyEPNS_11linminstateES1_PNS_8ae_stateEb
       4167 1046 00882AB0 _ZN11alglib_impl22_minasastate_init_copyEPNS_11minasastateES1_PNS_8ae_stateEb
       4168 1047 0086CCE0 _ZN11alglib_impl22_mincgreport_init_copyEPNS_11mincgreportES1_PNS_8ae_stateEb
       4169 1048 0087D450 _ZN11alglib_impl22_minlmreport_init_copyEPNS_11minlmreportES1_PNS_8ae_stateEb
       4170 1049 00879B80 _ZN11alglib_impl22_minqpreport_init_copyEPNS_11minqpreportES1_PNS_8ae_stateEb
       4171 104A 00843D80 _ZN11alglib_impl22hpdmatrixcholeskyrcondEPNS_9ae_matrixExbPNS_8ae_stateE
       4172 104B 0088D4C0 _ZN11alglib_impl22hpdmatrixcholeskysolveEPNS_9ae_matrixExbPNS_9ae_vectorEPxPNS_17densesolverreportES3_PNS_8ae_stateE
       4173 104C 00821030 _ZN11alglib_impl22kdtreequeryresultstagsEPNS_6kdtreeEPNS_9ae_vectorEPNS_8ae_stateE
       4174 104D 008720E0 _ZN11alglib_impl22minbleicsetprecdefaultEPNS_13minbleicstateEPNS_8ae_stateE
       4175 104E 00876E10 _ZN11alglib_impl22minlbfgssetprecdefaultEPNS_13minlbfgsstateEPNS_8ae_stateE
       4176 104F 00888400 _ZN11alglib_impl22minqpsetlineartermfastEPNS_10minqpstateEPNS_9ae_vectorEPNS_8ae_stateE
       4177 1050 0084BC20 _ZN11alglib_impl22rmatrixinvupdatecolumnEPNS_9ae_matrixExxPNS_9ae_vectorEPNS_8ae_stateE
       4178 1051 0084B610 _ZN11alglib_impl22rmatrixinvupdatesimpleEPNS_9ae_matrixExxxdPNS_8ae_stateE
       4179 1052 00843C50 _ZN11alglib_impl22spdmatrixcholeskyrcondEPNS_9ae_matrixExbPNS_8ae_stateE
       4180 1053 0088C770 _ZN11alglib_impl22spdmatrixcholeskysolveEPNS_9ae_matrixExbPNS_9ae_vectorEPxPNS_17densesolverreportES3_PNS_8ae_stateE
       4181 1054 00889080 _ZN11alglib_impl23_densesolverreport_initEPNS_17densesolverreportEPNS_8ae_stateEb
       4182 1055 00807E10 _ZN11alglib_impl23_ialglib_i_cmatrixgemmfExxxNS_10ae_complexEPNS_9ae_matrixExxxS2_xxxS0_S2_xx
       4183 1056 008081A0 _ZN11alglib_impl23_ialglib_i_cmatrixsyrkfExxdPNS_9ae_matrixExxxdS1_xxb
       4184 1057 00807D20 _ZN11alglib_impl23_ialglib_i_rmatrixgemmfExxxdPNS_9ae_matrixExxxS1_xxxdS1_xx
       4185 1058 00808250 _ZN11alglib_impl23_ialglib_i_rmatrixsyrkfExxdPNS_9ae_matrixExxxdS1_xxb
       4186 1059 008037D0 _ZN11alglib_impl23_ialglib_vcopy_dcomplexExPKdxPdxPKc
       4187 105A 00844950 _ZN11alglib_impl23_matinvreport_init_copyEPNS_12matinvreportES1_PNS_8ae_stateEb
       4188 105B 00883290 _ZN11alglib_impl23_minasareport_init_copyEPNS_12minasareportES1_PNS_8ae_stateEb
       4189 105C 0084C570 _ZN11alglib_impl23ablascomplexsplitlengthEPNS_9ae_matrixExPxS2_PNS_8ae_stateE
       4190 105D 00809B10 _ZN11alglib_impl23apservisfinitectrmatrixEPNS_9ae_matrixExbPNS_8ae_stateE
       4191 105E 00809610 _ZN11alglib_impl23bvectorsetlengthatleastEPNS_9ae_vectorExPNS_8ae_stateE
       4192 105F 00808CE0 _ZN11alglib_impl23getmlpserializationcodeEPNS_8ae_stateE
       4193 1060 00808CC0 _ZN11alglib_impl23getrdfserializationcodeEPNS_8ae_stateE
       4194 1061 0088D1E0 _ZN11alglib_impl23hpdmatrixcholeskysolvemEPNS_9ae_matrixExbS1_xPxPNS_17densesolverreportES1_PNS_8ae_stateE
       4195 1062 00809620 _ZN11alglib_impl23ivectorsetlengthatleastEPNS_9ae_vectorExPNS_8ae_stateE
       4196 1063 00821640 _ZN11alglib_impl23kdtreequeryresultstagsiEPNS_6kdtreeEPNS_9ae_vectorEPNS_8ae_stateE
       4197 1064 008837B0 _ZN11alglib_impl23minbleicsetbarrierdecayEPNS_13minbleicstateEdPNS_8ae_stateE
       4198 1065 00883700 _ZN11alglib_impl23minbleicsetbarrierwidthEPNS_13minbleicstateEdPNS_8ae_stateE
       4199 1066 00886C90 _ZN11alglib_impl23mincgsetpreclowrankfastEPNS_10mincgstateEPNS_9ae_vectorES3_PNS_9ae_matrixExPNS_8ae_stateE
       4200 1067 00876EF0 _ZN11alglib_impl23minlbfgssetpreccholeskyEPNS_13minlbfgsstateEPNS_9ae_matrixEbPNS_8ae_stateE
       4201 1068 00809640 _ZN11alglib_impl23rmatrixsetlengthatleastEPNS_9ae_matrixExxPNS_8ae_stateE
       4202 1069 00809630 _ZN11alglib_impl23rvectorsetlengthatleastEPNS_9ae_vectorExPNS_8ae_stateE
       4203 106A 0088C4A0 _ZN11alglib_impl23spdmatrixcholeskysolvemEPNS_9ae_matrixExbS1_xPxPNS_17densesolverreportES1_PNS_8ae_stateE
       4204 106B 0080A530 _ZN11alglib_impl23unserializeintegerarrayEPNS_13ae_serializerEPNS_9ae_vectorEPNS_8ae_stateE
       4205 106C 00889150 _ZN11alglib_impl24_densesolverreport_clearEPNS_17densesolverreportE
       4206 106D 008057C0 _ZN11alglib_impl24_ialglib_cmatrixlefttrsmExxPNS_10ae_complexExbbxS1_x
       4207 106E 00808300 _ZN11alglib_impl24_ialglib_i_cmatrixrank1fExxPNS_9ae_matrixExxPNS_9ae_vectorExS3_x
       4208 106F 00808370 _ZN11alglib_impl24_ialglib_i_rmatrixrank1fExxPNS_9ae_matrixExxPNS_9ae_vectorExS3_x
       4209 1070 00805E50 _ZN11alglib_impl24_ialglib_rmatrixlefttrsmExxPdxbbxS0_x
       4210 1071 00870170 _ZN11alglib_impl24_minbleicstate_init_copyEPNS_13minbleicstateES1_PNS_8ae_stateEb
       4211 1072 00875650 _ZN11alglib_impl24_minlbfgsstate_init_copyEPNS_13minlbfgsstateES1_PNS_8ae_stateEb
       4212 1073 007F7040 _ZN11alglib_impl24ae_serializer_sstart_strEPNS_13ae_serializerEPNSt3__112basic_stringIcNS2_11char_traitsIcEENS2_9allocatorIcEEEE
       4213 1074 007F7080 _ZN11alglib_impl24ae_serializer_sstart_strEPNS_13ae_serializerEPc
       4214 1075 007F7060 _ZN11alglib_impl24ae_serializer_ustart_strEPNS_13ae_serializerEPKNSt3__112basic_stringIcNS2_11char_traitsIcEENS2_9allocatorIcEEEE
       4215 1076 007F70A0 _ZN11alglib_impl24ae_serializer_ustart_strEPNS_13ae_serializerEPKc
       4216 1077 00816080 _ZN11alglib_impl24cmatrixscaledtrsafesolveEPNS_9ae_matrixEdxPNS_9ae_vectorEbxbdPNS_8ae_stateE
       4217 1078 00846700 _ZN11alglib_impl24hpdmatrixcholeskyinverseEPNS_9ae_matrixExbPxPNS_12matinvreportEPNS_8ae_stateE
       4218 1079 00837DB0 _ZN11alglib_impl24rmatrixbdunpackdiagonalsEPNS_9ae_matrixExxPbPNS_9ae_vectorES4_PNS_8ae_stateE
       4219 107A 00838630 _ZN11alglib_impl24rmatrixhessenbergunpackhEPNS_9ae_matrixExS1_PNS_8ae_stateE
       4220 107B 00838350 _ZN11alglib_impl24rmatrixhessenbergunpackqEPNS_9ae_matrixExPNS_9ae_vectorES1_PNS_8ae_stateE
       4221 107C 00815620 _ZN11alglib_impl24rmatrixscaledtrsafesolveEPNS_9ae_matrixEdxPNS_9ae_vectorEbxbdPNS_8ae_stateE
       4222 107D 00845E40 _ZN11alglib_impl24spdmatrixcholeskyinverseEPNS_9ae_matrixExbPxPNS_12matinvreportEPNS_8ae_stateE
       4223 107E 008893C0 _ZN11alglib_impl25_densesolverlsreport_initEPNS_19densesolverlsreportEPNS_8ae_stateEb
       4224 107F 0086B810 _ZN11alglib_impl25_fblslincgstate_init_copyEPNS_14fblslincgstateES1_PNS_8ae_stateEb
       4225 1080 00804B20 _ZN11alglib_impl25_ialglib_cmatrixrighttrsmExxPNS_10ae_complexExbbxS1_x
       4226 1081 008051C0 _ZN11alglib_impl25_ialglib_rmatrixrighttrsmExxPdxbbxS0_x
       4227 1082 00870D20 _ZN11alglib_impl25_minbleicreport_init_copyEPNS_14minbleicreportES1_PNS_8ae_stateEb
       4228 1083 00875E40 _ZN11alglib_impl25_minlbfgsreport_init_copyEPNS_14minlbfgsreportES1_PNS_8ae_stateEb
       4229 1084 007F66B0 _ZN11alglib_impl25ae_foursixbits2threebytesEPKxPh
       4230 1085 007F6FB0 _ZN11alglib_impl25ae_serializer_alloc_entryEPNS_13ae_serializerE
       4231 1086 007F6F90 _ZN11alglib_impl25ae_serializer_alloc_startEPNS_13ae_serializerE
       4232 1087 007F6660 _ZN11alglib_impl25ae_threebytes2foursixbitsEPKhPx
       4233 1088 0080FC30 _ZN11alglib_impl25applyrotationsfromtheleftEbxxxxPNS_9ae_vectorES1_PNS_9ae_matrixES1_PNS_8ae_stateE
       4234 1089 00809C00 _ZN11alglib_impl25apservisfiniteornanmatrixEPNS_9ae_matrixExxPNS_8ae_stateE
       4235 108A 0080EA70 _ZN11alglib_impl25complexgeneratereflectionEPNS_9ae_vectorExPNS_10ae_complexEPNS_8ae_stateE
       4236 108B 0081BFC0 _ZN11alglib_impl25ftbasegeneraterealfftplanExPNS_6ftplanEPNS_8ae_stateE
       4237 108C 0081C140 _ZN11alglib_impl25ftbasegeneraterealfhtplanExPNS_6ftplanEPNS_8ae_stateE
       4238 108D 00888450 _ZN11alglib_impl25minqpsetquadratictermfastEPNS_10minqpstateEPNS_9ae_matrixEbdPNS_8ae_stateE
       4239 108E 00888600 _ZN11alglib_impl25minqpsetstartingpointfastEPNS_10minqpstateEPNS_9ae_vectorEPNS_8ae_stateE
       4240 108F 008895A0 _ZN11alglib_impl26_densesolverlsreport_clearEPNS_19densesolverlsreportE
       4241 1090 0080E770 _ZN11alglib_impl26applyreflectionfromtheleftEPNS_9ae_matrixEdPNS_9ae_vectorExxxxS3_PNS_8ae_stateE
       4242 1091 00810250 _ZN11alglib_impl26applyrotationsfromtherightEbxxxxPNS_9ae_vectorES1_PNS_9ae_matrixES1_PNS_8ae_stateE
       4243 1092 00869AA0 _ZN11alglib_impl26bidiagonalsvddecompositionEPNS_9ae_vectorES1_xbbPNS_9ae_matrixExS3_xS3_xPNS_8ae_stateE
       4244 1093 00808CD0 _ZN11alglib_impl26getkdtreeserializationcodeEPNS_8ae_stateE
       4245 1094 00810B60 _ZN11alglib_impl26internalschurdecompositionEPNS_9ae_matrixExxxPNS_9ae_vectorES3_S1_PxPNS_8ae_stateE
       4246 1095 00808060 _ZN11alglib_impl27_ialglib_i_cmatrixlefttrsmfExxPNS_9ae_matrixExxbbxS1_xx
       4247 1096 00808100 _ZN11alglib_impl27_ialglib_i_rmatrixlefttrsmfExxPNS_9ae_matrixExxbbxS1_xx
       4248 1097 00803CB0 _ZN11alglib_impl27_ialglib_mcopyblock_complexExxPKNS_10ae_complexExxPd
       4249 1098 007F71B0 _ZN11alglib_impl27ae_serializer_serialize_intEPNS_13ae_serializerExPNS_8ae_stateE
       4250 1099 0080E940 _ZN11alglib_impl27applyreflectionfromtherightEPNS_9ae_matrixEdPNS_9ae_vectorExxxxS3_PNS_8ae_stateE
       4251 109A 00821160 _ZN11alglib_impl27kdtreequeryresultsdistancesEPNS_6kdtreeEPNS_9ae_vectorEPNS_8ae_stateE
       4252 109B 00889120 _ZN11alglib_impl28_densesolverreport_init_copyEPNS_17densesolverreportES1_PNS_8ae_stateEb
       4253 109C 00807F20 _ZN11alglib_impl28_ialglib_i_cmatrixrighttrsmfExxPNS_9ae_matrixExxbbxS1_xx
       4254 109D 00807FC0 _ZN11alglib_impl28_ialglib_i_rmatrixrighttrsmfExxPNS_9ae_matrixExxbbxS1_xx
       4255 109E 007F6FC0 _ZN11alglib_impl28ae_serializer_get_alloc_sizeEPNS_13ae_serializerE
       4256 109F 007F70B0 _ZN11alglib_impl28ae_serializer_serialize_boolEPNS_13ae_serializerEbPNS_8ae_stateE
       4257 10A0 00819760 _ZN11alglib_impl28ftbasegeneratecomplexfftplanExPNS_6ftplanEPNS_8ae_stateE
       4258 10A1 00821790 _ZN11alglib_impl28kdtreequeryresultsdistancesiEPNS_6kdtreeEPNS_9ae_vectorEPNS_8ae_stateE
       4259 10A2 00803E70 _ZN11alglib_impl29_ialglib_mcopyunblock_complexExxPKdxPNS_10ae_complexEx
       4260 10A3 007F2B90 _ZN11alglib_impl29ae_matrix_update_row_pointersEPNS_9ae_matrixEPv
       4261 10A4 007F7580 _ZN11alglib_impl29ae_serializer_unserialize_intEPNS_13ae_serializerEPxPNS_8ae_stateE
       4262 10A5 0080DAF0 _ZN11alglib_impl29hermitianmatrixvectormultiplyEPNS_9ae_matrixEbxxPNS_9ae_vectorENS_10ae_complexES3_PNS_8ae_stateE
       4263 10A6 0080F5B0 _ZN11alglib_impl29symmetricmatrixvectormultiplyEPNS_9ae_matrixEbxxPNS_9ae_vectorEdS3_PNS_8ae_stateE
       4264 10A7 008894C0 _ZN11alglib_impl30_densesolverlsreport_init_copyEPNS_19densesolverlsreportES1_PNS_8ae_stateEb
       4265 10A8 007F73F0 _ZN11alglib_impl30ae_serializer_serialize_doubleEPNS_13ae_serializerEdPNS_8ae_stateE
       4266 10A9 007F74D0 _ZN11alglib_impl30ae_serializer_unserialize_boolEPNS_13ae_serializerEPbPNS_8ae_stateE
       4267 10AA 00840CA0 _ZN11alglib_impl31cmatrixrndorthogonalfromtheleftEPNS_9ae_matrixExxPNS_8ae_stateE
       4268 10AB 008403F0 _ZN11alglib_impl31rmatrixrndorthogonalfromtheleftEPNS_9ae_matrixExxPNS_8ae_stateE
       4269 10AC 007F75B0 _ZN11alglib_impl32ae_serializer_unserialize_doubleEPNS_13ae_serializerEPdPNS_8ae_stateE
       4270 10AD 008407F0 _ZN11alglib_impl32cmatrixrndorthogonalfromtherightEPNS_9ae_matrixExxPNS_8ae_stateE
       4271 10AE 00883570 _ZN11alglib_impl32minlbfgssetdefaultpreconditionerEPNS_13minlbfgsstateEPNS_8ae_stateE
       4272 10AF 0083FFE0 _ZN11alglib_impl32rmatrixrndorthogonalfromtherightEPNS_9ae_matrixExxPNS_8ae_stateE
       4273 10B0 0080F080 _ZN11alglib_impl33complexapplyreflectionfromtheleftEPNS_9ae_matrixENS_10ae_complexEPNS_9ae_vectorExxxxS4_PNS_8ae_stateE
       4274 10B1 00883650 _ZN11alglib_impl33minlbfgssetcholeskypreconditionerEPNS_13minlbfgsstateEPNS_9ae_matrixEbPNS_8ae_stateE
       4275 10B2 00810A90 _ZN11alglib_impl33upperhessenbergschurdecompositionEPNS_9ae_matrixExS1_PNS_8ae_stateE
       4276 10B3 0080F320 _ZN11alglib_impl34complexapplyreflectionfromtherightEPNS_9ae_matrixENS_10ae_complexEPNS_9ae_vectorExxxxS4_PNS_8ae_stateE
       4277 10B4 00816F70 _ZN11alglib_impl4xdotEPNS_9ae_vectorES1_xS1_PdS2_PNS_8ae_stateE
       4278 10B5 0080BE30 _ZN11alglib_impl5rankxEPNS_9ae_vectorExPNS_9apbuffersEPNS_8ae_stateE
       4279 10B6 008174E0 _ZN11alglib_impl5xcdotEPNS_9ae_vectorES1_xS1_PNS_10ae_complexEPdPNS_8ae_stateE
       4280 10B7 007F45E0 _ZN11alglib_impl6ae_cosEdPNS_8ae_stateE
       4281 10B8 007F4690 _ZN11alglib_impl6ae_expEdPNS_8ae_stateE
       4282 10B9 007F4670 _ZN11alglib_impl6ae_logEdPNS_8ae_stateE
       4283 10BA 007F4680 _ZN11alglib_impl6ae_powEddPNS_8ae_stateE
       4284 10BB 007F45D0 _ZN11alglib_impl6ae_sinEdPNS_8ae_stateE
       4285 10BC 007F4410 _ZN11alglib_impl6ae_sqrEdPNS_8ae_stateE
       4286 10BD 007F45F0 _ZN11alglib_impl6ae_tanEdPNS_8ae_stateE
       4287 10BE 00817980 _ZN11alglib_impl6mcsrchExPNS_9ae_vectorEPdS1_S1_S2_ddPxS3_S1_PNS_11linminstateES3_PNS_8ae_stateE
       4288 10BF 007F4640 _ZN11alglib_impl7ae_acosEdPNS_8ae_stateE
       4289 10C0 007F4630 _ZN11alglib_impl7ae_asinEdPNS_8ae_stateE
       4290 10C1 007F4650 _ZN11alglib_impl7ae_atanEdPNS_8ae_stateE
       4291 10C2 007F76E0 _ZN11alglib_impl7ae_c_eqENS_10ae_complexES0_
       4292 10C3 007F4610 _ZN11alglib_impl7ae_coshEdPNS_8ae_stateE
       4293 10C4 007F43F0 _ZN11alglib_impl7ae_fabsEdPNS_8ae_stateE
       4294 10C5 007F2B80 _ZN11alglib_impl7ae_freeEPv
       4295 10C6 007F4400 _ZN11alglib_impl7ae_iabsExPNS_8ae_stateE
       4296 10C7 007F4440 _ZN11alglib_impl7ae_signEdPNS_8ae_stateE
       4297 10C8 007F4600 _ZN11alglib_impl7ae_sinhEdPNS_8ae_stateE
       4298 10C9 007F4420 _ZN11alglib_impl7ae_sqrtEdPNS_8ae_stateE
       4299 10CA 007F4620 _ZN11alglib_impl7ae_tanhEdPNS_8ae_stateE
       4300 10CB 0081D1C0 _ZN11alglib_impl7nucosm1EdPNS_8ae_stateE
       4301 10CC 0081D110 _ZN11alglib_impl7nuexpm1EdPNS_8ae_stateE
       4302 10CD 0081D000 _ZN11alglib_impl7nulog1pEdPNS_8ae_stateE
       4303 10CE 0080CF50 _ZN11alglib_impl7pythag2EddPNS_8ae_stateE
       4304 10CF 0080ACA0 _ZN11alglib_impl7tagsortEPNS_9ae_vectorExS1_S1_PNS_8ae_stateE
       4305 10D0 007F2930 _ZN11alglib_impl8ae_alignEPvy
       4306 10D1 007F4660 _ZN11alglib_impl8ae_atan2EddPNS_8ae_stateE
       4307 10D2 007F2950 _ZN11alglib_impl8ae_breakEPNS_8ae_stateENS_13ae_error_typeEPKc
       4308 10D3 007F7670 _ZN11alglib_impl8ae_c_absENS_10ae_complexEPNS_8ae_stateE
       4309 10D4 007F77A0 _ZN11alglib_impl8ae_c_addENS_10ae_complexES0_
       4310 10D5 007F7820 _ZN11alglib_impl8ae_c_divENS_10ae_complexES0_
       4311 10D6 007F77C0 _ZN11alglib_impl8ae_c_mulENS_10ae_complexES0_
       4312 10D7 007F7600 _ZN11alglib_impl8ae_c_negENS_10ae_complexE
       4313 10D8 007F7740 _ZN11alglib_impl8ae_c_neqENS_10ae_complexES0_
       4314 10D9 007F7640 _ZN11alglib_impl8ae_c_sqrENS_10ae_complexEPNS_8ae_stateE
       4315 10DA 007F7800 _ZN11alglib_impl8ae_c_subENS_10ae_complexES0_
       4316 10DB 007F4090 _ZN11alglib_impl8ae_cpuidEv
       4317 10DC 007F40B0 _ZN11alglib_impl8ae_fp_eqEdd
       4318 10DD 007F44D0 _ZN11alglib_impl8ae_iceilEdPNS_8ae_stateE
       4319 10DE 007F4340 _ZN11alglib_impl8ae_isinfEdPNS_8ae_stateE
       4320 10DF 007F4300 _ZN11alglib_impl8ae_isnanEdPNS_8ae_stateE
       4321 10E0 007F4460 _ZN11alglib_impl8ae_roundEdPNS_8ae_stateE
       4322 10E1 007F44A0 _ZN11alglib_impl8ae_truncEdPNS_8ae_stateE
       4323 10E2 007F9720 _ZN11alglib_impl8ae_v_addEPdxPKdxx
       4324 10E3 007F9C70 _ZN11alglib_impl8ae_v_lenExx
       4325 10E4 007F9960 _ZN11alglib_impl8ae_v_subEPdxPKdxx
       4326 10E5 0080A230 _ZN11alglib_impl8boundvalEdddPNS_8ae_stateE
       4327 10E6 00809EA0 _ZN11alglib_impl8saferdivEddPdPNS_8ae_stateE
       4328 10E7 007F2E90 _ZN11alglib_impl9ae_assertEbPKcPNS_8ae_stateE
       4329 10E8 007F7620 _ZN11alglib_impl9ae_c_conjENS_10ae_complexEPNS_8ae_stateE
       4330 10E9 007F78D0 _ZN11alglib_impl9ae_c_eq_dENS_10ae_complexEd
       4331 10EA 007F40E0 _ZN11alglib_impl9ae_fp_neqEdd
       4332 10EB 007F4480 _ZN11alglib_impl9ae_ifloorEdPNS_8ae_stateE
       4333 10EC 007F2B20 _ZN11alglib_impl9ae_mallocEyPNS_8ae_stateE
       4334 10ED 007F44F0 _ZN11alglib_impl9ae_maxintExxPNS_8ae_stateE
       4335 10EE 007F4500 _ZN11alglib_impl9ae_minintExxPNS_8ae_stateE
       4336 10EF 007F2CA0 _ZN11alglib_impl9ae_sizeofEx
       4337 10F0 007F97C0 _ZN11alglib_impl9ae_v_adddEPdxPKdxxd
       4338 10F1 007F86A0 _ZN11alglib_impl9ae_v_caddEPNS_10ae_complexExPKS0_xPKcx
       4339 10F2 007F8F90 _ZN11alglib_impl9ae_v_csubEPNS_10ae_complexExPKS0_xPKcx
       4340 10F3 007F9490 _ZN11alglib_impl9ae_v_moveEPdxPKdxx
       4341 10F4 007F9BB0 _ZN11alglib_impl9ae_v_muldEPdxxd
       4342 10F5 007F9A00 _ZN11alglib_impl9ae_v_subdEPdxPKdxxd
       4343 10F6 008327E0 _ZN11alglib_impl9cmatrixlqEPNS_9ae_matrixExxPNS_9ae_vectorEPNS_8ae_stateE
       4344 10F7 00841BD0 _ZN11alglib_impl9cmatrixluEPNS_9ae_matrixExxPNS_9ae_vectorEPNS_8ae_stateE
       4345 10F8 00823FA0 _ZN11alglib_impl9cmatrixmvExxPNS_9ae_matrixExxxPNS_9ae_vectorExS3_xPNS_8ae_stateE
       4346 10F9 00831CA0 _ZN11alglib_impl9cmatrixqrEPNS_9ae_matrixExxPNS_9ae_vectorEPNS_8ae_stateE
       4347 10FA 008397D0 _ZN11alglib_impl9hmatrixtdEPNS_9ae_matrixExbPNS_9ae_vectorES3_S3_PNS_8ae_stateE
       4348 10FB 0081D9F0 _ZN11alglib_impl9hqrndseedExxPNS_10hqrndstateEPNS_8ae_stateE
       4349 10FC 0080A960 _ZN11alglib_impl9recsearchEPNS_9ae_vectorExxxxS1_PNS_8ae_stateE
       4350 10FD 008362A0 _ZN11alglib_impl9rmatrixbdEPNS_9ae_matrixExxPNS_9ae_vectorES3_PNS_8ae_stateE
       4351 10FE 00831300 _ZN11alglib_impl9rmatrixlqEPNS_9ae_matrixExxPNS_9ae_vectorEPNS_8ae_stateE
       4352 10FF 00841A40 _ZN11alglib_impl9rmatrixluEPNS_9ae_matrixExxPNS_9ae_vectorEPNS_8ae_stateE
       4353 1100 008244E0 _ZN11alglib_impl9rmatrixmvExxPNS_9ae_matrixExxxPNS_9ae_vectorExS3_xPNS_8ae_stateE
       4354 1101 00830940 _ZN11alglib_impl9rmatrixqrEPNS_9ae_matrixExxPNS_9ae_vectorEPNS_8ae_stateE
       4355 1102 00838890 _ZN11alglib_impl9smatrixtdEPNS_9ae_matrixExbPNS_9ae_vectorES3_S3_PNS_8ae_stateE
       4356 1103 00144500 _ZN11bezierBasis10_constructEv
       4357 1104 00143BA0 _ZN11bezierBasis13_constructPyrEv
       4358 1105 00143AA0 _ZN11bezierBasisC1E13FuncSpaceData
       4359 1106 00143AA0 _ZN11bezierBasisC2E13FuncSpaceData
       4360 1107 00144CD0 _ZN11bezierBasisD1Ev
       4361 1108 00144CD0 _ZN11bezierBasisD2Ev
       4362 1109 001547C0 _ZN11bezierCoeff10_subdivideER10fullMatrixIdEii
       4363 110A 00154920 _ZN11bezierCoeff10_subdivideER10fullMatrixIdEiii
       4364 110B 0014AD00 _ZN11bezierCoeff12releasePoolsEv
       4365 110C 00154ED0 _ZN11bezierCoeff13_subdivideTetENS_14SubdivisionTetEiRS_
       4366 110D 0014AD90 _ZN11bezierCoeff13updateDataPtrEl
       4367 110E 00151760 _ZN11bezierCoeff15_subdividePrismERKS_RNSt3__16vectorIPS_NS2_9allocatorIS4_EEEE
       4368 110F 001523A0 _ZN11bezierCoeff17_subdividePyramidERKS_RNSt3__16vectorIPS_NS2_9allocatorIS4_EEEE
       4369 1110 0014C0D0 _ZN11bezierCoeff18_subdivideTriangleERKS_iRNSt3__16vectorIPS_NS2_9allocatorIS4_EEEE
       4370 1111 001493D0 _ZN11bezierCoeff20_computeCoefficientsEPKd
       4371 1112 0014F340 _ZN11bezierCoeff20_subdivideHexahedronERKS_RNSt3__16vectorIPS_NS2_9allocatorIS4_EEEE
       4372 1113 0014D5C0 _ZN11bezierCoeff20_subdivideQuadrangleERKS_RNSt3__16vectorIPS_NS2_9allocatorIS4_EEEE
       4373 1114 0014E810 _ZN11bezierCoeff21_subdivideTetrahedronERKS_RNSt3__16vectorIPS_NS2_9allocatorIS4_EEEE
       4374 1115 013D1978 _ZN11bezierCoeff4_subE
       4375 1116 00154D30 _ZN11bezierCoeff5_copyERKS_iiRS_
       4376 1117 013D1968 _ZN11bezierCoeff6_pool0E
       4377 1118 013D1970 _ZN11bezierCoeff6_pool1E
       4378 1119 00156F40 _ZN11bezierCoeff8_copyHexERK10fullMatrixIdEiiiiRS_
       4379 111A 001573B0 _ZN11bezierCoeff8_copyPyrERK10fullMatrixIdEiiiiiRS_
       4380 111B 0014ABD0 _ZN11bezierCoeff8usePoolsEyy
       4381 111C 00157210 _ZN11bezierCoeff9_copyLineERK10fullMatrixIdEiiRS_
       4382 111D 00156CE0 _ZN11bezierCoeff9_copyQuadERK10fullMatrixIdEiiiRS_
       4383 111E 00149050 _ZN11bezierCoeffC1E13FuncSpaceDataRK10fullMatrixIdEi
       4384 111F 00149E70 _ZN11bezierCoeffC1E13FuncSpaceDataRK10fullVectorIdEi
       4385 1120 00149F70 _ZN11bezierCoeffC1ERKS_b
       4386 1121 00149050 _ZN11bezierCoeffC2E13FuncSpaceDataRK10fullMatrixIdEi
       4387 1122 00149E70 _ZN11bezierCoeffC2E13FuncSpaceDataRK10fullVectorIdEi
       4388 1123 00149F70 _ZN11bezierCoeffC2ERKS_b
       4389 1124 0014A0B0 _ZN11bezierCoeffD1Ev
       4390 1125 0014A0B0 _ZN11bezierCoeffD2Ev
       4391 1126 003F3970 _ZN11deMeshGEdgeclEP5GEdge
       4392 1127 003FAAE0 _ZN11deMeshGFaceclEP5GFace
       4393 1128 002A7E60 _ZN11extrudeInfo13_isCompatibleEP13ExtrudeParamsS1_
       4394 1129 002A5B80 _ZN11extrudeInfo17fillExtrudeParamsERKNSt3__16vectorIiNS0_9allocatorIiEEEERKNS1_IdNS2_IdEEEEbb
       4395 112A 002A7C00 _ZN11extrudeInfo18_fillExtrudeParamsEP13ExtrudeParamsiRKNSt3__16vectorIiNS2_9allocatorIiEEEERKNS3_IdNS4_IdEEEEb
       4396 112B 002E6910 _ZN11ghostRegion10addElementEiP8MElementi
       4397 112C 002E60B0 _ZN11ghostRegion12setPartitionEi
       4398 112D 002E60D0 _ZN11ghostRegion13getGhostCellsEv
       4399 112E 002E6000 _ZN11ghostRegionD0Ev
       4400 112F 002E5F60 _ZN11ghostRegionD2Ev
       4401 1130 00236EA0 _ZN11gmshSurface10getSurfaceEi
       4402 1131 00236840 _ZN11gmshSurface12parFromPointEddd
       4403 1132 013D1EB0 _ZN11gmshSurface15allGmshSurfacesE
       4404 1133 00236900 _ZN11gmshSurface19getMetricEigenvalueERK7SPoint2
       4405 1134 002368B0 _ZN11gmshSurface8firstDerERK7SPoint2
       4406 1135 00237510 _ZN11gmshSurfaceD0Ev
       4407 1136 00237500 _ZN11gmshSurfaceD2Ev
       4408 1137 005241C0 _ZN11laplaceTermD0Ev
       4409 1138 00462EE0 _ZN11meshGRegionclEP7GRegion
       4410 1139 00079640 _ZN11onelabUtils11updateGraphERKNSt3__112basic_stringIcNS0_11char_traitsIcEENS0_9allocatorIcEEEE
       4411 113A 0007F510 _ZN11onelabUtils12updateGraphsEv
       4412 113B 0007E3A0 _ZN11onelabUtils12updateNumberERN6onelab6numberES2_b
       4413 113C 0007EFD0 _ZN11onelabUtils12updateStringERN6onelab6stringES2_
       4414 113D 000787F0 _ZN11onelabUtils13incrementLoopERKNSt3__112basic_stringIcNS0_11char_traitsIcEENS0_9allocatorIcEEEE
       4415 113E 0007A280 _ZN11onelabUtils13runGmshClientERKNSt3__112basic_stringIcNS0_11char_traitsIcEENS0_9allocatorIcEEEEi
       4416 113F 00075870 _ZN11onelabUtils14getCommandLineEPN6onelab6clientE
       4417 1140 00076D30 _ZN11onelabUtils14getMshFileNameEPN6onelab6clientE
       4418 1141 000771B0 _ZN11onelabUtils14guessModelNameEPN6onelab6clientE
       4419 1142 0007C7A0 _ZN11onelabUtils14incrementLoopsEv
       4420 1143 00077F30 _ZN11onelabUtils14initializeLoopERKNSt3__112basic_stringIcNS0_11char_traitsIcEENS0_9allocatorIcEEEE
       4421 1144 0007EB00 _ZN11onelabUtils15haveSolverToRunEv
       4422 1145 0007C750 _ZN11onelabUtils15initializeLoopsEv
       4423 1146 0007CA10 _ZN11onelabUtils18archiveOutputFilesERKNSt3__112basic_stringIcNS0_11char_traitsIcEENS0_9allocatorIcEEEE
       4424 1147 0007F810 _ZN11onelabUtils20archiveSolutionFilesERKNSt3__112basic_stringIcNS0_11char_traitsIcEENS0_9allocatorIcEEEE
       4425 1148 0007A270 _ZN11onelabUtils23getFirstComputationFlagEv
       4426 1149 000787E0 _ZN11onelabUtils23setFirstComputationFlagEb
       4427 114A 0007C530 _ZN11onelabUtils6loadDbERKNSt3__112basic_stringIcNS0_11char_traitsIcEENS0_9allocatorIcEEEE
       4428 114B 0007E200 _ZN11onelabUtils6saveDbERKNSt3__112basic_stringIcNS0_11char_traitsIcEENS0_9allocatorIcEEEE
       4429 114C 000803A0 _ZN11onelabUtils7resetDbEb
       4430 114D 00079310 _ZN11onelabUtils8getRangeERN6onelab6numberE
       4431 114E 0007AF70 _ZN11onelabUtils9runClientERKNSt3__112basic_stringIcNS0_11char_traitsIcEENS0_9allocatorIcEEEES8_
       4432 114F 0007F6D0 _ZN11onelabUtils9timeStampEv
       4433 1150 00063B30 _ZN11smooth_data3addEdddiPd
       4434 1151 00063EE0 _ZN11smooth_data9add_scaleEdddd
       4435 1152 000643C0 _ZN11smooth_data9normalizeEv
       4436 1153 006FC8D0 _ZN11tetrahedron11getNumEdgesEv
       4437 1154 006FC870 _ZN11tetrahedron11getNumNodesEv
       4438 1155 006FC860 _ZN11tetrahedron12getDimensionEv
       4439 1156 006FC990 _ZN11tetrahedron13getGaussPointEiRdS0_S0_S0_
       4440 1157 006FC9F0 _ZN11tetrahedron16getShapeFunctionEidddRd
       4441 1158 006FC980 _ZN11tetrahedron17getNumGaussPointsEv
       4442 1159 006FCA50 _ZN11tetrahedron20getGradShapeFunctionEidddPd
       4443 115A 006FC8E0 _ZN11tetrahedron7getEdgeEiRiS0_
       4444 115B 006FC880 _ZN11tetrahedron7getNodeEiRdS0_S0_
       4445 115C 006FC6A0 _ZN11tetrahedron7xyz2uvwEPdS0_
       4446 115D 006FC790 _ZN11tetrahedron8isInsideEddd
       4447 115E 006FC810 _ZN11tetrahedronD0Ev
       4448 115F 00784FB0 _ZN11voroMetal3D11get_counterEv
       4449 1160 00784DD0 _ZN11voroMetal3D13print_segmentE7SPoint3S0_RNSt3__114basic_ofstreamIcNS1_11char_traitsIcEEEE
       4450 1161 007853F0 _ZN11voroMetal3D14correspondenceEdddd
       4451 1162 00789D20 _ZN11voroMetal3D14correspondenceEddddRiddd
       4452 1163 00789F20 _ZN11voroMetal3D14correspondenceEddddiRbddd
       4453 1164 00785160 _ZN11voroMetal3D14print_geo_faceEiiRNSt3__114basic_ofstreamIcNS0_11char_traitsIcEEEE
       4454 1165 00784FD0 _ZN11voroMetal3D14print_geo_lineEiiiRNSt3__114basic_ofstreamIcNS0_11char_traitsIcEEEE
       4455 1166 00784EC0 _ZN11voroMetal3D15print_geo_pointEidddRNSt3__114basic_ofstreamIcNS0_11char_traitsIcEEEE
       4456 1167 00784FC0 _ZN11voroMetal3D16increase_counterEv
       4457 1168 007852A0 _ZN11voroMetal3D16print_geo_volumeEiiRNSt3__114basic_ofstreamIcNS0_11char_traitsIcEEEE
       4458 1169 00784DC0 _ZN11voroMetal3D18initialize_counterEv
       4459 116A 007851D0 _ZN11voroMetal3D19print_geo_face_loopEiRNSt3__16vectorIiNS0_9allocatorIiEEEERNS0_14basic_ofstreamIcNS0_11char_traitsIcEEEE
       4460 116B 00785060 _ZN11voroMetal3D19print_geo_line_loopEiRNSt3__16vectorIiNS0_9allocatorIiEEEES5_RNS0_14basic_ofstreamIcNS0_11char_traitsIcEEEE
       4461 116C 00785380 _ZN11voroMetal3D23print_geo_physical_faceEiiRNSt3__114basic_ofstreamIcNS0_11char_traitsIcEEEE
       4462 116D 00785310 _ZN11voroMetal3D25print_geo_physical_volumeEiiRNSt3__114basic_ofstreamIcNS0_11char_traitsIcEEEE
       4463 116E 0078A1D0 _ZN11voroMetal3D5equalEddd
       4464 116F 00780E20 _ZN11voroMetal3D7executeEP7GRegiond
       4465 1170 00781450 _ZN11voroMetal3D7executeERNSt3__16vectorI7SPoint3NS0_9allocatorIS2_EEEERNS1_IdNS3_IdEEEEidddd
       4466 1171 00784A80 _ZN11voroMetal3D7executeERNSt3__16vectorIdNS0_9allocatorIdEEEEidddd
       4467 1172 00780D50 _ZN11voroMetal3D7executeEd
       4468 1173 007EC1A0 _ZN12ANNbd_shrink10ann_searchEd
       4469 1174 007EBE90 _ZN12ANNbd_shrink13ann_FR_searchEd
       4470 1175 007EBFA0 _ZN12ANNbd_shrink14ann_pri_searchEd
       4471 1176 007ED970 _ZN12ANNbd_shrink4dumpERNSt3__113basic_ostreamIcNS0_11char_traitsIcEEEE
       4472 1177 007EC3E0 _ZN12ANNbd_shrink5printEiRNSt3__113basic_ostreamIcNS0_11char_traitsIcEEEE
       4473 1178 007EC2B0 _ZN12ANNbd_shrink8getStatsEiR10ANNkdStatsR11ANNorthRect
       4474 1179 007ED0C0 _ZN12ANNbd_shrinkD0Ev
       4475 117A 007ED050 _ZN12ANNbd_shrinkD2Ev
       4476 117B 00127830 _ZN12BasisFactory13getNodalBasisEi
       4477 117C 00127FD0 _ZN12BasisFactory14getBezierBasisE13FuncSpaceData
       4478 117D 00128160 _ZN12BasisFactory14getBezierBasisEi
       4479 117E 00128130 _ZN12BasisFactory14getBezierBasisEii
       4480 117F 00127CC0 _ZN12BasisFactory15getCondNumBasisEii
       4481 1180 00127FA0 _ZN12BasisFactory16getGradientBasisEi
       4482 1181 00127DF0 _ZN12BasisFactory16getGradientBasisEi13FuncSpaceData
       4483 1182 00127F60 _ZN12BasisFactory16getGradientBasisEii
       4484 1183 00127C50 _ZN12BasisFactory16getJacobianBasisEi
       4485 1184 00127A70 _ZN12BasisFactory16getJacobianBasisEi13FuncSpaceData
       4486 1185 00127BE0 _ZN12BasisFactory16getJacobianBasisEii
       4487 1186 013D12C0 _ZN12BasisFactory2bsE
       4488 1187 013D1290 _ZN12BasisFactory2csE
       4489 1188 013D1278 _ZN12BasisFactory2fsE
       4490 1189 013D12D8 _ZN12BasisFactory2gsE
       4491 118A 013D12A8 _ZN12BasisFactory2jsE
       4492 118B 00128190 _ZN12BasisFactory8clearAllEv
       4493 118C 003D22F0 _ZN12ChainComplex10getTorsionEii
       4494 118D 003D1B60 _ZN12ChainComplex10matrixTestEv
       4495 118E 003D2F10 _ZN12ChainComplex11deformChainERNSt3__13mapIP4Celli15CellPtrLessThanNS0_9allocatorINS0_4pairIKS3_iEEEEEENS6_IS3_iEEb
       4496 118F 003D2650 _ZN12ChainComplex12getBasisSizeEii
       4497 1190 003D3A00 _ZN12ChainComplex13deImmuneCellsERNSt3__13mapIP4Celli15CellPtrLessThanNS0_9allocatorINS0_4pairIKS3_iEEEEEE
       4498 1191 003D1F00 _ZN12ChainComplex13getBasisChainERNSt3__13mapIP4Celli15CellPtrLessThanNS0_9allocatorINS0_4pairIKS3_iEEEEEEiiib
       4499 1192 003D2370 _ZN12ChainComplex13smoothenChainERNSt3__13mapIP4Celli15CellPtrLessThanNS0_9allocatorINS0_4pairIKS3_iEEEEEE
       4500 1193 003D3A70 _ZN12ChainComplex14eraseNullCellsERNSt3__13mapIP4Celli15CellPtrLessThanNS0_9allocatorINS0_4pairIKS3_iEEEEEE
       4501 1194 003D1C60 _ZN12ChainComplex14getCoeffVectorEii
       4502 1195 003D17B0 _ZN12ChainComplex15computeHomologyEb
       4503 1196 003D0F90 _ZN12ChainComplex16transposeHMatrixEi
       4504 1197 003D0F30 _ZN12ChainComplex18transposeHMatricesEv
       4505 1198 003D0FB0 _ZN12ChainComplex6KerCodEi
       4506 1199 003D2700 _ZN12ChainComplex6deformERNSt3__13mapIP4Celli15CellPtrLessThanNS0_9allocatorINS0_4pairIKS3_iEEEEEESB_SB_
       4507 119A 003D14C0 _ZN12ChainComplex8QuotientEii
       4508 119B 003D1EB0 _ZN12ChainComplex8getBasisEii
       4509 119C 003D1160 _ZN12ChainComplex9InclusionEii
       4510 119D 003CFF30 _ZN12ChainComplexC1EP11CellComplexi
       4511 119E 003CFF30 _ZN12ChainComplexC2EP11CellComplexi
       4512 119F 003D0C00 _ZN12ChainComplexD1Ev
       4513 11A0 003D0C00 _ZN12ChainComplexD2Ev
       4514 11A1 003C79E0 _ZN12CombinedCell8getCellsERNSt3__13mapIP4Celli15CellPtrLessThanNS0_9allocatorINS0_4pairIKS3_iEEEEEE
       4515 11A2 003C6B60 _ZN12CombinedCellC1EP4CellS1_bb
       4516 11A3 003C7590 _ZN12CombinedCellC1ERNSt3__16vectorIP4CellNS0_9allocatorIS3_EEEE
       4517 11A4 003C6B60 _ZN12CombinedCellC2EP4CellS1_bb
       4518 11A5 003C7590 _ZN12CombinedCellC2ERNSt3__16vectorIP4CellNS0_9allocatorIS3_EEEE
       4519 11A6 003C7950 _ZN12CombinedCellD0Ev
       4520 11A7 003C78D0 _ZN12CombinedCellD2Ev
       4521 11A8 00163750 _ZN12CondNumBasis12condNumOrderEi
       4522 11A9 001637E0 _ZN12CondNumBasis12condNumOrderEii
       4523 11AA 001631B0 _ZN12CondNumBasisC1Eii
       4524 11AB 001631B0 _ZN12CondNumBasisC2Eii
       4525 11AC 008B76C0 _ZN12DI_QualErrorC2EP8DI_PointS1_S1_S1_
       4526 11AD 005ACC40 _ZN12FieldFactoryD2Ev
       4527 11AE 005A55D0 _ZN12FieldManager10initializeEv
       4528 11AF 0059F800 _ZN12FieldManager11deleteFieldEi
       4529 11B0 005A6410 _ZN12FieldManager17setBackgroundMeshEi
       4530 11B1 005A5780 _ZN12FieldManager18setBackgroundFieldEP5Field
       4531 11B2 007B7DB0 _ZN12FieldManager23addBoundaryLayerFieldIdEi
       4532 11B3 0059F540 _ZN12FieldManager3getEi
       4533 11B4 0059F7A0 _ZN12FieldManager5maxIdEv
       4534 11B5 0059F700 _ZN12FieldManager5newIdEv
       4535 11B6 0059F4A0 _ZN12FieldManager5resetEv
       4536 11B7 0059F580 _ZN12FieldManager8newFieldEiRKNSt3__112basic_stringIcNS0_11char_traitsIcEENS0_9allocatorIcEEEE
       4537 11B8 005A3810 _ZN12FieldManagerC1Ev
       4538 11B9 005A3810 _ZN12FieldManagerC2Ev
       4539 11BA 005A5650 _ZN12FieldManagerD1Ev
       4540 11BB 005A5650 _ZN12FieldManagerD2Ev
       4541 11BC 005B1B70 _ZN12FrustumField14getDescriptionEv
       4542 11BD 005B1B60 _ZN12FrustumField7getNameEv
       4543 11BE 005AF8E0 _ZN12FrustumFieldC2Ev
       4544 11BF 005B1940 _ZN12FrustumFieldD0Ev
       4545 11C0 005B1960 _ZN12FrustumFieldclEdddP7GEntity
       4546 11C1 005A6730 _ZN12GenericField19setCallbackWithDataEPFbdddPvRdES0_
       4547 11C2 005A6850 _ZN12GenericField19setCallbackWithDataEPFbdddPvS0_RdES0_
       4548 11C3 005A6D90 _ZN12GenericField7getNameEv
       4549 11C4 005A66A0 _ZN12GenericFieldC1Ev
       4550 11C5 005A66A0 _ZN12GenericFieldC2Ev
       4551 11C6 0059F1D0 _ZN12GenericFieldD0Ev
       4552 11C7 005A66E0 _ZN12GenericFieldD1Ev
       4553 11C8 005A66E0 _ZN12GenericFieldD2Ev
       4554 11C9 0059F220 _ZN12GenericFieldclEdddP7GEntity
       4555 11CA 005902F0 _ZN12HilbertSortB15ComputeGrayCodeEi
       4556 11CB 00598CB0 _ZN12HilbertSortB21MultiscaleSortHilbertEPP4VertiidPiRNSt3__16vectorIiNS4_9allocatorIiEEEE
       4557 11CC 005906F0 _ZN12HilbertSortB4SortEPP4Vertiiiddddddi
       4558 11CD 00598900 _ZN12HilbertSortB5ApplyERNSt3__16vectorIP4VertNS0_9allocatorIS3_EEEERNS1_IiNS4_IiEEEE
       4559 11CE 00590480 _ZN12HilbertSortB5SplitEPP4Vertiiidddddd
       4560 11CF 005987E0 _ZN12HilbertSortBC2Eii
       4561 11D0 00394E80 _ZN12MHexahedronN10getEdgeRepEbiPdS0_S0_P8SVector3
       4562 11D1 003951B0 _ZN12MHexahedronN10getFaceRepEbiPdS0_S0_P8SVector3
       4563 11D2 00394E50 _ZN12MHexahedronN14getNumEdgesRepEb
       4564 11D3 00395180 _ZN12MHexahedronN14getNumFacesRepEb
       4565 11D4 013D26F0 _ZN12MHexahedronN25_order2indicesReversedHexE
       4566 11D5 00395270 _ZN12MHexahedronN7reverseEv
       4567 11D6 00397070 _ZN12MHexahedronN9getVertexEi
       4568 11D7 00397090 _ZN12MHexahedronN9setVertexEiP7MVertex
       4569 11D8 0055E120 _ZN12MHexahedronNC2EP7MVertexS1_S1_S1_S1_S1_S1_S1_RKNSt3__16vectorIS1_NS2_9allocatorIS1_EEEEcii
       4570 11D9 00383BA0 _ZN12MHexahedronNC2ERKNSt3__16vectorIP7MVertexNS0_9allocatorIS3_EEEEcii
       4571 11DA 00396FE0 _ZN12MHexahedronND0Ev
       4572 11DB 00396FC0 _ZN12MHexahedronND2Ev
       4573 11DC 0038D920 _ZN12MQuadrangle810getEdgeRepEbiPdS0_S0_P8SVector3
       4574 11DD 0038DCB0 _ZN12MQuadrangle810getFaceRepEbiPdS0_S0_P8SVector3
       4575 11DE 003905F0 _ZN12MQuadrangle812getVertexUNVEi
       4576 11DF 00390610 _ZN12MQuadrangle813getVertexDIFFEi
       4577 11E0 0038D900 _ZN12MQuadrangle814getNumEdgesRepEb
       4578 11E1 0038DC80 _ZN12MQuadrangle814getNumFacesRepEb
       4579 11E2 0038D9B0 _ZN12MQuadrangle816getHighOrderFaceEiii
       4580 11E3 003907A0 _ZN12MQuadrangle87reverseEv
       4581 11E4 0038DD70 _ZN12MQuadrangle88reorientEib
       4582 11E5 003905B0 _ZN12MQuadrangle89getVertexEi
       4583 11E6 003905D0 _ZN12MQuadrangle89setVertexEiP7MVertex
       4584 11E7 002EA530 _ZN12MQuadrangle8C2ERKNSt3__16vectorIP7MVertexNS0_9allocatorIS3_EEEEii
       4585 11E8 00390560 _ZN12MQuadrangle8D0Ev
       4586 11E9 0038DF10 _ZN12MQuadrangle910getEdgeRepEbiPdS0_S0_P8SVector3
       4587 11EA 0038E2A0 _ZN12MQuadrangle910getFaceRepEbiPdS0_S0_P8SVector3
       4588 11EB 00390920 _ZN12MQuadrangle913getVertexDIFFEi
       4589 11EC 0038DEF0 _ZN12MQuadrangle914getNumEdgesRepEb
       4590 11ED 0038E270 _ZN12MQuadrangle914getNumFacesRepEb
       4591 11EE 0038DFA0 _ZN12MQuadrangle916getHighOrderFaceEiii
       4592 11EF 00390AC0 _ZN12MQuadrangle97reverseEv
       4593 11F0 0038E360 _ZN12MQuadrangle98reorientEib
       4594 11F1 003908E0 _ZN12MQuadrangle99getVertexEi
       4595 11F2 00390900 _ZN12MQuadrangle99setVertexEiP7MVertex
       4596 11F3 002EA5D0 _ZN12MQuadrangle9C2ERKNSt3__16vectorIP7MVertexNS0_9allocatorIS3_EEEEii
       4597 11F4 00390890 _ZN12MQuadrangle9D0Ev
       4598 11F5 0038E500 _ZN12MQuadrangleN10getEdgeRepEbiPdS0_S0_P8SVector3
       4599 11F6 0038E960 _ZN12MQuadrangleN10getFaceRepEbiPdS0_S0_P8SVector3
       4600 11F7 0038E4E0 _ZN12MQuadrangleN14getNumEdgesRepEb
       4601 11F8 0038E930 _ZN12MQuadrangleN14getNumFacesRepEb
       4602 11F9 0038E590 _ZN12MQuadrangleN16getHighOrderFaceEiii
       4603 11FA 013D26B0 _ZN12MQuadrangleN24_tuple2indicesReorientedE
       4604 11FB 0038EA20 _ZN12MQuadrangleN7reverseEv
       4605 11FC 0038EAE0 _ZN12MQuadrangleN8reorientEib
       4606 11FD 00390C60 _ZN12MQuadrangleN9getVertexEi
       4607 11FE 00390C80 _ZN12MQuadrangleN9setVertexEiP7MVertex
       4608 11FF 0055D7F0 _ZN12MQuadrangleNC2EP7MVertexS1_S1_S1_RKNSt3__16vectorIS1_NS2_9allocatorIS1_EEEEcii
       4609 1200 00382310 _ZN12MQuadrangleNC2ERKNSt3__16vectorIP7MVertexNS0_9allocatorIS3_EEEEcii
       4610 1201 00390BD0 _ZN12MQuadrangleND0Ev
       4611 1202 00390BB0 _ZN12MQuadrangleND2Ev
       4612 1203 003BF410 _ZN12MSubTriangle12updateParentEP6GModel
       4613 1204 003C2400 _ZN12MSubTriangle14getBaseElementEv
       4614 1205 003C2510 _ZN12MSubTriangle14setMultiParentERNSt3__16vectorIP8MElementNS0_9allocatorIS3_EEEEb
       4615 1206 003C05A0 _ZN12MSubTriangle20getIntegrationPointsEiPiPP5IntPt
       4616 1207 003C01A0 _ZN12MSubTriangle20getShapeFunctionNodeEi
       4617 1208 003C2380 _ZN12MSubTriangle9setParentEP8MElementb
       4618 1209 003841E0 _ZN12MSubTriangleC2ERKNSt3__16vectorIP7MVertexNS0_9allocatorIS3_EEEEiibP8MElement
       4619 120A 003842C0 _ZN12MSubTriangleC2ERKNSt3__16vectorIP7MVertexNS0_9allocatorIS3_EEEEiibi
       4620 120B 003BF3C0 _ZN12MSubTriangleD0Ev
       4621 120C 003C20A0 _ZN12MSubTriangleD1Ev
       4622 120D 003C20A0 _ZN12MSubTriangleD2Ev
       4623 120E 003911C0 _ZN12MTetrahedron10getEdgeRepEbiPdS0_S0_P8SVector3
       4624 120F 00392F80 _ZN12MTetrahedron10getFaceRepEbiPdS0_S0_P8SVector3
       4625 1210 00392EA0 _ZN12MTetrahedron11getNumFacesEv
       4626 1211 00391B20 _ZN12MTetrahedron12circumcenterEv
       4627 1212 00392E50 _ZN12MTetrahedron12getEdgeSolinEi
       4628 1213 00392F10 _ZN12MTetrahedron12getFaceSolinEi
       4629 1214 00393140 _ZN12MTetrahedron13getVolumeSignEv
       4630 1215 00391510 _ZN12MTetrahedron14getInnerRadiusEv
       4631 1216 00392E90 _ZN12MTetrahedron14getNumEdgesRepEb
       4632 1217 00392F70 _ZN12MTetrahedron14getNumFacesRepEb
       4633 1218 00391800 _ZN12MTetrahedron14getOuterRadiusEv
       4634 1219 003914E0 _ZN12MTetrahedron15etaShapeMeasureEv
       4635 121A 003914B0 _ZN12MTetrahedron17gammaShapeMeasureEv
       4636 121B 00391AC0 _ZN12MTetrahedron20getIntegrationPointsEiPiPP5IntPt
       4637 121C 00393130 _ZN12MTetrahedron7reverseEv
       4638 121D 00392DC0 _ZN12MTetrahedron9getVertexEi
       4639 121E 003918C0 _ZN12MTetrahedron9getVolumeEv
       4640 121F 00392DD0 _ZN12MTetrahedron9setVertexEiP7MVertex
       4641 1220 002EA390 _ZN12MTetrahedronC2ERKNSt3__16vectorIP7MVertexNS0_9allocatorIS3_EEEEii
       4642 1221 00392D80 _ZN12MTetrahedronD0Ev
       4643 1222 000CC090 _ZN12MVertexRTree14rtree_callbackEP7MVertexPv
       4644 1223 000CBD50 _ZN12MVertexRTree6insertEP7MVertexbPNSt3__13setIS1_18MVertexPtrLessThanNS2_9allocatorIS1_EEEE
       4645 1224 00A64C60 _ZN12MVertexRTreeC2Ed
       4646 1225 000CBC10 _ZN12MVertexRTreeD2Ev
       4647 1226 007C4030 _ZN12NativeClient7analyzeEv
       4648 1227 007C4270 _ZN12NativeClient7computeEv
       4649 1228 007D2170 _ZN12NativeClientD0Ev
       4650 1229 00A00880 _ZN12PEQuadrangleC1ERKNSt3__16vectorIP7MVertexNS0_9allocatorIS3_EEEE
       4651 122A 00A00880 _ZN12PEQuadrangleC2ERKNSt3__16vectorIP7MVertexNS0_9allocatorIS3_EEEE
       4652 122B 009D65E0 _ZN12PEQuadrangleD0Ev
       4653 122C 00A00610 _ZN12PEQuadrangleD1Ev
       4654 122D 00A00610 _ZN12PEQuadrangleD2Ev
       4655 122E 006B7430 _ZN12PViewFactory10createViewEv
       4656 122F 006B72C0 _ZN12PViewFactory8setEntryEiRK10fullMatrixIdE
       4657 1230 006B7240 _ZN12PViewFactoryC1ENSt3__112basic_stringIcNS0_11char_traitsIcEENS0_9allocatorIcEEEES6_P6GModelii
       4658 1231 006B7240 _ZN12PViewFactoryC2ENSt3__112basic_stringIcNS0_11char_traitsIcEENS0_9allocatorIcEEEES6_P6GModelii
       4659 1232 013D3730 _ZN12PViewOptions10_referenceE
       4660 1233 006B7180 _ZN12PViewOptions11skipElementEi
       4661 1234 006B6C00 _ZN12PViewOptions13getScaleIndexEdiddb
       4662 1235 006B6A40 _ZN12PViewOptions13getScaleValueEiidd
       4663 1236 006B6E50 _ZN12PViewOptions18createGeneralRaiseEv
       4664 1237 006B6D00 _ZN12PViewOptions8getColorEdddbi
       4665 1238 006B6DE0 _ZN12PViewOptions8getColorEii
       4666 1239 006B69F0 _ZN12PViewOptions9referenceEv
       4667 123A 006B6170 _ZN12PViewOptionsC1Ev
       4668 123B 0067D290 _ZN12PViewOptionsC2ERKS_
       4669 123C 006B6170 _ZN12PViewOptionsC2Ev
       4670 123D 006B6670 _ZN12PViewOptionsD1Ev
       4671 123E 006B6670 _ZN12PViewOptionsD2Ev
       4672 123F 0067DA20 _ZN12PViewOptionsaSERKS_
       4673 1240 009DF990 _ZN12Recombinator11conformityAERK3Hex
       4674 1241 009DFDD0 _ZN12Recombinator11conformityBERK3Hex
       4675 1242 009E0140 _ZN12Recombinator11conformityCERK3Hex
       4676 1243 009DE880 _ZN12Recombinator12build_tuplesEv
       4677 1244 009DBE50 _ZN12Recombinator13init_markingsEv
       4678 1245 009E08D0 _ZN12Recombinator13print_segmentERK7SPoint3S2_RNSt3__114basic_ofstreamIcNS3_11char_traitsIcEEEE
       4679 1246 009E0390 _ZN12Recombinator14faces_statuquoEP7MVertexS1_S1_S1_
       4680 1247 009E0290 _ZN12Recombinator14faces_statuquoERK3Hex
       4681 1248 009E09D0 _ZN12Recombinator15scaled_jacobianEP7MVertexS1_S1_S1_
       4682 1249 009D8FF0 _ZN12Recombinator16print_statisticsEv
       4683 124A 009DDF20 _ZN12Recombinator17build_hash_tableAERK3Hex
       4684 124B 009DE470 _ZN12Recombinator17build_hash_tableBERK3Hex
       4685 124C 009DE650 _ZN12Recombinator17build_hash_tableCERK3Hex
       4686 124D 009E0850 _ZN12Recombinator17print_hash_tableAEv
       4687 124E 009E0BE0 _ZN12Recombinator19max_scaled_jacobianEP8MElementRi
       4688 124F 009E14B0 _ZN12Recombinator19min_scaled_jacobianER3Hex
       4689 1250 00A0D780 _ZN12Recombinator21initialize_structuresEP7GRegion
       4690 1251 00A0D820 _ZN12Recombinator24clear_potential_hex_infoEv
       4691 1252 009DEC90 _ZN12Recombinator24create_quads_on_boundaryEP7MVertexS1_S1_S1_
       4692 1253 009D8E10 _ZN12Recombinator24create_quads_on_boundaryEv
       4693 1254 009DDED0 _ZN12Recombinator24is_potential_hex_conformERK3Hex
       4694 1255 009D63F0 _ZN12Recombinator25add_or_free_potential_hexEP3Hex
       4695 1256 009DD230 _ZN12Recombinator26add_hex_to_region_if_validERK3Hex
       4696 1257 009D8DA0 _ZN12Recombinator28set_region_elements_positiveEv
       4697 1258 00A0D810 _ZN12Recombinator5mergeEP7GRegion
       4698 1259 009D6270 _ZN12Recombinator5mergeEv
       4699 125A 009D61A0 _ZN12Recombinator7executeEP7GRegion
       4700 125B 009D6060 _ZN12Recombinator7executeEv
       4701 125C 009D9150 _ZN12Recombinator8pattern1Ev
       4702 125D 009DA5A0 _ZN12Recombinator8pattern2Ev
       4703 125E 009DA930 _ZN12Recombinator8pattern3Ev
       4704 125F 009DCBA0 _ZN12Recombinator9mark_tetsERKNSt3__13setIP8MElementNS0_4lessIS3_EENS0_9allocatorIS3_EEEE
       4705 1260 009D6040 _ZN12RecombinatorD0Ev
       4706 1261 009D8CB0 _ZN12RecombinatorD1Ev
       4707 1262 009D8CB0 _ZN12RecombinatorD2Ev
       4708 1263 008BDBA0 _ZN12RecurElement3cutEiPK10DI_ElementRNSt3__16vectorIP9gLevelsetNS3_9allocatorIS6_EEEEdPPd
       4709 1264 008BD2F0 _ZN12RecurElement4rootEv
       4710 1265 008BD960 _ZN12RecurElementC1EPK10DI_Element
       4711 1266 008BD960 _ZN12RecurElementC2EPK10DI_Element
       4712 1267 008BDAF0 _ZN12RecurElementD1Ev
       4713 1268 008BDAF0 _ZN12RecurElementD2Ev
       4714 1269 005A7DE0 _ZN12SPoint3CloudD2Ev
       4715 126A 00BD4EA0 _ZN12ShapeOfArrayC2El
       4716 126B 013D3930 _ZN12adaptiveData10timerAdaptE
       4717 126C 006C4160 _ZN12adaptiveData15countTotElmLev0EiP9PViewData
       4718 126D 006BFBC0 _ZN12adaptiveData16changeResolutionEiidP15GMSH_PostPlugin
       4719 126E 006C4620 _ZN12adaptiveData22changeResolutionForVTKEiidibRKNSt3__112basic_stringIcNS0_11char_traitsIcEENS0_9allocatorIcEEEEi
       4720 126F 013D3928 _ZN12adaptiveData9timerInitE
       4721 1270 006BF540 _ZN12adaptiveDataC1EP9PViewDatab
       4722 1271 006BF540 _ZN12adaptiveDataC2EP9PViewDatab
       4723 1272 006BFAD0 _ZN12adaptiveDataD1Ev
       4724 1273 006BFAD0 _ZN12adaptiveDataD2Ev
       4725 1274 006B8190 _ZN12adaptiveLine10recurErrorEPS_dd
       4726 1275 013D3758 _ZN12adaptiveLine11allVerticesE
       4727 1276 006B8040 _ZN12adaptiveLine11recurCreateEPS_ii
       4728 1277 013D3818 _ZN12adaptiveLine3allE
       4729 1278 006B8170 _ZN12adaptiveLine5errorEdd
       4730 1279 006B7F10 _ZN12adaptiveLine6createEi
       4731 127A 013C1990 _ZN12adaptiveLine8numEdgesE
       4732 127B 013C1974 _ZN12adaptiveLine8numNodesE
       4733 127C 004F19D0 _ZN12blyr_manager14add_one_normalERK12blyr_mvertex
       4734 127D 004EF7D0 _ZN12blyr_manager14extrude_ridgesEv
       4735 127E 004E4C60 _ZN12blyr_manager15classify_ridgesEv
       4736 127F 004EC1D0 _ZN12blyr_manager16extrude_verticesEv
       4737 1280 004F0750 _ZN12blyr_manager17extrude_trianglesEv
       4738 1281 004EC940 _ZN12blyr_manager20extrude_one_externalEv
       4739 1282 004EB800 _ZN12blyr_manager23extrude_ridges_on_facesEv
       4740 1283 004EF520 _ZN12blyr_manager24extrude_external_cornersEv
       4741 1284 004E54C0 _ZN12blyr_manager25extrude_vertices_on_edgesEv
       4742 1285 004EB5B0 _ZN12blyr_manager25extrude_vertices_on_facesEv
       4743 1286 004F3E80 _ZN12blyr_manager42extrude_vertex_on_both_surfaces_of_a_ridgeERK12blyr_mvertexP10blyr_ridgeRNSt3__16vectorIS0_NS5_9allocatorIS0_EEEE
       4744 1287 004E2F80 _ZN12blyr_managerC2EP7GRegionRNSt3__16vectorIP5GFaceNS2_9allocatorIS5_EEEEd
       4745 1288 004F1090 _ZN12blyr_managerD2Ev
       4746 1289 004F1680 _ZN12blyr_mvertexC2EOS_
       4747 128A 004F26C0 _ZN12blyr_mvertexC2ERKS_
       4748 128B 004F10E0 _ZN12blyr_mvertexD2Ev
       4749 128C 004F32A0 _ZN12blyr_mvertexaSEOS_
       4750 128D 004F3620 _ZN12blyr_mvertexaSERKS_
       4751 128E 00766C70 _ZN12compareAngleclERK7SPoint3S2_
       4752 128F 0051B350 _ZN12crossField2dC1EP7MVertexP5GEdge
       4753 1290 0051B350 _ZN12crossField2dC2EP7MVertexP5GEdge
       4754 1291 00238410 _ZN12discreteEdge14createGeometryEv
       4755 1292 00239550 _ZN12discreteEdge19haveParametrizationEv
       4756 1293 00239110 _ZN12discreteEdge19readParametrizationEP6_iobufb
       4757 1294 00238EB0 _ZN12discreteEdge20writeParametrizationEP6_iobufb
       4758 1295 00237AA0 _ZN12discreteEdge4meshEb
       4759 1296 00238350 _ZN12discreteEdgeC1EP6GModel
       4760 1297 00238250 _ZN12discreteEdgeC1EP6GModeli
       4761 1298 00238140 _ZN12discreteEdgeC1EP6GModeliP7GVertexS3_
       4762 1299 00238350 _ZN12discreteEdgeC2EP6GModel
       4763 129A 00238250 _ZN12discreteEdgeC2EP6GModeli
       4764 129B 00238140 _ZN12discreteEdgeC2EP6GModeliP7GVertexS3_
       4765 129C 002394B0 _ZN12discreteEdgeD0Ev
       4766 129D 00239420 _ZN12discreteEdgeD2Ev
       4767 129E 00239E30 _ZN12discreteFace13containsParamERK7SPoint2
       4768 129F 0023C160 _ZN12discreteFace14createGeometryEv
       4769 12A0 0023C460 _ZN12discreteFace18_computeSTLNormalsEv
       4770 12A1 0023EDC0 _ZN12discreteFace19haveParametrizationEv
       4771 12A2 0023E720 _ZN12discreteFace19readParametrizationEP6_iobufb
       4772 12A3 002397E0 _ZN12discreteFace19resetMeshAttributesEv
       4773 12A4 0023E300 _ZN12discreteFace20writeParametrizationEP6_iobufb
       4774 12A5 0023BE50 _ZN12discreteFace21_debugParametrizationEb
       4775 12A6 0023C6F0 _ZN12discreteFace22_createGeometryFromSTLEv
       4776 12A7 0023D640 _ZN12discreteFace22intersectionWithCircleERK8SVector3S2_S2_RKdPd
       4777 12A8 00239700 _ZN12discreteFace4meshEb
       4778 12A9 0023AB50 _ZN12discreteFace5param11checkPlanarEv
       4779 12AA 0023A990 _ZN12discreteFace5param5clearEv
       4780 12AB 0023A7B0 _ZN12discreteFace5paramD1Ev
       4781 12AC 0023A7B0 _ZN12discreteFace5paramD2Ev
       4782 12AD 00239770 _ZN12discreteFace6boundsEb
       4783 12AE 0023B590 _ZN12discreteFaceC1EP6GModel
       4784 12AF 0023B410 _ZN12discreteFaceC1EP6GModeli
       4785 12B0 0023B590 _ZN12discreteFaceC2EP6GModel
       4786 12B1 0023B410 _ZN12discreteFaceC2EP6GModeli
       4787 12B2 0023ED70 _ZN12discreteFaceD0Ev
       4788 12B3 0023ED40 _ZN12discreteFaceD2Ev
       4789 12B4 0075D980 _ZN12distanceTermD0Ev
       4790 12B5 00354E90 _ZN12gLevelsetBoxC1EPKdS1_S1_S1_RS0_S2_S2_i
       4791 12B6 00355CA0 _ZN12gLevelsetBoxC1EPKdS1_S1_S1_S1_S1_S1_S1_i
       4792 12B7 003578E0 _ZN12gLevelsetBoxC1ERKS_
       4793 12B8 00354E90 _ZN12gLevelsetBoxC2EPKdS1_S1_S1_RS0_S2_S2_i
       4794 12B9 00355CA0 _ZN12gLevelsetBoxC2EPKdS1_S1_S1_S1_S1_S1_S1_i
       4795 12BA 003578E0 _ZN12gLevelsetBoxC2ERKS_
       4796 12BB 0035B050 _ZN12gLevelsetBoxD0Ev
       4797 12BC 0035B450 _ZN12gLevelsetCutD0Ev
       4798 12BD 0062D3D0 _ZN12libOLwrapper25elementsInsideBoundingBoxE11libOLTypTagPdS1_RNSt3__16vectorIiNS2_9allocatorIiEEEE
       4799 12BE 0062C6A0 _ZN12libOLwrapperC1ERKNSt3__16vectorINS0_5arrayIdLy3EEENS0_9allocatorIS3_EEEERKNS1_INS2_IiLy2EEENS4_IS9_EEEERKNS1_INS2_IiLy3EEENS4_ISE_EEEERKNS1_INS2_IiLy4EEENS4_ISJ_EEEESN_RKNS1_INS2_IiLy5EEENS4_ISO_EEEERKNS1_INS2_IiLy6EEENS4_IST_EEEERKNS1_INS2_IiLy8EEENS4_ISY_EEEE
       4800 12BF 0062C6A0 _ZN12libOLwrapperC2ERKNSt3__16vectorINS0_5arrayIdLy3EEENS0_9allocatorIS3_EEEERKNS1_INS2_IiLy2EEENS4_IS9_EEEERKNS1_INS2_IiLy3EEENS4_ISE_EEEERKNS1_INS2_IiLy4EEENS4_ISJ_EEEESN_RKNS1_INS2_IiLy5EEENS4_ISO_EEEERKNS1_INS2_IiLy6EEENS4_IST_EEEERKNS1_INS2_IiLy8EEENS4_ISY_EEEE
       4801 12C0 0062D290 _ZN12libOLwrapperD1Ev
       4802 12C1 0062D290 _ZN12libOLwrapperD2Ev
       4803 12C2 00129C20 _ZN12miniBasisTetC1Ev
       4804 12C3 00129C20 _ZN12miniBasisTetC2Ev
       4805 12C4 0012A8E0 _ZN12miniBasisTetD0Ev
       4806 12C5 001297A0 _ZN12miniBasisTriC1Ev
       4807 12C6 001297A0 _ZN12miniBasisTriC2Ev
       4808 12C7 0012A370 _ZN12miniBasisTriD0Ev
       4809 12C8 0052F930 _ZN12qmHexahedron6anglesEP11MHexahedron
       4810 12C9 0052D670 _ZN12qmQuadrangle15NCJAndGradientsERK7SPoint3S2_S2_S2_RK8SVector3RNSt3__16vectorIdNS6_9allocatorIdEEEESB_
       4811 12CA 0052D250 _ZN12qmQuadrangle3NCJERK7SPoint3S2_S2_S2_RK8SVector3RNSt3__16vectorIdNS6_9allocatorIdEEEE
       4812 12CB 0052C500 _ZN12qmQuadrangle3etaEP11MQuadrangle
       4813 12CC 0052C890 _ZN12qmQuadrangle6anglesEP11MQuadrangle
       4814 12CD 0052CDC0 _ZN12qmQuadrangle8NCJRangeEPK11MQuadrangleRdS3_
       4815 12CE 007CE870 _ZN12remoteClient13syncInputFileERKNSt3__112basic_stringIcNS0_11char_traitsIcEENS0_9allocatorIcEEEES8_
       4816 12CF 007CF190 _ZN12remoteClient14syncOutputFileERKNSt3__112basic_stringIcNS0_11char_traitsIcEENS0_9allocatorIcEEEES8_
       4817 12D0 007CE0A0 _ZN12remoteClient16checkCommandLineERKNSt3__112basic_stringIcNS0_11char_traitsIcEENS0_9allocatorIcEEEE
       4818 12D1 007CE520 _ZN12remoteClient20checkIfPresentRemoteERKNSt3__112basic_stringIcNS0_11char_traitsIcEENS0_9allocatorIcEEEE
       4819 12D2 00596840 _ZN12tetContainer6newTetEi
       4820 12D3 00598310 _ZN12tetContainerC2Eii
       4821 12D4 005985A0 _ZN12tetContainerD2Ev
       4822 12D5 007ED1C0 _ZN13ANNbruteForce10annkSearchEPdiPiS0_d
       4823 12D6 007ED330 _ZN13ANNbruteForce12annkFRSearchEPddiPiS0_d
       4824 12D7 007ED590 _ZN13ANNbruteForce6theDimEv
       4825 12D8 007ED5A0 _ZN13ANNbruteForce7nPointsEv
       4826 12D9 007ED5B0 _ZN13ANNbruteForce9thePointsEv
       4827 12DA 007ED560 _ZN13ANNbruteForceC1EPPdii
       4828 12DB 007ED560 _ZN13ANNbruteForceC2EPPdii
       4829 12DC 007ED1B0 _ZN13ANNbruteForceD0Ev
       4830 12DD 007ED580 _ZN13ANNbruteForceD1Ev
       4831 12DE 007ED580 _ZN13ANNbruteForceD2Ev
       4832 12DF 00D27C20 _ZN13ArrayGeometry8bboxDiagERKNSt3__16vectorINS0_5arrayIdLy3EEENS0_9allocatorIS3_EEEE
       4833 12E0 005BA7F0 _ZN13ConstantField14getDescriptionEv
       4834 12E1 005BA7E0 _ZN13ConstantField7getNameEv
       4835 12E2 005B96D0 _ZN13ConstantFieldC2Ev
       4836 12E3 005BA350 _ZN13ConstantFieldD0Ev
       4837 12E4 005BA1D0 _ZN13ConstantFieldD2Ev
       4838 12E5 005BA370 _ZN13ConstantFieldclEdddP7GEntity
       4839 12E6 005AEC80 _ZN13CylinderField14getDescriptionEv
       4840 12E7 005AEC70 _ZN13CylinderField7getNameEv
       4841 12E8 005ADDF0 _ZN13CylinderFieldC2Ev
       4842 12E9 005AEB40 _ZN13CylinderFieldD0Ev
       4843 12EA 005AEB60 _ZN13CylinderFieldclEdddP7GEntity
       4844 12EB 005A8FC0 _ZN13DistanceField14getDescriptionEv
       4845 12EC 005A8050 _ZN13DistanceField6updateEv
       4846 12ED 005A8FB0 _ZN13DistanceField7getNameEv
       4847 12EE 005A7C40 _ZN13DistanceFieldC2Eiii
       4848 12EF 005B5030 _ZN13DistanceFieldC2Ev
       4849 12F0 005A8030 _ZN13DistanceFieldD0Ev
       4850 12F1 005A7E40 _ZN13DistanceFieldD2Ev
       4851 12F2 005A8EF0 _ZN13DistanceFieldclEdddP7GEntity
       4852 12F3 013D2610 _ZN13ExtrudeParams16normalsCoherenceE
       4853 12F4 0031F9F0 _ZN13ExtrudeParams18GetAffineTransformERNSt3__16vectorIdNS0_9allocatorIdEEEE
       4854 12F5 0031F7E0 _ZN13ExtrudeParams1uEii
       4855 12F6 013D2628 _ZN13ExtrudeParams20calcLayerScaleFactorE
       4856 12F7 0031F630 _ZN13ExtrudeParams4fillEidddddddddd
       4857 12F8 0031F830 _ZN13ExtrudeParams7ExtrudeEdRdS0_S0_
       4858 12F9 0031F680 _ZN13ExtrudeParams7ExtrudeEiiRdS0_S0_
       4859 12FA 013D2600 _ZN13ExtrudeParams7normalsE
       4860 12FB 0031F5F0 _ZN13ExtrudeParamsC1Ei
       4861 12FC 0031F5F0 _ZN13ExtrudeParamsC2Ei
       4862 12FD 003F8AD0 _ZN13F_TransfiniteclEP5GEdged
       4863 12FE 005B6270 _ZN13FieldFactoryTI11ExtendFieldED0Ev
       4864 12FF 005B6280 _ZN13FieldFactoryTI11ExtendFieldEclEv
       4865 1300 005B1BC0 _ZN13FieldFactoryTI11LonLatFieldED0Ev
       4866 1301 005B1BD0 _ZN13FieldFactoryTI11LonLatFieldEclEv
       4867 1302 005B4080 _ZN13FieldFactoryTI11OctreeFieldED0Ev
       4868 1303 005B4090 _ZN13FieldFactoryTI11OctreeFieldEclEv
       4869 1304 005AF890 _ZN13FieldFactoryTI12FrustumFieldED0Ev
       4870 1305 005AF8A0 _ZN13FieldFactoryTI12FrustumFieldEclEv
       4871 1306 005B9680 _ZN13FieldFactoryTI13ConstantFieldED0Ev
       4872 1307 005B9690 _ZN13FieldFactoryTI13ConstantFieldEclEv
       4873 1308 005ADDA0 _ZN13FieldFactoryTI13CylinderFieldED0Ev
       4874 1309 005ADDB0 _ZN13FieldFactoryTI13CylinderFieldEclEv
       4875 130A 005B4FE0 _ZN13FieldFactoryTI13DistanceFieldED0Ev
       4876 130B 005B4FF0 _ZN13FieldFactoryTI13DistanceFieldEclEv
       4877 130C 005B3520 _ZN13FieldFactoryTI13GradientFieldED0Ev
       4878 130D 005B3530 _ZN13FieldFactoryTI13GradientFieldEclEv
       4879 130E 005C1290 _ZN13FieldFactoryTI13MathEvalFieldED0Ev
       4880 130F 005C12A0 _ZN13FieldFactoryTI13MathEvalFieldEclEv
       4881 1310 005BB2C0 _ZN13FieldFactoryTI13MinAnisoFieldED0Ev
       4882 1311 005BB2D0 _ZN13FieldFactoryTI13MinAnisoFieldEclEv
       4883 1312 005B2490 _ZN13FieldFactoryTI13PostViewFieldED0Ev
       4884 1313 005B24A0 _ZN13FieldFactoryTI13PostViewFieldEclEv
       4885 1314 005B7EF0 _ZN13FieldFactoryTI13RestrictFieldED0Ev
       4886 1315 005B7F00 _ZN13FieldFactoryTI13RestrictFieldEclEv
       4887 1316 005BE370 _ZN13FieldFactoryTI14CurvatureFieldED0Ev
       4888 1317 005BE380 _ZN13FieldFactoryTI14CurvatureFieldEclEv
       4889 1318 005BD360 _ZN13FieldFactoryTI14LaplacianFieldED0Ev
       4890 1319 005BD370 _ZN13FieldFactoryTI14LaplacianFieldEclEv
       4891 131A 005ABA30 _ZN13FieldFactoryTI14ThresholdFieldED0Ev
       4892 131B 005ABA40 _ZN13FieldFactoryTI14ThresholdFieldEclEv
       4893 131C 005BF390 _ZN13FieldFactoryTI15ParametricFieldED0Ev
       4894 131D 005BF3A0 _ZN13FieldFactoryTI15ParametricFieldEclEv
       4895 131E 005AA730 _ZN13FieldFactoryTI15StructuredFieldED0Ev
       4896 131F 005AA740 _ZN13FieldFactoryTI15StructuredFieldEclEv
       4897 1320 005ACBF0 _ZN13FieldFactoryTI18BoundaryLayerFieldED0Ev
       4898 1321 005ACC00 _ZN13FieldFactoryTI18BoundaryLayerFieldEclEv
       4899 1322 005C1740 _ZN13FieldFactoryTI18MathEvalFieldAnisoED0Ev
       4900 1323 005C1750 _ZN13FieldFactoryTI18MathEvalFieldAnisoEclEv
       4901 1324 005BBDF0 _ZN13FieldFactoryTI19IntersectAnisoFieldED0Ev
       4902 1325 005BBE00 _ZN13FieldFactoryTI19IntersectAnisoFieldEclEv
       4903 1326 005C0AF0 _ZN13FieldFactoryTI20ExternalProcessFieldED0Ev
       4904 1327 005C0B00 _ZN13FieldFactoryTI20ExternalProcessFieldEclEv
       4905 1328 005C61A0 _ZN13FieldFactoryTI20MaxEigenHessianFieldED0Ev
       4906 1329 005C61B0 _ZN13FieldFactoryTI20MaxEigenHessianFieldEclEv
       4907 132A 005C6C90 _ZN13FieldFactoryTI22automaticMeshSizeFieldED0Ev
       4908 132B 005C6CA0 _ZN13FieldFactoryTI22automaticMeshSizeFieldEclEv
       4909 132C 005C3D70 _ZN13FieldFactoryTI24AttractorAnisoCurveFieldED0Ev
       4910 132D 005C3D80 _ZN13FieldFactoryTI24AttractorAnisoCurveFieldEclEv
       4911 132E 005ACC50 _ZN13FieldFactoryTI8BoxFieldED0Ev
       4912 132F 005ACC60 _ZN13FieldFactoryTI8BoxFieldEclEv
       4913 1330 005BC920 _ZN13FieldFactoryTI8MaxFieldED0Ev
       4914 1331 005BC930 _ZN13FieldFactoryTI8MaxFieldEclEv
       4915 1332 005BA870 _ZN13FieldFactoryTI8MinFieldED0Ev
       4916 1333 005BA880 _ZN13FieldFactoryTI8MinFieldEclEv
       4917 1334 005AECD0 _ZN13FieldFactoryTI9BallFieldED0Ev
       4918 1335 005AECE0 _ZN13FieldFactoryTI9BallFieldEclEv
       4919 1336 005BDB60 _ZN13FieldFactoryTI9MeanFieldED0Ev
       4920 1337 005BDB70 _ZN13FieldFactoryTI9MeanFieldEclEv
       4921 1338 00128EF0 _ZN13FuncSpaceDataC1EPK8MElement
       4922 1339 00128FA0 _ZN13FuncSpaceDataC1EPK8MElementbiib
       4923 133A 00128F50 _ZN13FuncSpaceDataC1EPK8MElementib
       4924 133B 00128E90 _ZN13FuncSpaceDataC1ERKS_i
       4925 133C 00128EB0 _ZN13FuncSpaceDataC1ERKS_ii
       4926 133D 00129030 _ZN13FuncSpaceDataC1Ei
       4927 133E 001290A0 _ZN13FuncSpaceDataC1Eibiib
       4928 133F 00129080 _ZN13FuncSpaceDataC1Eiib
       4929 1340 00128EF0 _ZN13FuncSpaceDataC2EPK8MElement
       4930 1341 00128FA0 _ZN13FuncSpaceDataC2EPK8MElementbiib
       4931 1342 00128F50 _ZN13FuncSpaceDataC2EPK8MElementib
       4932 1343 00128E90 _ZN13FuncSpaceDataC2ERKS_i
       4933 1344 00128EB0 _ZN13FuncSpaceDataC2ERKS_ii
       4934 1345 00129030 _ZN13FuncSpaceDataC2Ei
       4935 1346 001290A0 _ZN13FuncSpaceDataC2Eibiib
       4936 1347 00129080 _ZN13FuncSpaceDataC2Eiib
       4937 1348 002AB310 _ZN13GEO_Internals10_transformEiRKNSt3__16vectorINS0_4pairIiiEENS0_9allocatorIS3_EEEEdddddddddd
       4938 1349 002A8D80 _ZN13GEO_Internals10addBSplineERiRKNSt3__16vectorIiNS1_9allocatorIiEEEERKNS2_IdNS3_IdEEEE
       4939 134A 002ABA40 _ZN13GEO_Internals10splitCurveEiRKNSt3__16vectorIiNS0_9allocatorIiEEEERS4_
       4940 134B 002ACB20 _ZN13GEO_Internals11setMeshSizeEiid
       4941 134C 002AD310 _ZN13GEO_Internals11synchronizeEP6GModelb
       4942 134D 002A7F90 _ZN13GEO_Internals12_allocateAllEv
       4943 134E 002A86B0 _ZN13GEO_Internals12addCircleArcERiiiiddd
       4944 134F 002A93C0 _ZN13GEO_Internals12addCurveLoopERiRKNSt3__16vectorIiNS1_9allocatorIiEEEEb
       4945 1350 002ACFB0 _ZN13GEO_Internals12setRecombineEiid
       4946 1351 002AD0E0 _ZN13GEO_Internals12setSmoothingEii
       4947 1352 002A94C0 _ZN13GEO_Internals13addCurveLoopsERKNSt3__16vectorIiNS0_9allocatorIiEEEERS4_
       4948 1353 002A88A0 _ZN13GEO_Internals13addEllipseArcERiiiiiddd
       4949 1354 002AB2C0 _ZN13GEO_Internals13boundaryLayerERKNSt3__16vectorINS0_4pairIiiEENS0_9allocatorIS3_EEEERS6_P13ExtrudeParams
       4950 1355 002AC850 _ZN13GEO_Internals13mergeVerticesERKNSt3__16vectorIiNS0_9allocatorIiEEEE
       4951 1356 002AAB00 _ZN13GEO_Internals14addSurfaceLoopERiRKNSt3__16vectorIiNS1_9allocatorIiEEEE
       4952 1357 002ACB70 _ZN13GEO_Internals14setDegeneratedEii
       4953 1358 002AD170 _ZN13GEO_Internals14setReverseMeshEiib
       4954 1359 002AA7D0 _ZN13GEO_Internals15addPlaneSurfaceERiRKNSt3__16vectorIiNS1_9allocatorIiEEEE
       4955 135A 002AC9A0 _ZN13GEO_Internals15setCompoundMeshEiRKNSt3__16vectorIiNS0_9allocatorIiEEEE
       4956 135B 002AD290 _ZN13GEO_Internals16setMeshAlgorithmEiii
       4957 135C 002A9380 _ZN13GEO_Internals17addCompoundSplineERiRKNSt3__16vectorIiNS1_9allocatorIiEEEEi
       4958 135D 002AA950 _ZN13GEO_Internals17addSurfaceFillingERiRKNSt3__16vectorIiNS1_9allocatorIiEEEEi
       4959 135E 002AF0C0 _ZN13GEO_Internals17newGeometrySphereEiii
       4960 135F 002A8FB0 _ZN13GEO_Internals18_addCompoundSplineERiRKNSt3__16vectorIiNS1_9allocatorIiEEEEib
       4961 1360 002A93A0 _ZN13GEO_Internals18addCompoundBSplineERiRKNSt3__16vectorIiNS1_9allocatorIiEEEEi
       4962 1361 002AA8E0 _ZN13GEO_Internals18addDiscreteSurfaceERi
       4963 1362 002ACBA0 _ZN13GEO_Internals18setTransfiniteLineEiiid
       4964 1363 002AC4B0 _ZN13GEO_Internals19modifyPhysicalGroupEiiiRKNSt3__16vectorIiNS0_9allocatorIiEEEE
       4965 1364 002AC830 _ZN13GEO_Internals19removeAllDuplicatesEv
       4966 1365 002AC470 _ZN13GEO_Internals19resetPhysicalGroupsEv
       4967 1366 002ACDD0 _ZN13GEO_Internals20setTransfiniteVolumeEiRKNSt3__16vectorIiNS0_9allocatorIiEEEE
       4968 1367 002ACC80 _ZN13GEO_Internals21setTransfiniteSurfaceEiiRKNSt3__16vectorIiNS0_9allocatorIiEEEE
       4969 1368 002AF1B0 _ZN13GEO_Internals22newGeometryPolarSphereEiii
       4970 1369 002AD2C0 _ZN13GEO_Internals23setMeshSizeFromBoundaryEiii
       4971 136A 002ABC80 _ZN13GEO_Internals26intersectCurvesWithSurfaceERKNSt3__16vectorIiNS0_9allocatorIiEEEEiRS4_
       4972 136B 002ACF10 _ZN13GEO_Internals27setTransfiniteVolumeQuadTriEi
       4973 136C 002ABEB0 _ZN13GEO_Internals4copyERKNSt3__16vectorINS0_4pairIiiEENS0_9allocatorIS3_EEEERS6_
       4974 136D 002AB240 _ZN13GEO_Internals5twistERKNSt3__16vectorINS0_4pairIiiEENS0_9allocatorIS3_EEEEddddddddddRS6_P13ExtrudeParams
       4975 136E 002AB7A0 _ZN13GEO_Internals6dilateERKNSt3__16vectorINS0_4pairIiiEENS0_9allocatorIS3_EEEEdddddd
       4976 136F 002AC3A0 _ZN13GEO_Internals6removeERKNSt3__16vectorINS0_4pairIiiEENS0_9allocatorIS3_EEEEb
       4977 1370 002AC320 _ZN13GEO_Internals6removeEiib
       4978 1371 002AB600 _ZN13GEO_Internals6rotateERKNSt3__16vectorINS0_4pairIiiEENS0_9allocatorIS3_EEEEddddddd
       4979 1372 002A8540 _ZN13GEO_Internals7addLineERiRKNSt3__16vectorIiNS1_9allocatorIiEEEE
       4980 1373 002A8470 _ZN13GEO_Internals7addLineERiii
       4981 1374 002AB170 _ZN13GEO_Internals7extrudeERKNSt3__16vectorINS0_4pairIiiEENS0_9allocatorIS3_EEEEdddRS6_P13ExtrudeParams
       4982 1375 002AB1D0 _ZN13GEO_Internals7revolveERKNSt3__16vectorINS0_4pairIiiEENS0_9allocatorIS3_EEEEdddddddRS6_P13ExtrudeParams
       4983 1376 002AACF0 _ZN13GEO_Internals8_extrudeEiRKNSt3__16vectorINS0_4pairIiiEENS0_9allocatorIS3_EEEEddddddddddRS6_P13ExtrudeParams
       4984 1377 002A80C0 _ZN13GEO_Internals8_freeAllEv
       4985 1378 002AB920 _ZN13GEO_Internals8symmetryERKNSt3__16vectorINS0_4pairIiiEENS0_9allocatorIS3_EEEEdddd
       4986 1379 002A8C10 _ZN13GEO_Internals9addBezierERiRKNSt3__16vectorIiNS1_9allocatorIiEEEE
       4987 137A 002A8AA0 _ZN13GEO_Internals9addSplineERiRKNSt3__16vectorIiNS1_9allocatorIiEEEE
       4988 137B 002A83B0 _ZN13GEO_Internals9addVertexERiddP11gmshSurfaced
       4989 137C 002A82E0 _ZN13GEO_Internals9addVertexERidddd
       4990 137D 002AABF0 _ZN13GEO_Internals9addVolumeERiRKNSt3__16vectorIiNS1_9allocatorIiEEEE
       4991 137E 002AF070 _ZN13GEO_Internals9getVertexEiRdS0_S0_
       4992 137F 002A8220 _ZN13GEO_Internals9setMaxTagEii
       4993 1380 002AB4F0 _ZN13GEO_Internals9translateERKNSt3__16vectorINS0_4pairIiiEENS0_9allocatorIS3_EEEEddd
       4994 1381 00D11860 _ZN13GFaceMeshDiff7executeEb
       4995 1382 00D11D70 _ZN13GFaceMeshDiffD1Ev
       4996 1383 00D11D70 _ZN13GFaceMeshDiffD2Ev
       4997 1384 0015B500 _ZN13GradientBasis19mapFromIdealElementEiPA3_d
       4998 1385 00159430 _ZN13GradientBasis19mapFromIdealElementEiR10fullMatrixIdES2_S2_
       4999 1386 0015A700 _ZN13GradientBasis19mapFromIdealElementEiR10fullVectorIdES2_S2_
       5000 1387 00159030 _ZN13GradientBasisC1Ei13FuncSpaceData
       5001 1388 00159030 _ZN13GradientBasisC2Ei13FuncSpaceData
       5002 1389 00128E00 _ZN13GradientBasisD2Ev
       5003 138A 005B4030 _ZN13GradientField14getDescriptionEv
       5004 138B 005B4020 _ZN13GradientField7getNameEv
       5005 138C 005B3570 _ZN13GradientFieldC2Ev
       5006 138D 005B3BD0 _ZN13GradientFieldD0Ev
       5007 138E 005B3BF0 _ZN13GradientFieldclEdddP7GEntity
       5008 138F 00162E80 _ZN13JacobianBasis13jacobianOrderEi
       5009 1390 0015C260 _ZN13JacobianBasis13jacobianOrderEii
       5010 1391 00162F10 _ZN13JacobianBasis19jacobianMatrixSpaceEii
       5011 1392 0015B560 _ZN13JacobianBasisC1Ei13FuncSpaceData
       5012 1393 0015B560 _ZN13JacobianBasisC2Ei13FuncSpaceData
       5013 1394 00128CF0 _ZN13JacobianBasisD2Ev
       5014 1395 00394640 _ZN13MHexahedron2010getEdgeRepEbiPdS0_S0_P8SVector3
       5015 1396 00394970 _ZN13MHexahedron2010getFaceRepEbiPdS0_S0_P8SVector3
       5016 1397 00396850 _ZN13MHexahedron2012getVertexBDFEi
       5017 1398 00396890 _ZN13MHexahedron2012getVertexINPEi
       5018 1399 003968B0 _ZN13MHexahedron2012getVertexKEYEi
       5019 139A 00396810 _ZN13MHexahedron2012getVertexUNVEi
       5020 139B 00396830 _ZN13MHexahedron2012getVertexVTKEi
       5021 139C 00396870 _ZN13MHexahedron2013getVertexDIFFEi
       5022 139D 00394610 _ZN13MHexahedron2014getNumEdgesRepEb
       5023 139E 00394940 _ZN13MHexahedron2014getNumFacesRepEb
       5024 139F 00396A60 _ZN13MHexahedron207reverseEv
       5025 13A0 003967D0 _ZN13MHexahedron209getVertexEi
       5026 13A1 003967F0 _ZN13MHexahedron209setVertexEiP7MVertex
       5027 13A2 002EA680 _ZN13MHexahedron20C2EP7MVertexS1_S1_S1_S1_S1_S1_S1_S1_S1_S1_S1_S1_S1_S1_S1_S1_S1_S1_S1_ii
       5028 13A3 00382B10 _ZN13MHexahedron20C2ERKNSt3__16vectorIP7MVertexNS0_9allocatorIS3_EEEEii
       5029 13A4 00396780 _ZN13MHexahedron20D0Ev
       5030 13A5 00394A60 _ZN13MHexahedron2710getEdgeRepEbiPdS0_S0_P8SVector3
       5031 13A6 00394D90 _ZN13MHexahedron2710getFaceRepEbiPdS0_S0_P8SVector3
       5032 13A7 00396C70 _ZN13MHexahedron2712getVertexINPEi
       5033 13A8 00396C90 _ZN13MHexahedron2712getVertexKEYEi
       5034 13A9 00396C30 _ZN13MHexahedron2712getVertexVTKEi
       5035 13AA 00396C50 _ZN13MHexahedron2713getVertexDIFFEi
       5036 13AB 00394A30 _ZN13MHexahedron2714getNumEdgesRepEb
       5037 13AC 00394D60 _ZN13MHexahedron2714getNumFacesRepEb
       5038 13AD 00396E70 _ZN13MHexahedron277reverseEv
       5039 13AE 00396BF0 _ZN13MHexahedron279getVertexEi
       5040 13AF 00396C10 _ZN13MHexahedron279setVertexEiP7MVertex
       5041 13B0 002EA800 _ZN13MHexahedron27C2EP7MVertexS1_S1_S1_S1_S1_S1_S1_S1_S1_S1_S1_S1_S1_S1_S1_S1_S1_S1_S1_S1_S1_S1_S1_S1_S1_S1_ii
       5042 13B1 00382CD0 _ZN13MHexahedron27C2ERKNSt3__16vectorIP7MVertexNS0_9allocatorIS3_EEEEii
       5043 13B2 00396BA0 _ZN13MHexahedron27D0Ev
       5044 13B3 00391E60 _ZN13MTetrahedronN10getEdgeRepEbiPdS0_S0_P8SVector3
       5045 13B4 00391F20 _ZN13MTetrahedronN10getFaceRepEbiPdS0_S0_P8SVector3
       5046 13B5 00391E30 _ZN13MTetrahedronN14getNumEdgesRepEb
       5047 13B6 00391EF0 _ZN13MTetrahedronN14getNumFacesRepEb
       5048 13B7 013D26D0 _ZN13MTetrahedronN25_order2indicesReversedTetE
       5049 13B8 00391FE0 _ZN13MTetrahedronN7reverseEv
       5050 13B9 00393740 _ZN13MTetrahedronN9getVertexEi
       5051 13BA 00393760 _ZN13MTetrahedronN9setVertexEiP7MVertex
       5052 13BB 00383540 _ZN13MTetrahedronNC2ERKNSt3__16vectorIP7MVertexNS0_9allocatorIS3_EEEEcii
       5053 13BC 003936B0 _ZN13MTetrahedronND0Ev
       5054 13BD 00393690 _ZN13MTetrahedronND2Ev
       5055 13BE 005C16F0 _ZN13MathEvalField14getDescriptionEv
       5056 13BF 005C16E0 _ZN13MathEvalField7getNameEv
       5057 13C0 005C12E0 _ZN13MathEvalFieldC2Ev
       5058 13C1 005C1590 _ZN13MathEvalFieldD0Ev
       5059 13C2 005C1530 _ZN13MathEvalFieldD2Ev
       5060 13C3 005C15F0 _ZN13MathEvalFieldclEdddP7GEntity
       5061 13C4 005BBD90 _ZN13MinAnisoField14getDescriptionEv
       5062 13C5 005BBD80 _ZN13MinAnisoField7getNameEv
       5063 13C6 005BB310 _ZN13MinAnisoFieldC2Ev
       5064 13C7 005BB590 _ZN13MinAnisoFieldD0Ev
       5065 13C8 005BB520 _ZN13MinAnisoFieldD2Ev
       5066 13C9 005BB620 _ZN13MinAnisoFieldclEdddP7GEntity
       5067 13CA 005BBAC0 _ZN13MinAnisoFieldclEdddR8SMetric3P7GEntity
       5068 13CB 009B8FA0 _ZN13Nearest_point11init_regionEP7GRegion
       5069 13CC 009CA320 _ZN13Nearest_point11print_fieldEP7GRegion
       5070 13CD 009CA820 _ZN13Nearest_point13print_segmentERK7SPoint3S2_RNSt3__114basic_ofstreamIcNS3_11char_traitsIcEEEE
       5071 13CE 009C9DD0 _ZN13Nearest_point1TEddddd
       5072 13CF 009CA920 _ZN13Nearest_point4testEv
       5073 13D0 009CA300 _ZN13Nearest_point5clampEddd
       5074 13D1 009BBD90 _ZN13Nearest_point5clearEv
       5075 13D2 013D7F18 _ZN13Nearest_point5fieldE
       5076 13D3 009BAA80 _ZN13Nearest_point6searchEdddR8SVector3
       5077 13D4 009C9E00 _ZN13Nearest_point7closestEP8MElementRK7SPoint3
       5078 13D5 013D7F48 _ZN13Nearest_point7kd_treeE
       5079 13D6 013D7F30 _ZN13Nearest_point8vicinityE
       5080 13D7 009C9DC0 _ZN13Nearest_pointC1Ev
       5081 13D8 009C9DC0 _ZN13Nearest_pointC2Ev
       5082 13D9 007B5E00 _ZN13OCC_Internals10addBSplineERiRKNSt3__16vectorIiNS1_9allocatorIiEEEEiRKNS2_IdNS3_IdEEEESB_S7_
       5083 13DA 007B5D90 _ZN13OCC_Internals10addEllipseERidddddddRKNSt3__16vectorIdNS1_9allocatorIdEEEES7_
       5084 13DB 007B77D0 _ZN13OCC_Internals10healShapesERKNSt3__16vectorINS0_4pairIiiEENS0_9allocatorIS3_EEEERS6_dbbbbb
       5085 13DC 007B6500 _ZN13OCC_Internals11addCylinderERidddddddd
       5086 13DD 007B5C20 _ZN13OCC_Internals12addCircleArcERiiii
       5087 13DE 007B5F50 _ZN13OCC_Internals12addCurveLoopERiRKNSt3__16vectorIiNS1_9allocatorIiEEEE
       5088 13DF 007B6410 _ZN13OCC_Internals12addRectangleERidddddd
       5089 13E0 007B7670 _ZN13OCC_Internals12importShapesERKNSt3__112basic_stringIcNS0_11char_traitsIcEENS0_9allocatorIcEEEEbRNS0_6vectorINS0_4pairIiiEENS4_ISB_EEEES8_
       5090 13E1 007B5D10 _ZN13OCC_Internals13addEllipseArcERiiiii
       5091 13E2 007B6650 _ZN13OCC_Internals13addThickSolidEiiRKNSt3__16vectorIiNS0_9allocatorIiEEEEdRNS1_INS0_4pairIiiEENS2_IS8_EEEE
       5092 13E3 007B7750 _ZN13OCC_Internals13mergeVerticesERKNSt3__16vectorIiNS0_9allocatorIiEEEE
       5093 13E4 007B66D0 _ZN13OCC_Internals14addSurfaceLoopERiRKNSt3__16vectorIiNS1_9allocatorIiEEEEb
       5094 13E5 007B5FD0 _ZN13OCC_Internals15addPlaneSurfaceERiRKNSt3__16vectorIiNS1_9allocatorIiEEEE
       5095 13E6 007B67B0 _ZN13OCC_Internals15addThruSectionsEiRKNSt3__16vectorIiNS0_9allocatorIiEEEEbbRNS1_INS0_4pairIiiEENS2_IS8_EEEEi
       5096 13E7 007B7590 _ZN13OCC_Internals15booleanOperatorEiNS_15BooleanOperatorERKNSt3__16vectorINS1_4pairIiiEENS1_9allocatorIS4_EEEES9_RS7_RNS2_IS7_NS5_IS7_EEEEbb
       5097 13E8 007B6250 _ZN13OCC_Internals16addBezierFillingERiiRKNSt3__112basic_stringIcNS1_11char_traitsIcEENS1_9allocatorIcEEEE
       5098 13E9 007B61E0 _ZN13OCC_Internals17addBSplineFillingERiiRKNSt3__112basic_stringIcNS1_11char_traitsIcEENS1_9allocatorIcEEEE
       5099 13EA 007B6170 _ZN13OCC_Internals17addSurfaceFillingERiiRKNSt3__16vectorIiNS1_9allocatorIiEEEES7_S7_iiibddddii
       5100 13EB 007B76E0 _ZN13OCC_Internals19removeAllDuplicatesEv
       5101 13EC 007B6A90 _ZN13OCC_Internals4copyERKNSt3__16vectorINS0_4pairIiiEENS0_9allocatorIS3_EEEERS6_
       5102 13ED 007B6330 _ZN13OCC_Internals6addBoxERidddddd
       5103 13EE 007B6A10 _ZN13OCC_Internals6affineERKNSt3__16vectorINS0_4pairIiiEENS0_9allocatorIS3_EEEERKNS1_IdNS4_IdEEEE
       5104 13EF 007B69A0 _ZN13OCC_Internals6dilateERKNSt3__16vectorINS0_4pairIiiEENS0_9allocatorIS3_EEEEdddddd
       5105 13F0 007B73C0 _ZN13OCC_Internals6filletERKNSt3__16vectorIiNS0_9allocatorIiEEEES6_RKNS1_IdNS2_IdEEEERNS1_INS0_4pairIiiEENS2_ISC_EEEEb
       5106 13F1 007B68A0 _ZN13OCC_Internals6rotateERKNSt3__16vectorINS0_4pairIiiEENS0_9allocatorIS3_EEEEddddddd
       5107 13F2 007B6570 _ZN13OCC_Internals7addConeERiddddddddd
       5108 13F3 007B6490 _ZN13OCC_Internals7addDiskERidddddRKNSt3__16vectorIdNS1_9allocatorIdEEEES7_
       5109 13F4 007B5B40 _ZN13OCC_Internals7addLineERiRKNSt3__16vectorIiNS1_9allocatorIiEEEE
       5110 13F5 007B7350 _ZN13OCC_Internals7addPipeERKNSt3__16vectorINS0_4pairIiiEENS0_9allocatorIS3_EEEEiRS6_RKNS0_12basic_stringIcNS0_11char_traitsIcEENS4_IcEEEE
       5111 13F6 007B5EE0 _ZN13OCC_Internals7addWireERiRKNSt3__16vectorIiNS1_9allocatorIiEEEEb
       5112 13F7 007B7440 _ZN13OCC_Internals7chamferERKNSt3__16vectorIiNS0_9allocatorIiEEEES6_S6_RKNS1_IdNS2_IdEEEERNS1_INS0_4pairIiiEENS2_ISC_EEEEb
       5113 13F8 007B7270 _ZN13OCC_Internals7extrudeERKNSt3__16vectorINS0_4pairIiiEENS0_9allocatorIS3_EEEEdddRS6_P13ExtrudeParams
       5114 13F9 007B72E0 _ZN13OCC_Internals7revolveERKNSt3__16vectorINS0_4pairIiiEENS0_9allocatorIS3_EEEEdddddddRS6_P13ExtrudeParams
       5115 13FA 007B63A0 _ZN13OCC_Internals8addTorusERiddddddRKNSt3__16vectorIdNS1_9allocatorIdEEEE
       5116 13FB 007B65E0 _ZN13OCC_Internals8addWedgeERidddddddRKNSt3__16vectorIdNS1_9allocatorIdEEEE
       5117 13FC 007B6920 _ZN13OCC_Internals8symmetryERKNSt3__16vectorINS0_4pairIiiEENS0_9allocatorIS3_EEEEdddd
       5118 13FD 007B5E70 _ZN13OCC_Internals9addBezierERiRKNSt3__16vectorIiNS1_9allocatorIiEEEE
       5119 13FE 007B5CA0 _ZN13OCC_Internals9addCircleERiddddddRKNSt3__16vectorIdNS1_9allocatorIdEEEES7_
       5120 13FF 007B62C0 _ZN13OCC_Internals9addSphereERiddddddd
       5121 1400 007B5BB0 _ZN13OCC_Internals9addSplineERiRKNSt3__16vectorIiNS1_9allocatorIiEEEE
       5122 1401 007B5AD0 _ZN13OCC_Internals9addVertexERidddd
       5123 1402 007B6740 _ZN13OCC_Internals9addVolumeERiRKNSt3__16vectorIiNS1_9allocatorIiEEEE
       5124 1403 007B6830 _ZN13OCC_Internals9translateERKNSt3__16vectorINS0_4pairIiiEENS0_9allocatorIS3_EEEEddd
       5125 1404 006A2200 _ZN13PViewDataList10_getStringEiiiRNSt3__112basic_stringIcNS0_11char_traitsIcEENS0_9allocatorIcEEEERdS8_S8_S8_
       5126 1405 006A0D10 _ZN13PViewDataList10_stat64i32ERNSt3__16vectorIdNS0_9allocatorIdEEEERNS1_IcNS2_IcEEEEi
       5127 1406 006A0FD0 _ZN13PViewDataList10_stat64i32ERNSt3__16vectorIdNS0_9allocatorIdEEEEiiii
       5128 1407 006AA4A0 _ZN13PViewDataList10importListEiiRKNSt3__16vectorIdNS0_9allocatorIdEEEEb
       5129 1408 006A2410 _ZN13PViewDataList11_getRawDataEiPPNSt3__16vectorIdNS0_9allocatorIdEEEEPPiS7_S7_
       5130 1409 00697F00 _ZN13PViewDataList11combineTimeER8nameData
       5131 140A 00696F10 _ZN13PViewDataList11getNumEdgesEiii
       5132 140B 006A3810 _ZN13PViewDataList11getNumLinesEi
       5133 140C 00696C10 _ZN13PViewDataList11getNumNodesEiii
       5134 140D 00696F70 _ZN13PViewDataList11getString2DEiiRNSt3__112basic_stringIcNS0_11char_traitsIcEENS0_9allocatorIcEEEERdS8_S8_
       5135 140E 00696FC0 _ZN13PViewDataList11getString3DEiiRNSt3__112basic_stringIcNS0_11char_traitsIcEENS0_9allocatorIcEEEERdS8_S8_S8_
       5136 140F 006AA3A0 _ZN13PViewDataList11importListsEPiPPNSt3__16vectorIdNS1_9allocatorIdEEEE
       5137 1410 006A3980 _ZN13PViewDataList11isListBasedEv
       5138 1411 0069A910 _ZN13PViewDataList12combineSpaceER8nameData
       5139 1412 00696BE0 _ZN13PViewDataList12getDimensionEiii
       5140 1413 006A37F0 _ZN13PViewDataList12getNumPointsEi
       5141 1414 006A38D0 _ZN13PViewDataList12getNumPrismsEi
       5142 1415 00696D90 _ZN13PViewDataList12getNumValuesEiii
       5143 1416 0069F7F0 _ZN13PViewDataList13getMemoryInMbEv
       5144 1417 00696AA0 _ZN13PViewDataList13getNumScalarsEi
       5145 1418 00696B40 _ZN13PViewDataList13getNumTensorsEi
       5146 1419 00696AF0 _ZN13PViewDataList13getNumVectorsEi
       5147 141A 006A2A60 _ZN13PViewDataList13incrementListEiii
       5148 141B 006A3750 _ZN13PViewDataList14getBoundingBoxEi
       5149 141C 00696B90 _ZN13PViewDataList14getNumElementsEii
       5150 141D 006A3950 _ZN13PViewDataList14getNumEntitiesEi
       5151 141E 006A3870 _ZN13PViewDataList14getNumPolygonsEi
       5152 141F 006A38F0 _ZN13PViewDataList14getNumPyramidsEi
       5153 1420 006A3910 _ZN13PViewDataList14getNumTrihedraEi
       5154 1421 00697000 _ZN13PViewDataList14reverseElementEiii
       5155 1422 006A37A0 _ZN13PViewDataList14setBoundingBoxER14SBoundingBox3d
       5156 1423 006AA580 _ZN13PViewDataList15getListPointersEPiPPNSt3__16vectorIdNS1_9allocatorIdEEEE
       5157 1424 006A38B0 _ZN13PViewDataList15getNumHexahedraEi
       5158 1425 006A3930 _ZN13PViewDataList15getNumPolyhedraEi
       5159 1426 006A3960 _ZN13PViewDataList15getNumStrings2DEv
       5160 1427 006A3970 _ZN13PViewDataList15getNumStrings3DEv
       5161 1428 006A3720 _ZN13PViewDataList15getNumTimeStepsEv
       5162 1429 006A3830 _ZN13PViewDataList15getNumTrianglesEi
       5163 142A 00696D60 _ZN13PViewDataList16getNumComponentsEiii
       5164 142B 006A3890 _ZN13PViewDataList16getNumTetrahedraEi
       5165 142C 006A3850 _ZN13PViewDataList17getNumQuadranglesEi
       5166 142D 0069EC60 _ZN13PViewDataList5setXYERNSt3__16vectorIdNS0_9allocatorIdEEEES5_
       5167 142E 006968E0 _ZN13PViewDataList6getMaxEibiiPi
       5168 142F 00696720 _ZN13PViewDataList6getMinEibiiPi
       5169 1430 006A3740 _ZN13PViewDataList6setMaxEd
       5170 1431 006A3730 _ZN13PViewDataList6setMinEd
       5171 1432 00697500 _ZN13PViewDataList6smoothEv
       5172 1433 006A08D0 _ZN13PViewDataList7addStepERNSt3__16vectorIdNS0_9allocatorIdEEEE
       5173 1434 00696C40 _ZN13PViewDataList7getNodeEiiiiRdS0_S0_
       5174 1435 006966F0 _ZN13PViewDataList7getTimeEi
       5175 1436 00696F40 _ZN13PViewDataList7getTypeEiii
       5176 1437 006A39A0 _ZN13PViewDataList7readPOSEP6_iobufdb
       5177 1438 00696CC0 _ZN13PViewDataList7setNodeEiiiiddd
       5178 1439 0069F220 _ZN13PViewDataList7setXYZVERNSt3__16vectorIdNS0_9allocatorIdEEEES5_S5_S5_
       5179 143A 006A1910 _ZN13PViewDataList8_setLastEi
       5180 143B 006A1790 _ZN13PViewDataList8_setLastEiiiiiiRNSt3__16vectorIdNS0_9allocatorIdEEEEi
       5181 143C 00695AE0 _ZN13PViewDataList8finalizeEbRKNSt3__112basic_stringIcNS0_11char_traitsIcEENS0_9allocatorIcEEEE
       5182 143D 00696DC0 _ZN13PViewDataList8getValueEiiiiRd
       5183 143E 00696E20 _ZN13PViewDataList8getValueEiiiiiRd
       5184 143F 00696E90 _ZN13PViewDataList8setValueEiiiiid
       5185 1440 006A81B0 _ZN13PViewDataList8writeMSHERKNSt3__112basic_stringIcNS0_11char_traitsIcEENS0_9allocatorIcEEEEdbbbibbb
       5186 1441 006A5B60 _ZN13PViewDataList8writePOSERKNSt3__112basic_stringIcNS0_11char_traitsIcEENS0_9allocatorIcEEEEbbb
       5187 1442 006A29F0 _ZN13PViewDataList9setOrder2Ei
       5188 1443 0069FC50 _ZN13PViewDataListC1Eb
       5189 1444 0069FC50 _ZN13PViewDataListC2Eb
       5190 1445 006A3700 _ZN13PViewDataListD0Ev
       5191 1446 006A32C0 _ZN13PViewDataListD2Ev
       5192 1447 007016C0 _ZN13PluginManager15setPluginOptionERKNSt3__112basic_stringIcNS0_11char_traitsIcEENS0_9allocatorIcEEEES8_S8_
       5193 1448 00701940 _ZN13PluginManager15setPluginOptionERKNSt3__112basic_stringIcNS0_11char_traitsIcEENS0_9allocatorIcEEEES8_d
       5194 1449 007014F0 _ZN13PluginManager16findSolverPluginEv
       5195 144A 00701C20 _ZN13PluginManager22registerDefaultPluginsEv
       5196 144B 007014C0 _ZN13PluginManager4findERKNSt3__112basic_stringIcNS0_11char_traitsIcEENS0_9allocatorIcEEEE
       5197 144C 00701590 _ZN13PluginManager6actionERKNSt3__112basic_stringIcNS0_11char_traitsIcEENS0_9allocatorIcEEEES8_Pv
       5198 144D 00701BD0 _ZN13PluginManager8instanceEv
       5199 144E 013D49C0 _ZN13PluginManager9_instanceE
       5200 144F 007025B0 _ZN13PluginManager9addPluginERKNSt3__112basic_stringIcNS0_11char_traitsIcEENS0_9allocatorIcEEEE
       5201 1450 00701360 _ZN13PluginManagerD0Ev
       5202 1451 00701410 _ZN13PluginManagerD1Ev
       5203 1452 00701410 _ZN13PluginManagerD2Ev
       5204 1453 005B33E0 _ZN13PostViewField14getDescriptionEv
       5205 1454 005B33D0 _ZN13PostViewField7getNameEv
       5206 1455 005B24E0 _ZN13PostViewFieldC2Ev
       5207 1456 005B2CF0 _ZN13PostViewFieldD0Ev
       5208 1457 005B2DC0 _ZN13PostViewFieldclEdddP7GEntity
       5209 1458 005B31B0 _ZN13PostViewFieldclEdddR8SMetric3P7GEntity
       5210 1459 005B3030 _ZN13PostViewFieldclEdddR8SVector3P7GEntity
       5211 145A 005B9630 _ZN13RestrictField14getDescriptionEv
       5212 145B 005B9620 _ZN13RestrictField7getNameEv
       5213 145C 005B7F40 _ZN13RestrictFieldC2Ev
       5214 145D 005B90F0 _ZN13RestrictFieldD0Ev
       5215 145E 005B8F70 _ZN13RestrictFieldD2Ev
       5216 145F 005B9110 _ZN13RestrictFieldclEdddP7GEntity
       5217 1460 009E7BD0 _ZN13Supplementary10statisticsEP7GRegion
       5218 1461 009E94A0 _ZN13Supplementary11conformityAE5Prism
       5219 1462 009EC720 _ZN13Supplementary11conformityAEP7MVertexS1_S1_S1_
       5220 1463 009E9530 _ZN13Supplementary11conformityBE5Prism
       5221 1464 009EA290 _ZN13Supplementary11conformityCE5Prism
       5222 1465 009E3B00 _ZN13Supplementary12build_tuplesEP7GRegion
       5223 1466 009EC1D0 _ZN13Supplementary12intersectionERKNSt3__13setIP7MVertexNS0_4lessIS3_EENS0_9allocatorIS3_EEEESA_RKNS0_6vectorIS3_S7_EERS8_
       5224 1467 009E3EF0 _ZN13Supplementary13init_markingsEP7GRegion
       5225 1468 009EA790 _ZN13Supplementary14faces_statuquoE5Prism
       5226 1469 009ECA30 _ZN13Supplementary14faces_statuquoEP7MVertexS1_S1_S1_
       5227 146A 009ED2A0 _ZN13Supplementary15scaled_jacobianEP7MVertexS1_S1_S1_
       5228 146B 009EA820 _ZN13Supplementary17build_hash_tableAE5Prism
       5229 146C 009E6980 _ZN13Supplementary17build_hash_tableAEP7MVertexS1_S1_S1_
       5230 146D 009ECF30 _ZN13Supplementary17build_hash_tableAERK5Facet
       5231 146E 009EA8A0 _ZN13Supplementary17build_hash_tableBE5Prism
       5232 146F 009E6C60 _ZN13Supplementary17build_hash_tableBEP7MVertexS1_S1_S1_
       5233 1470 009ED100 _ZN13Supplementary17build_hash_tableBERK8Diagonal
       5234 1471 009EA9C0 _ZN13Supplementary17build_hash_tableCE5Prism
       5235 1472 009E6CD0 _ZN13Supplementary17build_hash_tableCERK8Diagonal
       5236 1473 009E8400 _ZN13Supplementary19min_scaled_jacobianE5Prism
       5237 1474 009E4050 _ZN13Supplementary24build_vertex_to_verticesEP7GRegion
       5238 1475 009E7D00 _ZN13Supplementary24create_quads_on_boundaryEP7GRegion
       5239 1476 009EAB60 _ZN13Supplementary24create_quads_on_boundaryEP7MVertexS1_S1_S1_
       5240 1477 009E5310 _ZN13Supplementary26build_vertex_to_tetrahedraEP7GRegion
       5241 1478 009EC130 _ZN13Supplementary3etaEP7MVertexS1_S1_S1_
       5242 1479 009EAB40 _ZN13Supplementary3sixEP8MElement
       5243 147A 009E8D60 _ZN13Supplementary4findEP7MVertexRK5PrismRNSt3__13setIP8MElementNS5_4lessIS8_EENS5_9allocatorIS8_EEEE
       5244 147B 009E82C0 _ZN13Supplementary4findEP7MVertexS1_RKNSt3__16vectorIS1_NS2_9allocatorIS1_EEEERNS2_3setIS1_NS2_4lessIS1_EES5_EE
       5245 147C 009EB4A0 _ZN13Supplementary4fiveEP8MElement
       5246 147D 009E82A0 _ZN13Supplementary4fourEP8MElement
       5247 147E 009E6960 _ZN13Supplementary5eightEP8MElement
       5248 147F 009E6E80 _ZN13Supplementary5mergeEP7GRegion
       5249 1480 009E8B50 _ZN13Supplementary5validE5Prism
       5250 1481 009E92C0 _ZN13Supplementary5validE5PrismRKNSt3__13setIP8MElementNS1_4lessIS4_EENS1_9allocatorIS4_EEEE
       5251 1482 009E8350 _ZN13Supplementary6linkedEP7MVertexS1_
       5252 1483 009E9080 _ZN13Supplementary6sliverEP8MElement5Prism
       5253 1484 009E3310 _ZN13Supplementary7executeEP7GRegion
       5254 1485 009E3250 _ZN13Supplementary7executeEv
       5255 1486 009E5D20 _ZN13Supplementary7patternEP7GRegion
       5256 1487 009EC630 _ZN13Supplementary9duplicateERK8Diagonal
       5257 1488 009EC3F0 _ZN13Supplementary9inclusionEP7MVertex5Prism
       5258 1489 009EB4F0 _ZN13Supplementary9inclusionEP7MVertexS1_S1_RKNSt3__13setIP8MElementNS2_4lessIS5_EENS2_9allocatorIS5_EEEE
       5259 148A 009EB4C0 _ZN13Supplementary9inclusionEP7MVertexS1_S1_S1_S1_
       5260 148B 009EC420 _ZN13Supplementary9inclusionERK5Facet
       5261 148C 009EC540 _ZN13Supplementary9inclusionERK8Diagonal
       5262 148D 009E7B70 _ZN13Supplementary9rearrangeEP7GRegion
       5263 148E 009E3110 _ZN13SupplementaryC1Ev
       5264 148F 009E3110 _ZN13SupplementaryC2Ev
       5265 1490 009E31A0 _ZN13SupplementaryD1Ev
       5266 1491 009E31A0 _ZN13SupplementaryD2Ev
       5267 1492 006B7F00 _ZN13adaptivePoint10recurErrorEPS_dd
       5268 1493 013D3740 _ZN13adaptivePoint11allVerticesE
       5269 1494 006B7EA0 _ZN13adaptivePoint11recurCreateEPS_ii
       5270 1495 013D3800 _ZN13adaptivePoint3allE
       5271 1496 006B7EF0 _ZN13adaptivePoint5errorEdd
       5272 1497 006B7D70 _ZN13adaptivePoint6createEi
       5273 1498 013D38C0 _ZN13adaptivePoint8numEdgesE
       5274 1499 013C1970 _ZN13adaptivePoint8numNodesE
       5275 149A 006BCDA0 _ZN13adaptivePrism10recurErrorEPS_dd
       5276 149B 013D37D0 _ZN13adaptivePrism11allVerticesE
       5277 149C 006BC5E0 _ZN13adaptivePrism11recurCreateEPS_ii
       5278 149D 013D3890 _ZN13adaptivePrism3allE
       5279 149E 006BCD80 _ZN13adaptivePrism5errorEdd
       5280 149F 006BC410 _ZN13adaptivePrism6createEi
       5281 14A0 013C199C _ZN13adaptivePrism8numEdgesE
       5282 14A1 013C1980 _ZN13adaptivePrism8numNodesE
       5283 14A2 00445F40 _ZN13bidimMeshData9addVertexEP7MVertexdddd
       5284 14A3 00445EB0 _ZN13bidimMeshDataD2Ev
       5285 14A4 00462EB0 _ZN13deMeshGRegionclEP7GRegion
       5286 14A5 00656E50 _ZN13elementFilterD2Ev
       5287 14A6 00674920 _ZN13frameSolver2d10createDofsEv
       5288 14A7 00673B50 _ZN13frameSolver2d12addFixationsERKNSt3__16vectorIiNS0_9allocatorIiEEEES6_d
       5289 14A8 00673ED0 _ZN13frameSolver2d14addBeamsOrBarsERKNSt3__16vectorIiNS0_9allocatorIiEEEEdddPi
       5290 14A9 00673D50 _ZN13frameSolver2d14addNodalForcesERKNSt3__16vectorIiNS0_9allocatorIiEEEERKNS1_IdNS2_IdEEEE
       5291 14AA 00675E00 _ZN13frameSolver2d15exportFrameDataEPKcS1_
       5292 14AB 00674AB0 _ZN13frameSolver2d19computeRotationTagsEv
       5293 14AC 00674E30 _ZN13frameSolver2d22computeStiffnessMatrixEiR10fullMatrixIdE
       5294 14AD 00675780 _ZN13frameSolver2d5solveEv
       5295 14AE 006748F0 _ZN13frameSolver2d7addBarsERKNSt3__16vectorIiNS0_9allocatorIiEEEEddd
       5296 14AF 006748B0 _ZN13frameSolver2d8addBeamsERKNSt3__16vectorIiNS0_9allocatorIiEEEEddd
       5297 14B0 00673B30 _ZN13frameSolver2dC1EP6GModel
       5298 14B1 00673B30 _ZN13frameSolver2dC2EP6GModel
       5299 14B2 00354150 _ZN13gLevelsetConeC1EPKdS1_RS0_i
       5300 14B3 003545B0 _ZN13gLevelsetConeC1ERKS_
       5301 14B4 00354150 _ZN13gLevelsetConeC2EPKdS1_RS0_i
       5302 14B5 003545B0 _ZN13gLevelsetConeC2ERKS_
       5303 14B6 0035AB60 _ZN13gLevelsetConeD0Ev
       5304 14B7 00354C90 _ZN13gLevelsetYarnC1Eiiddii
       5305 14B8 00354C90 _ZN13gLevelsetYarnC2Eiiddii
       5306 14B9 00359A80 _ZN13gLevelsetYarnD0Ev
       5307 14BA 00359A60 _ZN13gLevelsetYarnD2Ev
       5308 14BB 006E0C90 _ZN13globalVTKData15clearGlobalDataEv
       5309 14BC 013D38F8 _ZN13globalVTKData15vtkGlobalCoordsE
       5310 14BD 013D3910 _ZN13globalVTKData15vtkGlobalValuesE
       5311 14BE 013D38E0 _ZN13globalVTKData17vtkGlobalCellTypeE
       5312 14BF 013D38C8 _ZN13globalVTKData21vtkGlobalConnectivityE
       5313 14C0 0028B8D0 _ZN13initMeshGEdgeclEP5GEdge
       5314 14C1 0028C870 _ZN13initMeshGFaceclEP5GFace
       5315 14C2 001A75C0 _ZN13mathEvaluator4evalERKNSt3__16vectorIdNS0_9allocatorIdEEEERS4_
       5316 14C3 001A7070 _ZN13mathEvaluatorC1ERNSt3__16vectorINS0_12basic_stringIcNS0_11char_traitsIcEENS0_9allocatorIcEEEENS5_IS7_EEEERKS9_
       5317 14C4 001A7070 _ZN13mathEvaluatorC2ERNSt3__16vectorINS0_12basic_stringIcNS0_11char_traitsIcEENS0_9allocatorIcEEEENS5_IS7_EEEERKS9_
       5318 14C5 001A7530 _ZN13mathEvaluatorD1Ev
       5319 14C6 001A7530 _ZN13mathEvaluatorD2Ev
       5320 14C7 002E63B0 _ZN13partitionEdge13setPartitionsERNSt3__16vectorIiNS0_9allocatorIiEEEE
       5321 14C8 002E6370 _ZN13partitionEdge15getParentEntityEv
       5322 14C9 002E63A0 _ZN13partitionEdge15setParentEntityEP7GEntity
       5323 14CA 002E6390 _ZN13partitionEdge19haveParametrizationEv
       5324 14CB 0057B510 _ZN13partitionEdgeC2EP6GModeliRKNSt3__16vectorIiNS2_9allocatorIiEEEE
       5325 14CC 002E62B0 _ZN13partitionEdgeD0Ev
       5326 14CD 002E61F0 _ZN13partitionEdgeD2Ev
       5327 14CE 002E6510 _ZN13partitionFace13setPartitionsERNSt3__16vectorIiNS0_9allocatorIiEEEE
       5328 14CF 002E64D0 _ZN13partitionFace15getParentEntityEv
       5329 14D0 002E6500 _ZN13partitionFace15setParentEntityEP7GEntity
       5330 14D1 002E64F0 _ZN13partitionFace19haveParametrizationEv
       5331 14D2 0057B600 _ZN13partitionFaceC2EP6GModeliRKNSt3__16vectorIiNS2_9allocatorIiEEEE
       5332 14D3 002E6470 _ZN13partitionFaceD0Ev
       5333 14D4 002E6410 _ZN13partitionFaceD2Ev
       5334 14D5 0052E590 _ZN13qmTetrahedron2qmEP12MTetrahedronRKNS_8MeasuresEPd
       5335 14D6 0052E740 _ZN13qmTetrahedron2qmEPK7MVertexS2_S2_S2_RKNS_8MeasuresEPd
       5336 14D7 0052E8A0 _ZN13qmTetrahedron2qmERKdS1_S1_S1_S1_S1_S1_S1_S1_S1_S1_S1_RKNS_8MeasuresEPd
       5337 14D8 0052EB20 _ZN13qmTetrahedron3etaERKdS1_S1_S1_S1_S1_S1_S1_S1_S1_S1_S1_Pd
       5338 14D9 0052F3D0 _ZN13qmTetrahedron4condERKdS1_S1_S1_S1_S1_S1_S1_S1_S1_S1_S1_Pd
       5339 14DA 0052EF00 _ZN13qmTetrahedron5gammaERKdS1_S1_S1_S1_S1_S1_S1_S1_S1_S1_S1_Pd
       5340 14DB 00670700 _ZN13thermicSolver11changeLMTauEid
       5341 14DC 00670930 _ZN13thermicSolver11setEdgeTempEiP14simpleFunctionIdE
       5342 14DD 00670B10 _ZN13thermicSolver11setFaceTempEiP14simpleFunctionIdE
       5343 14DE 00670CF0 _ZN13thermicSolver13computeL2NormEP14simpleFunctionIdE
       5344 14DF 00671200 _ZN13thermicSolver14computeLagNormEiP14simpleFunctionIdE
       5345 14E0 00670530 _ZN13thermicSolver16setThermicDomainEid
       5346 14E1 0066E690 _ZN13thermicSolver20buildTemperatureViewENSt3__112basic_stringIcNS0_11char_traitsIcEENS0_9allocatorIcEEEE
       5347 14E2 00671780 _ZN13thermicSolver22buildErrorEstimateViewERKNSt3__112basic_stringIcNS0_11char_traitsIcEENS0_9allocatorIcEEEEP14simpleFunctionIdE
       5348 14E3 00670750 _ZN13thermicSolver22setLagrangeMultipliersEidiP14simpleFunctionIdE
       5349 14E4 0066F460 _ZN13thermicSolver27buildLagrangeMultiplierViewERKNSt3__112basic_stringIcNS0_11char_traitsIcEENS0_9allocatorIcEEEE
       5350 14E5 0066FC80 _ZN13thermicSolver5solveEv
       5351 14E6 00670470 _ZN13thermicSolver7cutMeshEP9gLevelset
       5352 14E7 0066E4D0 _ZN13thermicSolver7setMeshERKNSt3__112basic_stringIcNS0_11char_traitsIcEENS0_9allocatorIcEEEE
       5353 14E8 0066FDC0 _ZN13thermicSolver8assembleEP12linearSystemIdE
       5354 14E9 006724A0 _ZN13thermicSolverD0Ev
       5355 14EA 00672400 _ZN13thermicSolverD2Ev
       5356 14EB 005BF320 _ZN14CurvatureField14getDescriptionEv
       5357 14EC 005BF310 _ZN14CurvatureField7getNameEv
       5358 14ED 005BE3C0 _ZN14CurvatureFieldC2Ev
       5359 14EE 005BE8A0 _ZN14CurvatureFieldD0Ev
       5360 14EF 005BE8C0 _ZN14CurvatureFieldclEdddP7GEntity
       5361 14F0 00004FA0 _ZN14FieldOptionInt14numericalValueEd
       5362 14F1 00004E10 _ZN14FieldOptionInt21getTextRepresentationERNSt3__112basic_stringIcNS0_11char_traitsIcEENS0_9allocatorIcEEEE
       5363 14F2 00004E00 _ZN14FieldOptionInt7getTypeEv
       5364 14F3 00004DD0 _ZN14FieldOptionIntD0Ev
       5365 14F4 00627090 _ZN14GFaceMeshPatchC2ERKS_
       5366 14F5 006265E0 _ZN14GFaceMeshPatchD2Ev
       5367 14F6 00627F80 _ZN14GFaceMeshPatchaSEOS_
       5368 14F7 005BDB10 _ZN14LaplacianField14getDescriptionEv
       5369 14F8 005BDB00 _ZN14LaplacianField7getNameEv
       5370 14F9 005BD3B0 _ZN14LaplacianFieldC2Ev
       5371 14FA 005BD880 _ZN14LaplacianFieldD0Ev
       5372 14FB 005BD8A0 _ZN14LaplacianFieldclEdddP7GEntity
       5373 14FC 0066C5B0 _ZN14LinearTermBaseIdED2Ev
       5374 14FD 00385580 _ZN14MElementOctreeC1EP6GModel
       5375 14FE 00385930 _ZN14MElementOctreeC1ERKNSt3__16vectorIP8MElementNS0_9allocatorIS3_EEEE
       5376 14FF 00385580 _ZN14MElementOctreeC2EP6GModel
       5377 1500 00385930 _ZN14MElementOctreeC2ERKNSt3__16vectorIP8MElementNS0_9allocatorIS3_EEEE
       5378 1501 00385CD0 _ZN14MElementOctreeD1Ev
       5379 1502 00385CD0 _ZN14MElementOctreeD2Ev
       5380 1503 00384F60 _ZN14MPolygonBorder9setDomainEP8MElementi
       5381 1504 003829E0 _ZN14MPolygonBorderC2ERKNSt3__16vectorIP7MVertexNS0_9allocatorIS3_EEEEiibP8MElementSA_SA_
       5382 1505 003BE230 _ZN14MPolygonBorderC2ERKNSt3__16vectorIP9MTriangleNS0_9allocatorIS3_EEEEiibP8MElementSA_SA_
       5383 1506 003849D0 _ZN14MPolygonBorderD0Ev
       5384 1507 00391CB0 _ZN14MTetrahedron1010getEdgeRepEbiPdS0_S0_P8SVector3
       5385 1508 00391D70 _ZN14MTetrahedron1010getFaceRepEbiPdS0_S0_P8SVector3
       5386 1509 003933A0 _ZN14MTetrahedron1012getVertexBDFEi
       5387 150A 003933D0 _ZN14MTetrahedron1012getVertexINPEi
       5388 150B 003933E0 _ZN14MTetrahedron1012getVertexKEYEi
       5389 150C 00393360 _ZN14MTetrahedron1012getVertexUNVEi
       5390 150D 00393380 _ZN14MTetrahedron1012getVertexVTKEi
       5391 150E 003933C0 _ZN14MTetrahedron1013getVertexDIFFEi
       5392 150F 00391C80 _ZN14MTetrahedron1014getNumEdgesRepEb
       5393 1510 00391D40 _ZN14MTetrahedron1014getNumFacesRepEb
       5394 1511 00393560 _ZN14MTetrahedron107reverseEv
       5395 1512 00393320 _ZN14MTetrahedron109getVertexEi
       5396 1513 00393340 _ZN14MTetrahedron109setVertexEiP7MVertex
       5397 1514 002EDDC0 _ZN14MTetrahedron10C2ERKNSt3__16vectorIP7MVertexNS0_9allocatorIS3_EEEEii
       5398 1515 003932D0 _ZN14MTetrahedron10D0Ev
       5399 1516 001AA7F0 _ZN14OrthogonalPoly11EvalLobattoEid
       5400 1517 001AAD40 _ZN14OrthogonalPoly12EvalDLobattoEid
       5401 1518 001ABA70 _ZN14OrthogonalPoly12EvalLegendreEid
       5402 1519 001ABD10 _ZN14OrthogonalPoly13EvalDLegendreEid
       5403 151A 001AB220 _ZN14OrthogonalPoly18EvalKernelFunctionEid
       5404 151B 001AB670 _ZN14OrthogonalPoly19EvalDKernelFunctionEid
       5405 151C 006B7560 _ZN14PViewEvaluatorD0Ev
       5406 151D 0066A330 _ZN14QuadratureBaseD2Ev
       5407 151E 002255E0 _ZN14SBoundingBox3d9transformERKNSt3__16vectorIdNS0_9allocatorIdEEEE
       5408 151F 0067AA70 _ZN14ScalarTermBaseIdED2Ev
       5409 1520 005ACBA0 _ZN14ThresholdField14getDescriptionEv
       5410 1521 005ACB90 _ZN14ThresholdField7getNameEv
       5411 1522 005ABA80 _ZN14ThresholdFieldC2Ev
       5412 1523 005AC9E0 _ZN14ThresholdFieldD0Ev
       5413 1524 005ACA00 _ZN14ThresholdFieldclEdddP7GEntity
       5414 1525 003DB290 _ZN14VectorSpaceCatI5ChainIiEiEdVERKi
       5415 1526 003DB2C0 _ZN14VectorSpaceCatI5ChainIiEiEmIERKS1_
       5416 1527 003DB270 _ZN14VectorSpaceCatI5ChainIiEiEngEv
       5417 1528 006B7B20 _ZN14adaptiveVertex3addEdddRNSt3__13setIS_NS0_4lessIS_EENS0_9allocatorIS_EEEE
       5418 1529 005198F0 _ZN14backgroundMesh11updateSizesEP5GFace
       5419 152A 0051B490 _ZN14backgroundMesh13getSmoothnessEP8MElement
       5420 152B 0051B940 _ZN14backgroundMesh13getSmoothnessEddd
       5421 152C 00519180 _ZN14backgroundMesh15propagate1dMeshEP5GFace
       5422 152D 0051A4F0 _ZN14backgroundMesh19propagateCrossFieldEP5GFace
       5423 152E 0051BC10 _ZN14backgroundMesh19propagateCrossFieldEP5GFaceP14simpleFunctionIdE
       5424 152F 0051D660 _ZN14backgroundMesh21getMeshElementByCoordEdddb
       5425 1530 0051BBD0 _ZN14backgroundMesh21propagateCrossFieldHJEP5GFace
       5426 1531 00516D70 _ZN14backgroundMesh24setCrossFieldsByDistanceEP5GFace
       5427 1532 00517E10 _ZN14backgroundMesh29propagateCrossFieldByDistanceEP5GFace
       5428 1533 00516CE0 _ZN14backgroundMesh3setEP5GFace
       5429 1534 0051D170 _ZN14backgroundMesh5printERKNSt3__112basic_stringIcNS0_11char_traitsIcEENS0_9allocatorIcEEEEP5GFaceRKNS0_3mapIP7MVertexdNS0_4lessISD_EENS4_INS0_4pairIKSD_dEEEEEEi
       5430 1535 00516DF0 _ZN14backgroundMesh5unsetEv
       5431 1536 00516E30 _ZN14backgroundMesh7currentEv
       5432 1537 013D34B8 _ZN14backgroundMesh8_currentE
       5433 1538 00516E60 _ZN14backgroundMeshC1EP5GFaceb
       5434 1539 00516E60 _ZN14backgroundMeshC2EP5GFaceb
       5435 153A 005168B0 _ZN14backgroundMeshD0Ev
       5436 153B 0051A570 _ZN14backgroundMeshD1Ev
       5437 153C 0051A570 _ZN14backgroundMeshD2Ev
       5438 153D 00240ED0 _ZN14discreteRegion14createGeometryEv
       5439 153E 00240F40 _ZN14discreteRegion19haveParametrizationEv
       5440 153F 00240EA0 _ZN14discreteRegionC1EP6GModel
       5441 1540 00240E30 _ZN14discreteRegionC1EP6GModeli
       5442 1541 00240EA0 _ZN14discreteRegionC2EP6GModel
       5443 1542 00240E30 _ZN14discreteRegionC2EP6GModeli
       5444 1543 00240F10 _ZN14discreteRegionD0Ev
       5445 1544 00237960 _ZN14discreteVertex11setPositionER6GPoint
       5446 1545 00237A60 _ZN14discreteVertexC1EP6GModel
       5447 1546 002379B0 _ZN14discreteVertexC1EP6GModeliddd
       5448 1547 00237A60 _ZN14discreteVertexC2EP6GModel
       5449 1548 002379B0 _ZN14discreteVertexC2EP6GModeliddd
       5450 1549 00237830 _ZN14discreteVertexD0Ev
       5451 154A 00237A90 _ZN14discreteVertexD1Ev
       5452 154B 00237A90 _ZN14discreteVertexD2Ev
       5453 154C 006555A0 _ZN14dofManagerBase17_parallelFinalizeEv
       5454 154D 005209C0 _ZN14dofManagerBaseD2Ev
       5455 154E 0065B5D0 _ZN14elasticityTermD0Ev
       5456 154F 0065B5B0 _ZN14elasticityTermD2Ev
       5457 1550 006FDD40 _ZN14elementFactory6createEiiPdS0_S0_b
       5458 1551 007B6CD0 _ZN14gLevelsetCrackC2ENSt3__16vectorIP9gLevelsetNS0_9allocatorIS3_EEEEbi
       5459 1552 007B8080 _ZN14gLevelsetCrackD0Ev
       5460 1553 0034F150 _ZN14gLevelsetPlaneC1EPKdS1_S1_i
       5461 1554 0034F0D0 _ZN14gLevelsetPlaneC1EPKdS1_i
       5462 1555 0034F050 _ZN14gLevelsetPlaneC1ERKNSt3__16vectorIdNS0_9allocatorIdEEEES6_i
       5463 1556 0034F2E0 _ZN14gLevelsetPlaneC1ERKS_
       5464 1557 0034F150 _ZN14gLevelsetPlaneC2EPKdS1_S1_i
       5465 1558 0034F0D0 _ZN14gLevelsetPlaneC2EPKdS1_i
       5466 1559 0034F050 _ZN14gLevelsetPlaneC2ERKNSt3__16vectorIdNS0_9allocatorIdEEEES6_i
       5467 155A 0034F2E0 _ZN14gLevelsetPlaneC2ERKS_
       5468 155B 0035A7A0 _ZN14gLevelsetPlaneD0Ev
       5469 155C 007B7FE0 _ZN14gLevelsetToolsC2ERKNSt3__16vectorIP9gLevelsetNS0_9allocatorIS3_EEEEbi
       5470 155D 00354B70 _ZN14gLevelsetToolsC2ERKS_
       5471 155E 0035AC80 _ZN14gLevelsetToolsD0Ev
       5472 155F 0035B3C0 _ZN14gLevelsetToolsD2Ev
       5473 1560 0035B5F0 _ZN14gLevelsetUnionD0Ev
       5474 1561 005FB970 _ZN14groupOfCross2d5printEP6_iobuf
       5475 1562 005FC3D0 _ZN14groupOfCross2dC2ERKS_
       5476 1563 005F1120 _ZN14groupOfCross2dD2Ev
       5477 1564 00966E40 _ZN14highOrderTools13_smoothMetricERNSt3__16vectorIP8MElementNS0_9allocatorIS3_EEEEP5GFaceR10dofManagerIdERNS0_3setIP7MVertex18MVertexPtrLessThanNS4_ISF_EEEER14elasticityTerm
       5478 1565 00965F50 _ZN14highOrderTools16applySmoothingToEP5GFacedb
       5479 1566 00964C70 _ZN14highOrderTools16applySmoothingToERNSt3__16vectorIP8MElementNS0_9allocatorIS3_EEEEP5GFace
       5480 1567 00964B30 _ZN14highOrderTools16applySmoothingToERNSt3__16vectorIP8MElementNS0_9allocatorIS3_EEEEdb
       5481 1568 00966520 _ZN14highOrderTools18_computeMetricInfoEP5GFaceP8MElementR10fullMatrixIdES6_R10fullVectorIdE
       5482 1569 00965BE0 _ZN14highOrderTools23ensureMinimumDistorsionEP8MElementd
       5483 156A 00966270 _ZN14highOrderTools23ensureMinimumDistorsionERNSt3__16vectorIP8MElementNS0_9allocatorIS3_EEEEd
       5484 156B 00966020 _ZN14highOrderTools23ensureMinimumDistorsionEd
       5485 156C 0096C2A0 _ZN14highOrderTools24makePosViewWithJacobiansEPKc
       5486 156D 0096AA60 _ZN14highOrderTools29_applyIncrementalDisplacementEdRNSt3__16vectorIP8MElementNS0_9allocatorIS3_EEEEbdPcS7_
       5487 156E 00967F70 _ZN14highOrderTools30_computeStraightSidedPositionsEv
       5488 156F 00967EF0 _ZN14highOrderToolsC1EP6GModel
       5489 1570 0096A990 _ZN14highOrderToolsC1EP6GModelS1_i
       5490 1571 00967EF0 _ZN14highOrderToolsC2EP6GModel
       5491 1572 0096A990 _ZN14highOrderToolsC2EP6GModelS1_i
       5492 1573 0096D360 _ZN14highOrderToolsD2Ev
       5493 1574 0013F4A0 _ZN14pyramidalBasisC1Ei
       5494 1575 0013F4A0 _ZN14pyramidalBasisC2Ei
       5495 1576 0013EA90 _ZN14pyramidalBasisD0Ev
       5496 1577 0013FFD0 _ZN14pyramidalBasisD1Ev
       5497 1578 0013FFD0 _ZN14pyramidalBasisD2Ev
       5498 1579 00600540 _ZN14quadLayoutData12cutTrianglesERNSt3__16vectorIP9MTriangleNS0_9allocatorIS3_EEEEP5GFaceP7MVertexSB_P5GEdgeRNS0_3mapI5MEdgei13MEdgeLessThanNS4_INS0_4pairIKSF_iEEEEEEiP6_iobuf
       5499 157A 005D92E0 _ZN14quadLayoutData15computeCutGraphERNSt3__13mapI5MEdgeS2_13MEdgeLessThanNS0_9allocatorINS0_4pairIKS2_S2_EEEEEE
       5500 157B 005E69A0 _ZN14quadLayoutData17computeQuadLayoutERNSt3__13mapIP7MVertexdNS0_4lessIS3_EENS0_9allocatorINS0_4pairIKS3_dEEEEEESC_RNS1_I5MEdgeSD_13MEdgeLessThanNS6_INS7_IKSD_SD_EEEEEERNS1_ISD_8edgeCutsSE_NS6_INS7_ISF_SK_EEEEEE
       5501 157C 006032E0 _ZN14quadLayoutData17intersectEdgeEdgeER5MEdgeP7MVertexS3_P5GFace
       5502 157D 005ECF20 _ZN14quadLayoutData18restoreInitialMeshEv
       5503 157E 005FF0B0 _ZN14quadLayoutData20correctionOnCutGraphERNSt3__13mapI5MEdge8edgeCuts13MEdgeLessThanNS0_9allocatorINS0_4pairIKS2_S3_EEEEEERNS1_IP7MVertexSD_18MVertexPtrLessThanNS5_INS6_IKSD_SD_EEEEEE
       5504 157F 005D9070 _ZN14quadLayoutData21computeCrossFieldAndHEPNSt3__13mapIP7MVertexiNS0_4lessIS3_EENS0_9allocatorINS0_4pairIKS3_iEEEEEERNS1_IiNS0_6vectorIdNS6_IdEEEENS4_IiEENS6_INS7_IKiSF_EEEEEE
       5505 1580 005E0150 _ZN14quadLayoutData21computeCrossFieldAndHEv
       5506 1581 005F1280 _ZN14quadLayoutData25computeHFromSingularitiesERNSt3__13mapIP7MVertexiNS0_4lessIS3_EENS0_9allocatorINS0_4pairIKS3_iEEEEEEi
       5507 1582 005FCF60 _ZN14quadLayoutData26computeCrossFieldExtrinsicEdy
       5508 1583 005FA460 _ZN14quadLayoutData31computeUniqueVectorsPerTriangleEv
       5509 1584 005E3E00 _ZN14quadLayoutData33computeThetaUsingHCrouzeixRaviartERNSt3__13mapIiNS0_6vectorIdNS0_9allocatorIdEEEENS0_4lessIiEENS3_INS0_4pairIKiS5_EEEEEE
       5510 1585 005ED2B0 _ZN14quadLayoutData7cutMeshERNSt3__13mapI5MEdge8edgeCuts13MEdgeLessThanNS0_9allocatorINS0_4pairIKS2_S3_EEEEEE
       5511 1586 00603770 _ZN14quadLayoutData8cut_edgeERNSt3__13mapI5MEdgei13MEdgeLessThanNS0_9allocatorINS0_4pairIKS2_iEEEEEEP7MVertexSC_SC_
       5512 1587 005D7500 _ZN14quadLayoutDataC2EP6GModelRNSt3__16vectorIP5GFaceNS2_9allocatorIS5_EEEERKNS2_12basic_stringIcNS2_11char_traitsIcEENS6_IcEEEEb
       5513 1588 005EF9F0 _ZN14quadLayoutDataD2Ev
       5514 1589 0066BA40 _ZN14simpleFunctionI8SVector3E14hasDerivativesEv
       5515 158A 0066BA30 _ZN14simpleFunctionI8SVector3ED0Ev
       5516 158B 0066BA20 _ZN14simpleFunctionI8SVector3ED2Ev
       5517 158C 00359540 _ZN14simpleFunctionIdE14hasDerivativesEv
       5518 158D 005204B0 _ZN14simpleFunctionIdED0Ev
       5519 158E 0035AB50 _ZN14simpleFunctionIdED2Ev
       5520 158F 00064B70 _ZN14smooth_normals3addEdddddd
       5521 1590 00446EA0 _ZN14surfaceFunctorD2Ev
       5522 1591 00C43870 _ZN14tetgenbehavior17parse_commandlineEiPPc
       5523 1592 00A1A200 _ZN15CorrespVertices10getdistP2PEv
       5524 1593 00A1A100 _ZN15CorrespVertices10setdistP2PEd
       5525 1594 00A1A170 _ZN15CorrespVertices11getEndPointEv
       5526 1595 00A1A240 _ZN15CorrespVertices11getIsMasterEv
       5527 1596 00A1A070 _ZN15CorrespVertices11setEndPointERK7SPoint3
       5528 1597 00A1A140 _ZN15CorrespVertices11setIsMasterEb
       5529 1598 00A1A1B0 _ZN15CorrespVertices12getEndNormalEv
       5530 1599 00A1A250 _ZN15CorrespVertices12getTagMasterEv
       5531 159A 00A1A210 _ZN15CorrespVertices12getangleProdEv
       5532 159B 00A1A0B0 _ZN15CorrespVertices12setEndNormalERK8SVector3
       5533 159C 00A1A150 _ZN15CorrespVertices12setTagMasterEi
       5534 159D 00A1A110 _ZN15CorrespVertices12setangleProdEd
       5535 159E 00A1A160 _ZN15CorrespVertices13getStartPointEv
       5536 159F 00A1A060 _ZN15CorrespVertices13setStartPointEP7MVertex
       5537 15A0 00A1A1D0 _ZN15CorrespVertices14getEndTriangleEv
       5538 15A1 00A1A190 _ZN15CorrespVertices14getStartNormalEv
       5539 15A2 00A1A0D0 _ZN15CorrespVertices14setEndTriangleE8faceXtet
       5540 15A3 00A1A090 _ZN15CorrespVertices14setStartNormalERK8SVector3
       5541 15A4 00A1A230 _ZN15CorrespVertices20getEndTriangleActiveEv
       5542 15A5 00A1A130 _ZN15CorrespVertices20setEndTriangleActiveEb
       5543 15A6 00A1A220 _ZN15CorrespVertices9getActiveEv
       5544 15A7 00A1A120 _ZN15CorrespVertices9setActiveEb
       5545 15A8 00A19F40 _ZN15CorrespVerticesC1Ev
       5546 15A9 00A19F40 _ZN15CorrespVerticesC2Ev
       5547 15AA 00A1A050 _ZN15CorrespVerticesD1Ev
       5548 15AB 00A1A050 _ZN15CorrespVerticesD2Ev
       5549 15AC 00899460 _ZN15DI_CuttingPointC1EPK8DI_Point
       5550 15AD 00899460 _ZN15DI_CuttingPointC2EPK8DI_Point
       5551 15AE 008B7B70 _ZN15DI_CuttingPointD0Ev
       5552 15AF 013C3268 _ZN15ElmDataLessThan9toleranceE
       5553 15B0 000053D0 _ZN15FieldOptionBool14numericalValueEd
       5554 15B1 00005240 _ZN15FieldOptionBool21getTextRepresentationERNSt3__112basic_stringIcNS0_11char_traitsIcEENS0_9allocatorIcEEEE
       5555 15B2 00005230 _ZN15FieldOptionBool7getTypeEv
       5556 15B3 00005200 _ZN15FieldOptionBoolD0Ev
       5557 15B4 005A7350 _ZN15FieldOptionList21getTextRepresentationERNSt3__112basic_stringIcNS0_11char_traitsIcEENS0_9allocatorIcEEEE
       5558 15B5 005A7590 _ZN15FieldOptionList4listENSt3__14listIiNS0_9allocatorIiEEEE
       5559 15B6 005A7340 _ZN15FieldOptionList7getTypeEv
       5560 15B7 005A7310 _ZN15FieldOptionListD0Ev
       5561 15B8 005ABA20 _ZN15FieldOptionPath7getTypeEv
       5562 15B9 005AB9F0 _ZN15FieldOptionPathD0Ev
       5563 15BA 007C0950 _ZN15FunctionManager13leaveFunctionEPP6_iobufRNSt3__112basic_stringIcNS3_11char_traitsIcEENS3_9allocatorIcEEEERi
       5564 15BB 007C0AF0 _ZN15FunctionManager14createFunctionERKNSt3__112basic_stringIcNS0_11char_traitsIcEENS0_9allocatorIcEEEEP6_iobufS8_i
       5565 15BC 007C0710 _ZN15FunctionManager5clearEv
       5566 15BD 007C0680 _ZN15FunctionManager8InstanceEv
       5567 15BE 013D7188 _ZN15FunctionManager8instanceE
       5568 15BF 007C0630 _ZN15FunctionManagerC1Ev
       5569 15C0 007C0630 _ZN15FunctionManagerC2Ev
       5570 15C1 0074C1E0 _ZN15GMSH_CurlPlugin7executeEP5PView
       5571 15C2 0074C1C0 _ZN15GMSH_CurlPlugin9getOptionEi
       5572 15C3 0074D050 _ZN15GMSH_CurlPluginD0Ev
       5573 15C4 00700C20 _ZN15GMSH_PostPlugin11getDataListEP5PViewb
       5574 15C5 00700940 _ZN15GMSH_PostPlugin13executeRemoteEP5PView
       5575 15C6 00700C80 _ZN15GMSH_PostPlugin23getPossiblyAdaptiveDataEP5PView
       5576 15C7 00701320 _ZN15GMSH_PostPlugin3runEv
       5577 15C8 00700BB0 _ZN15GMSH_PostPlugin7getViewEiP5PView
       5578 15C9 00701300 _ZN15GMSH_PostPluginD0Ev
       5579 15CA 0073D030 _ZN15GMSH_SkinPlugin7executeEP5PView
       5580 15CB 0073D010 _ZN15GMSH_SkinPlugin9getOptionEi
       5581 15CC 0073FE70 _ZN15GMSH_SkinPluginD0Ev
       5582 15CD 0073BD60 _ZN15GMSH_WarpPlugin7executeEP5PView
       5583 15CE 0073BD40 _ZN15GMSH_WarpPlugin9getOptionEi
       5584 15CF 0073C830 _ZN15GMSH_WarpPluginD0Ev
       5585 15D0 0066A350 _ZN15GaussQuadrature12getIntPointsEP8MElementPP5IntPt
       5586 15D1 0066A340 _ZN15GaussQuadratureD0Ev
       5587 15D2 00361F20 _ZN15GeomMeshMatcher10matchEdgesEP6GModelS1_PNSt3__16vectorI4PairIP7GVertexS6_ENS2_9allocatorIS7_EEEERb
       5588 15D3 003628D0 _ZN15GeomMeshMatcher10matchFacesEP6GModelS1_PNSt3__16vectorI4PairIP5GEdgeS6_ENS2_9allocatorIS7_EEEERb
       5589 15D4 00363FB0 _ZN15GeomMeshMatcher12forceTomatchEP6GModelS1_d
       5590 15D5 003630E0 _ZN15GeomMeshMatcher12matchRegionsEP6GModelS1_PNSt3__16vectorI4PairIP5GFaceS6_ENS2_9allocatorIS7_EEEERb
       5591 15D6 013D2680 _ZN15GeomMeshMatcher13_gmm_instanceE
       5592 15D7 00361AE0 _ZN15GeomMeshMatcher13matchVerticesEP6GModelS1_Rb
       5593 15D8 003699D0 _ZN15GeomMeshMatcher5matchEP6GModelS1_
       5594 15D9 00363F90 _ZN15GeomMeshMatcher7destroyEv
       5595 15DA 00363F60 _ZN15GeomMeshMatcher8instanceEv
       5596 15DB 0037F3A0 _ZN15MElementFactory6createEiRNSt3__16vectorIP7MVertexNS0_9allocatorIS3_EEEEyibiP8MElementS9_S9_
       5597 15DC 00381030 _ZN15MElementFactory6createEiiRKNSt3__16vectorIiNS0_9allocatorIiEEEEP6GModel
       5598 15DD 003BEBD0 _ZN15MSubTetrahedron12updateParentEP6GModel
       5599 15DE 003C2220 _ZN15MSubTetrahedron14getBaseElementEv
       5600 15DF 003C2330 _ZN15MSubTetrahedron14setMultiParentERNSt3__16vectorIP8MElementNS0_9allocatorIS3_EEEEb
       5601 15E0 003BF1A0 _ZN15MSubTetrahedron20getIntegrationPointsEiPiPP5IntPt
       5602 15E1 003BEDA0 _ZN15MSubTetrahedron20getShapeFunctionNodeEi
       5603 15E2 003C21A0 _ZN15MSubTetrahedron9setParentEP8MElementb
       5604 15E3 003843A0 _ZN15MSubTetrahedronC2ERKNSt3__16vectorIP7MVertexNS0_9allocatorIS3_EEEEiibP8MElement
       5605 15E4 00384490 _ZN15MSubTetrahedronC2ERKNSt3__16vectorIP7MVertexNS0_9allocatorIS3_EEEEiibi
       5606 15E5 003BEB80 _ZN15MSubTetrahedronD0Ev
       5607 15E6 003C2050 _ZN15MSubTetrahedronD1Ev
       5608 15E7 003C2050 _ZN15MSubTetrahedronD2Ev
       5609 15E8 003A0190 _ZN15MTriangleBorder20getIntegrationPointsEiPiPP5IntPt
       5610 15E9 003BC350 _ZN15MTriangleBorder9setDomainEP8MElementi
       5611 15EA 003BC300 _ZN15MTriangleBorderD0Ev
       5612 15EB 009616B0 _ZN15MeshOptPatchDefD0Ev
       5613 15EC 009616A0 _ZN15MeshOptPatchDefD2Ev
       5614 15ED 006AF920 _ZN15PViewDataGModel10getElementEiii
       5615 15EE 006B0150 _ZN15PViewDataGModel10isNodeDataEv
       5616 15EF 006AD560 _ZN15PViewDataGModel10skipEntityEii
       5617 15F0 006AFF90 _ZN15PViewDataGModel11_getElementEiii
       5618 15F1 006AEAA0 _ZN15PViewDataGModel11combineTimeER8nameData
       5619 15F2 006B2730 _ZN15PViewDataGModel11destroyDataEv
       5620 15F3 006AB480 _ZN15PViewDataGModel11getFileNameEi
       5621 15F4 006AD430 _ZN15PViewDataGModel11getNumEdgesEiii
       5622 15F5 006ABE70 _ZN15PViewDataGModel11getNumLinesEi
       5623 15F6 006AC660 _ZN15PViewDataGModel11getNumNodesEiii
       5624 15F7 006AD800 _ZN15PViewDataGModel11hasTimeStepEi
       5625 15F8 006B4320 _ZN15PViewDataGModel11importListsEPiPPNSt3__16vectorIdNS1_9allocatorIdEEEE
       5626 15F9 006AD5B0 _ZN15PViewDataGModel11skipElementEiiibi
       5627 15FA 006AC5F0 _ZN15PViewDataGModel12getDimensionEiii
       5628 15FB 006ABDC0 _ZN15PViewDataGModel12getNumPointsEi
       5629 15FC 006AC290 _ZN15PViewDataGModel12getNumPrismsEi
       5630 15FD 006ACDC0 _ZN15PViewDataGModel12getNumValuesEiii
       5631 15FE 006AD850 _ZN15PViewDataGModel12hasPartitionEii
       5632 15FF 006B5740 _ZN15PViewDataGModel12sendToServerERKNSt3__112basic_stringIcNS0_11char_traitsIcEENS0_9allocatorIcEEEE
       5633 1600 006AF7F0 _ZN15PViewDataGModel13getMemoryInMbEv
       5634 1601 006ABD00 _ZN15PViewDataGModel13getNumScalarsEi
       5635 1602 006ABD80 _ZN15PViewDataGModel13getNumTensorsEi
       5636 1603 006ABD40 _ZN15PViewDataGModel13getNumVectorsEi
       5637 1604 006AB980 _ZN15PViewDataGModel14getBoundingBoxEi
       5638 1605 006AC580 _ZN15PViewDataGModel14getNumElementsEii
       5639 1606 006AC550 _ZN15PViewDataGModel14getNumEntitiesEi
       5640 1607 006AC080 _ZN15PViewDataGModel14getNumPolygonsEi
       5641 1608 006AC340 _ZN15PViewDataGModel14getNumPyramidsEi
       5642 1609 006AC3F0 _ZN15PViewDataGModel14getNumTrihedraEi
       5643 160A 006AD510 _ZN15PViewDataGModel14reverseElementEiii
       5644 160B 006B0140 _ZN15PViewDataGModel14setBoundingBoxER14SBoundingBox3d
       5645 160C 006B0160 _ZN15PViewDataGModel14useGaussPointsEv
       5646 160D 006AC1E0 _ZN15PViewDataGModel15getNumHexahedraEi
       5647 160E 006AC4A0 _ZN15PViewDataGModel15getNumPolyhedraEi
       5648 160F 006AB4D0 _ZN15PViewDataGModel15getNumTimeStepsEv
       5649 1610 006ABF20 _ZN15PViewDataGModel15getNumTrianglesEi
       5650 1611 006B0070 _ZN15PViewDataGModel15getValueByIndexEiiiiRd
       5651 1612 006ACDA0 _ZN15PViewDataGModel16getNumComponentsEiii
       5652 1613 006AC130 _ZN15PViewDataGModel16getNumTetrahedraEi
       5653 1614 006ABFD0 _ZN15PViewDataGModel17getNumQuadranglesEi
       5654 1615 006AD8D0 _ZN15PViewDataGModel17hasMultipleMeshesEv
       5655 1616 006AB4F0 _ZN15PViewDataGModel24getFirstNonEmptyTimeStepEi
       5656 1617 006AB780 _ZN15PViewDataGModel6getMaxEibiiPi
       5657 1618 006AB580 _ZN15PViewDataGModel6getMinEibiiPi
       5658 1619 006B0130 _ZN15PViewDataGModel6setMaxEd
       5659 161A 006B0120 _ZN15PViewDataGModel6setMinEd
       5660 161B 006AD990 _ZN15PViewDataGModel6smoothEv
       5661 161C 006B1260 _ZN15PViewDataGModel7addDataEP6GModelRKNSt3__13mapIiNS2_6vectorIdNS2_9allocatorIdEEEENS2_4lessIiEENS5_INS2_4pairIKiS7_EEEEEEidii
       5662 161D 006B1940 _ZN15PViewDataGModel7addDataEP6GModelRKNSt3__16vectorIyNS2_9allocatorIyEEEERKNS3_INS3_IdNS4_IdEEEENS4_ISA_EEEEidii
       5663 161E 006B2040 _ZN15PViewDataGModel7addDataEP6GModelRKNSt3__16vectorIyNS2_9allocatorIyEEEERKNS3_IdNS4_IdEEEEidii
       5664 161F 006AC830 _ZN15PViewDataGModel7getNodeEiiiiRdS0_S0_
       5665 1620 006AB550 _ZN15PViewDataGModel7getTimeEi
       5666 1621 006AD4A0 _ZN15PViewDataGModel7getTypeEiii
       5667 1622 006B5400 _ZN15PViewDataGModel7readMEDERKNSt3__112basic_stringIcNS0_11char_traitsIcEENS0_9allocatorIcEEEEi
       5668 1623 006B2820 _ZN15PViewDataGModel7readMSHERKNSt3__112basic_stringIcNS0_11char_traitsIcEENS0_9allocatorIcEEEES8_iP6_iobufbbidiiiS8_
       5669 1624 006B5460 _ZN15PViewDataGModel7readPCHERKNSt3__112basic_stringIcNS0_11char_traitsIcEENS0_9allocatorIcEEEEi
       5670 1625 006ACBD0 _ZN15PViewDataGModel7setNodeEiiiiddd
       5671 1626 006ACCE0 _ZN15PViewDataGModel7tagNodeEiiiii
       5672 1627 006AFFF0 _ZN15PViewDataGModel8_getNodeEP8MElementi
       5673 1628 006AA6F0 _ZN15PViewDataGModel8finalizeEbRKNSt3__112basic_stringIcNS0_11char_traitsIcEENS0_9allocatorIcEEEE
       5674 1629 006B0170 _ZN15PViewDataGModel8getModelEi
       5675 162A 006ACEF0 _ZN15PViewDataGModel8getValueEiiiiRd
       5676 162B 006AD060 _ZN15PViewDataGModel8getValueEiiiiiRd
       5677 162C 006AD920 _ZN15PViewDataGModel8hasModelEP6GModeli
       5678 162D 006B6160 _ZN15PViewDataGModel8readCGNSERKNSt3__14pairINS0_12basic_stringIcNS0_11char_traitsIcEENS0_9allocatorIcEEEES7_EERKS7_iiiRKNS0_6vectorINSD_IP7MVertexNS5_ISF_EEEENS5_ISH_EEEERKNSD_INSD_IP8MElementNS5_ISN_EEEENS5_ISP_EEEE
       5679 162E 006AD240 _ZN15PViewDataGModel8setValueEiiiiid
       5680 162F 006B5430 _ZN15PViewDataGModel8writeMEDERKNSt3__112basic_stringIcNS0_11char_traitsIcEENS0_9allocatorIcEEEE
       5681 1630 006B30C0 _ZN15PViewDataGModel8writeMSHERKNSt3__112basic_stringIcNS0_11char_traitsIcEENS0_9allocatorIcEEEEdbbbibbb
       5682 1631 006AF900 _ZN15PViewDataGModel9getEntityEii
       5683 1632 006AF960 _ZN15PViewDataGModelC1ENS_8DataTypeE
       5684 1633 006AF960 _ZN15PViewDataGModelC2ENS_8DataTypeE
       5685 1634 006AA650 _ZN15PViewDataGModelD0Ev
       5686 1635 006AF9B0 _ZN15PViewDataGModelD1Ev
       5687 1636 006AF9B0 _ZN15PViewDataGModelD2Ev
       5688 1637 0068C5C0 _ZN15PViewDataRemote14getBoundingBoxEi
       5689 1638 0068C750 _ZN15PViewDataRemote14getNumElementsEii
       5690 1639 0068C610 _ZN15PViewDataRemote14setBoundingBoxER14SBoundingBox3d
       5691 163A 0068C550 _ZN15PViewDataRemote15getNumTimeStepsEv
       5692 163B 0068C910 _ZN15PViewDataRemote22fillRemoteVertexArraysERNSt3__112basic_stringIcNS0_11char_traitsIcEENS0_9allocatorIcEEEE
       5693 163C 0068C590 _ZN15PViewDataRemote6getMaxEibiiPi
       5694 163D 0068C580 _ZN15PViewDataRemote6getMinEibiiPi
       5695 163E 0068C5B0 _ZN15PViewDataRemote6setMaxEd
       5696 163F 0068C5A0 _ZN15PViewDataRemote6setMinEd
       5697 1640 0068C570 _ZN15PViewDataRemote7getTimeEi
       5698 1641 0068C470 _ZN15PViewDataRemote8finalizeEbRKNSt3__112basic_stringIcNS0_11char_traitsIcEENS0_9allocatorIcEEEE
       5699 1642 0068C900 _ZN15PViewDataRemote8isRemoteEv
       5700 1643 0068C430 _ZN15PViewDataRemoteD0Ev
       5701 1644 0068C420 _ZN15PViewDataRemoteD2Ev
       5702 1645 005C0000 _ZN15ParametricField14getDescriptionEv
       5703 1646 005BFFF0 _ZN15ParametricField7getNameEv
       5704 1647 005BF3E0 _ZN15ParametricFieldC2Ev
       5705 1648 005BFDC0 _ZN15ParametricFieldD0Ev
       5706 1649 005BFCA0 _ZN15ParametricFieldD2Ev
       5707 164A 005BFDE0 _ZN15ParametricFieldclEdddP7GEntity
       5708 164B 005AB9A0 _ZN15StructuredField14getDescriptionEv
       5709 164C 005AB990 _ZN15StructuredField7getNameEv
       5710 164D 005AA780 _ZN15StructuredFieldC2Ev
       5711 164E 005AAEE0 _ZN15StructuredFieldD0Ev
       5712 164F 005AAE90 _ZN15StructuredFieldD2Ev
       5713 1650 005AAF30 _ZN15StructuredFieldclEdddP7GEntity
       5714 1651 006BDE00 _ZN15adaptivePyramid10recurErrorEPS_dd
       5715 1652 013D37E8 _ZN15adaptivePyramid11allVerticesE
       5716 1653 006BD6A0 _ZN15adaptivePyramid11recurCreateEPS_ii
       5717 1654 013D38A8 _ZN15adaptivePyramid3allE
       5718 1655 006BDDE0 _ZN15adaptivePyramid5errorEdd
       5719 1656 006BD4F0 _ZN15adaptivePyramid6createEi
       5720 1657 013C19A8 _ZN15adaptivePyramid8numEdgesE
       5721 1658 013C198C _ZN15adaptivePyramid8numNodesE
       5722 1659 00358760 _ZN15gLevelsetConrodC1EPKdS1_S1_RS0_S2_S2_S2_S2_S2_S2_S2_S2_S2_i
       5723 165A 00359080 _ZN15gLevelsetConrodC1ERKS_
       5724 165B 00358760 _ZN15gLevelsetConrodC2EPKdS1_S1_RS0_S2_S2_S2_S2_S2_S2_S2_S2_S2_i
       5725 165C 00359080 _ZN15gLevelsetConrodC2ERKS_
       5726 165D 0035B560 _ZN15gLevelsetConrodD0Ev
       5727 165E 003590D0 _ZN15gLevelsetNACA00C1Edddd
       5728 165F 003590D0 _ZN15gLevelsetNACA00C2Edddd
       5729 1660 00359A40 _ZN15gLevelsetNACA00D0Ev
       5730 1661 0034FEF0 _ZN15gLevelsetPoints15setup_level_setERK10fullMatrixIdERS1_S4_
       5731 1662 00350F90 _ZN15gLevelsetPoints9computeLSERNSt3__16vectorIP7MVertexNS0_9allocatorIS3_EEEE
       5732 1663 00350BA0 _ZN15gLevelsetPointsC1ER10fullMatrixIdEi
       5733 1664 00350E60 _ZN15gLevelsetPointsC1ERKS_
       5734 1665 00350BA0 _ZN15gLevelsetPointsC2ER10fullMatrixIdEi
       5735 1666 00350E60 _ZN15gLevelsetPointsC2ERKS_
       5736 1667 00359730 _ZN15gLevelsetPointsD0Ev
       5737 1668 003596C0 _ZN15gLevelsetPointsD2Ev
       5738 1669 0034EFE0 _ZN15gLevelsetSphereC1ERKdS1_S1_S1_i
       5739 166A 0034EFE0 _ZN15gLevelsetSphereC2ERKdS1_S1_S1_i
       5740 166B 00359530 _ZN15gLevelsetSphereD0Ev
       5741 166C 00236F10 _ZN15gmshPolarSphere14NewPolarSphereEidddd
       5742 166D 002377A0 _ZN15gmshPolarSphere19getMetricEigenvalueERK7SPoint2
       5743 166E 002370C0 _ZN15gmshPolarSphereC1Edddd
       5744 166F 002370C0 _ZN15gmshPolarSphereC2Edddd
       5745 1670 00237690 _ZN15gmshPolarSphereD0Ev
       5746 1671 00237680 _ZN15gmshPolarSphereD2Ev
       5747 1672 00656E20 _ZN15groupOfElements11addPhysicalEii
       5748 1673 00656880 _ZN15groupOfElements11addPhysicalEiiRK13elementFilter
       5749 1674 00656800 _ZN15groupOfElements13addElementaryEP7GEntityRK13elementFilter
       5750 1675 00656E80 _ZN15groupOfElements6insertEP8MElement
       5751 1676 00656A90 _ZN15groupOfElementsC1EP5GFace
       5752 1677 00656BA0 _ZN15groupOfElementsC1EP7GRegion
       5753 1678 00656CB0 _ZN15groupOfElementsC1ERNSt3__16vectorIP8MElementNS0_9allocatorIS3_EEEE
       5754 1679 00656A90 _ZN15groupOfElementsC2EP5GFace
       5755 167A 00656BA0 _ZN15groupOfElementsC2EP7GRegion
       5756 167B 00656CB0 _ZN15groupOfElementsC2ERNSt3__16vectorIP8MElementNS0_9allocatorIS3_EEEE
       5757 167C 0066AA60 _ZN15groupOfElementsC2Eii
       5758 167D 00656DD0 _ZN15groupOfElementsD0Ev
       5759 167E 00656D80 _ZN15groupOfElementsD2Ev
       5760 167F 0013DA40 _ZN15incompleteBasis28_computeCoefficientsTriangleEv
       5761 1680 0013E8D0 _ZN15incompleteBasisC2Ei
       5762 1681 0013CFE0 _ZN15incompleteBasisD0Ev
       5763 1682 0013E9F0 _ZN15incompleteBasisD1Ev
       5764 1683 0013E9F0 _ZN15incompleteBasisD2Ev
       5765 1684 0028D410 _ZN15initMeshGRegion17_estimateNumLinesEP7GRegion
       5766 1685 0028D680 _ZN15initMeshGRegion18_estimateIfClippedEi
       5767 1686 0028D550 _ZN15initMeshGRegion21_estimateNumTrianglesEP7GRegion
       5768 1687 0028CD40 _ZN15initMeshGRegionclEP7GRegion
       5769 1688 0062EC80 _ZN15linearSystemCSRINSt3__17complexIdEEE18preAllocateEntriesEv
       5770 1689 0062F1E0 _ZN15linearSystemCSRINSt3__17complexIdEEE8allocateEi
       5771 168A 0062F5B0 _ZN15linearSystemCSRINSt3__17complexIdEEE9getMatrixERPiS5_RPd
       5772 168B 0029F7A0 _ZN15linearSystemCSRIdE10zeroMatrixEv
       5773 168C 0029F8F0 _ZN15linearSystemCSRIdE11addToMatrixEiiRKd
       5774 168D 0029F820 _ZN15linearSystemCSRIdE12zeroSolutionEv
       5775 168E 0029FB10 _ZN15linearSystemCSRIdE13addToSolutionEiRKd
       5776 168F 0029F7E0 _ZN15linearSystemCSRIdE17zeroRightHandSideEv
       5777 1690 0029FAA0 _ZN15linearSystemCSRIdE18addToRightHandSideEiRKdi
       5778 1691 0062EA90 _ZN15linearSystemCSRIdE18preAllocateEntriesEv
       5779 1692 0029F870 _ZN15linearSystemCSRIdE23insertInSparsityPatternEii
       5780 1693 0029F790 _ZN15linearSystemCSRIdE5clearEv
       5781 1694 0062EE70 _ZN15linearSystemCSRIdE8allocateEi
       5782 1695 0062F530 _ZN15linearSystemCSRIdE9getMatrixERPiS2_RPd
       5783 1696 0029FBA0 _ZN15linearSystemCSRIdED0Ev
       5784 1697 0029FB40 _ZN15linearSystemCSRIdED2Ev
       5785 1698 005F2950 _ZN15linearSystemGmmIdE10zeroMatrixEv
       5786 1699 005F2DE0 _ZN15linearSystemGmmIdE11addToMatrixEiiRKd
       5787 169A 005F2A50 _ZN15linearSystemGmmIdE11systemSolveEv
       5788 169B 005F2A10 _ZN15linearSystemGmmIdE12zeroSolutionEv
       5789 169C 005F2F40 _ZN15linearSystemGmmIdE13addToSolutionEiRKd
       5790 169D 005F29D0 _ZN15linearSystemGmmIdE17zeroRightHandSideEv
       5791 169E 005F2ED0 _ZN15linearSystemGmmIdE18addToRightHandSideEiRKdi
       5792 169F 005F2890 _ZN15linearSystemGmmIdE5clearEv
       5793 16A0 005F26F0 _ZN15linearSystemGmmIdE8allocateEi
       5794 16A1 005F2690 _ZN15linearSystemGmmIdED0Ev
       5795 16A2 005F2640 _ZN15linearSystemGmmIdED2Ev
       5796 16A3 003F8800 _ZN15orientMeshGEdgeclEP5GEdge
       5797 16A4 00411990 _ZN15orientMeshGFaceclEP5GFace
       5798 16A5 00141EF0 _ZN15orthogonalBasisC1ERK13FuncSpaceData
       5799 16A6 00141EF0 _ZN15orthogonalBasisC2ERK13FuncSpaceData
       5800 16A7 002E6620 _ZN15partitionRegion13setPartitionsERNSt3__16vectorIiNS0_9allocatorIiEEEE
       5801 16A8 002E65F0 _ZN15partitionRegion15getParentEntityEv
       5802 16A9 002E6610 _ZN15partitionRegion15setParentEntityEP7GEntity
       5803 16AA 0057B710 _ZN15partitionRegionC2EP6GModeliRKNSt3__16vectorIiNS2_9allocatorIiEEEE
       5804 16AB 002E65B0 _ZN15partitionRegionD0Ev
       5805 16AC 002E6570 _ZN15partitionRegionD2Ev
       5806 16AD 002E6190 _ZN15partitionVertex13setPartitionsERNSt3__16vectorIiNS0_9allocatorIiEEEE
       5807 16AE 002E6160 _ZN15partitionVertex15getParentEntityEv
       5808 16AF 002E6180 _ZN15partitionVertex15setParentEntityEP7GEntity
       5809 16B0 0057AF70 _ZN15partitionVertexC2EP6GModeliRKNSt3__16vectorIiNS2_9allocatorIiEEEE
       5810 16B1 002E6120 _ZN15partitionVertexD0Ev
       5811 16B2 002E60E0 _ZN15partitionVertexD2Ev
       5812 16B3 0013C310 _ZN15polynomialBasisC1Ei
       5813 16B4 0013C310 _ZN15polynomialBasisC2Ei
       5814 16B5 00138DE0 _ZN15polynomialBasisD0Ev
       5815 16B6 0013CCD0 _ZN15polynomialBasisD1Ev
       5816 16B7 0013CCD0 _ZN15polynomialBasisD2Ev
       5817 16B8 0099CAA0 _ZN15redirectMessageC1ENSt3__112basic_stringIcNS0_11char_traitsIcEENS0_9allocatorIcEEEEb
       5818 16B9 0099CAA0 _ZN15redirectMessageC2ENSt3__112basic_stringIcNS0_11char_traitsIcEENS0_9allocatorIcEEEEb
       5819 16BA 0099D770 _ZN15redirectMessageD0Ev
       5820 16BB 0099D750 _ZN15redirectMessageD2Ev
       5821 16BC 0099C5D0 _ZN15redirectMessageclENSt3__112basic_stringIcNS0_11char_traitsIcEENS0_9allocatorIcEEEES6_
       5822 16BD 00677220 _ZN15sparsityPattern11insertEntryEii
       5823 16BE 006771A0 _ZN15sparsityPattern5clearEv
       5824 16BF 006773F0 _ZN15sparsityPatternC1Ev
       5825 16C0 006773F0 _ZN15sparsityPatternC2Ev
       5826 16C1 00677120 _ZN15sparsityPatternD1Ev
       5827 16C2 00677120 _ZN15sparsityPatternD2Ev
       5828 16C3 0054C060 _ZN16BDS_SwapEdgeTestD2Ev
       5829 16C4 0067AAD0 _ZN16BilinearTermBaseD0Ev
       5830 16C5 0066C5C0 _ZN16BilinearTermBaseD2Ev
       5831 16C6 013C50D8 _ZN16DI_PointLessThan9toleranceE
       5832 16C7 0066C9A0 _ZN16FilterDofTrivialD0Ev
       5833 16C8 0066C9B0 _ZN16FilterDofTrivialclE3Dof
       5834 16C9 007782F0 _ZN16GMSH_CrackPlugin7executeEP5PView
       5835 16CA 007782D0 _ZN16GMSH_CrackPlugin9getOptionEi
       5836 16CB 0077C480 _ZN16GMSH_CrackPluginD0Ev
       5837 16CC 00751EF0 _ZN16GMSH_ProbePlugin4drawEPv
       5838 16CD 013D4F68 _ZN16GMSH_ProbePlugin5iviewE
       5839 16CE 00750540 _ZN16GMSH_ProbePlugin7executeEP5PView
       5840 16CF 00751F00 _ZN16GMSH_ProbePlugin8callbackEiidPd
       5841 16D0 00751D10 _ZN16GMSH_ProbePlugin9callbackXEiid
       5842 16D1 00751DA0 _ZN16GMSH_ProbePlugin9callbackYEiid
       5843 16D2 00751E30 _ZN16GMSH_ProbePlugin9callbackZEiid
       5844 16D3 00750520 _ZN16GMSH_ProbePlugin9getOptionEi
       5845 16D4 00751F80 _ZN16GMSH_ProbePluginD0Ev
       5846 16D5 007C2E50 _ZN16InterfacedClient7analyzeEv
       5847 16D6 007C34A0 _ZN16InterfacedClient7computeEv
       5848 16D7 007D04C0 _ZN16InterfacedClient7convertEv
       5849 16D8 007D2100 _ZN16InterfacedClientD0Ev
       5850 16D9 0066D910 _ZN16LoadTermOnBorderIdED0Ev
       5851 16DA 0062A810 _ZN16SurfaceProjector10initializeEP5GFaceRKNSt3__16vectorIP9MTriangleNS2_9allocatorIS5_EEEEb
       5852 16DB 0062BFE0 _ZN16SurfaceProjector23setAnalyticalProjectionEP5GFace
       5853 16DC 0062BEC0 _ZN16SurfaceProjector5clearEv
       5854 16DD 0062A660 _ZN16SurfaceProjectorC1EP5GFace
       5855 16DE 0062A660 _ZN16SurfaceProjectorC2EP5GFace
       5856 16DF 0062BF10 _ZN16SurfaceProjectorD1Ev
       5857 16E0 0062BF10 _ZN16SurfaceProjectorD2Ev
       5858 16E1 00D340F0 _ZN16WinslowUntangler11scaleToUnitILy2EEEbRNSt3__16vectorINS1_5arrayIdXT_EEENS1_9allocatorIS4_EEEERNS2_INS3_IS4_XplT_Li1EEEENS5_IS9_EEEERS4_SD_
       5859 16E2 00D34290 _ZN16WinslowUntangler11scaleToUnitILy3EEEbRNSt3__16vectorINS1_5arrayIdXT_EEENS1_9allocatorIS4_EEEERNS2_INS3_IS4_XplT_Li1EEEENS5_IS9_EEEERS4_SD_
       5860 16E3 00D34510 _ZN16WinslowUntangler13UntanglerDataD2Ev
       5861 16E4 00D31170 _ZN16WinslowUntangler13prepareData2DERKNSt3__16vectorINS0_5arrayIdLy2EEENS0_9allocatorIS3_EEEERKNS1_IbNS4_IbEEEERKNS1_INS2_IjLy3EEENS4_ISD_EEEERKNS1_INS2_IS3_Ly3EEENS4_ISI_EEEERNS_13UntanglerDataE
       5862 16E5 00D31BB0 _ZN16WinslowUntangler13prepareData3DERKNSt3__16vectorINS0_5arrayIdLy3EEENS0_9allocatorIS3_EEEERKNS1_IbNS4_IbEEEERKNS1_INS2_IjLy4EEENS4_ISD_EEEERKNS1_INS2_IS3_Ly4EEENS4_ISI_EEEERNS_13UntanglerDataE
       5863 16E6 00D31150 _ZN16WinslowUntangler14lbfgs_callbackERKN6alglib13real_1d_arrayERdRS1_Pv
       5864 16E7 00D300E0 _ZN16WinslowUntangler22update_jacobian_matrixEyRNS_13UntanglerDataERKN6alglib13real_1d_arrayE
       5865 16E8 00D327A0 _ZN16WinslowUntangler25untangle_simplex_elementsEyRNSt3__16vectorINS0_5arrayIdLy2EEENS0_9allocatorIS3_EEEERNS1_INS2_IdLy3EEENS4_IS8_EEEERKNS1_IbNS4_IbEEEERKNS1_INS2_IjLy3EEENS4_ISG_EEEERKNS1_INS2_IS3_Ly3EEENS4_ISL_EEEERKNS1_INS2_IjLy4EEENS4_ISQ_EEEERKNS1_INS2_IS8_Ly4EEENS4_ISV_EEEEdiiid
       5866 16E9 00D306B0 _ZN16WinslowUntangler27compute_energy_and_gradientERNS_13UntanglerDataERKN6alglib13real_1d_arrayERS3_
       5867 16EA 00D2FE60 _ZN16WinslowUntangler4areaERKNSt3__16vectorINS0_5arrayIdLy2EEENS0_9allocatorIS3_EEEERKNS1_INS2_IjLy3EEENS4_IS9_EEEE
       5868 16EB 00D2FF70 _ZN16WinslowUntangler6volumeERKNSt3__16vectorINS0_5arrayIdLy3EEENS0_9allocatorIS3_EEEERKNS1_INS2_IjLy4EEENS4_IS9_EEEE
       5869 16EC 004B51C0 _ZN16adaptMeshGRegionclEP7GRegion
       5870 16ED 006C62B0 _ZN16adaptiveElementsI12adaptiveLineE4initEi
       5871 16EE 006D83F0 _ZN16adaptiveElementsI12adaptiveLineE5adaptEdiRNSt3__16vectorI7PCoordsNS2_9allocatorIS4_EEEERNS3_I7PValuesNS5_IS9_EEEERdSD_P15GMSH_PostPluginb
       5872 16EF 006CCAE0 _ZN16adaptiveElementsI12adaptiveLineE9addInViewEdiP9PViewDataP13PViewDataListP15GMSH_PostPlugin
       5873 16F0 006C4E60 _ZN16adaptiveElementsI12adaptiveLineED2Ev
       5874 16F1 006C5640 _ZN16adaptiveElementsI13adaptivePointE4initEi
       5875 16F2 006D6DA0 _ZN16adaptiveElementsI13adaptivePointE5adaptEdiRNSt3__16vectorI7PCoordsNS2_9allocatorIS4_EEEERNS3_I7PValuesNS5_IS9_EEEERdSD_P15GMSH_PostPluginb
       5876 16F3 006CB3A0 _ZN16adaptiveElementsI13adaptivePointE9addInViewEdiP9PViewDataP13PViewDataListP15GMSH_PostPlugin
       5877 16F4 006C4D40 _ZN16adaptiveElementsI13adaptivePointED2Ev
       5878 16F5 006F1570 _ZN16adaptiveElementsI13adaptivePrismE11adaptForVTKEdiRNSt3__16vectorI7PCoordsNS2_9allocatorIS4_EEEERNS3_I7PValuesNS5_IS9_EEEERdSD_
       5879 16F6 006F2850 _ZN16adaptiveElementsI13adaptivePrismE12buildMappingER6nodMapIS0_EdRi
       5880 16F7 006E6670 _ZN16adaptiveElementsI13adaptivePrismE15addInViewForVTKEiP9PViewDataR7VTKDatabb
       5881 16F8 006C9750 _ZN16adaptiveElementsI13adaptivePrismE4initEi
       5882 16F9 006DD030 _ZN16adaptiveElementsI13adaptivePrismE5adaptEdiRNSt3__16vectorI7PCoordsNS2_9allocatorIS4_EEEERNS3_I7PValuesNS5_IS9_EEEERdSD_P15GMSH_PostPluginb
       5883 16FA 006D27E0 _ZN16adaptiveElementsI13adaptivePrismE9addInViewEdiP9PViewDataP13PViewDataListP15GMSH_PostPlugin
       5884 16FB 006C52E0 _ZN16adaptiveElementsI13adaptivePrismED2Ev
       5885 16FC 006F4750 _ZN16adaptiveElementsI15adaptivePyramidE11adaptForVTKEdiRNSt3__16vectorI7PCoordsNS2_9allocatorIS4_EEEERNS3_I7PValuesNS5_IS9_EEEERdSD_
       5886 16FD 006F5A30 _ZN16adaptiveElementsI15adaptivePyramidE12buildMappingER6nodMapIS0_EdRi
       5887 16FE 006EA010 _ZN16adaptiveElementsI15adaptivePyramidE15addInViewForVTKEiP9PViewDataR7VTKDatabb
       5888 16FF 006BE5E0 _ZN16adaptiveElementsI15adaptivePyramidE4initEi
       5889 1700 006DF650 _ZN16adaptiveElementsI15adaptivePyramidE5adaptEdiRNSt3__16vectorI7PCoordsNS2_9allocatorIS4_EEEERNS3_I7PValuesNS5_IS9_EEEERdSD_P15GMSH_PostPluginb
       5890 1701 006D5660 _ZN16adaptiveElementsI15adaptivePyramidE9addInViewEdiP9PViewDataP13PViewDataListP15GMSH_PostPlugin
       5891 1702 006C5520 _ZN16adaptiveElementsI15adaptivePyramidED2Ev
       5892 1703 006EBF20 _ZN16adaptiveElementsI16adaptiveTriangleE11adaptForVTKEdiRNSt3__16vectorI7PCoordsNS2_9allocatorIS4_EEEERNS3_I7PValuesNS5_IS9_EEEERdSD_
       5893 1704 006ED200 _ZN16adaptiveElementsI16adaptiveTriangleE12buildMappingER6nodMapIS0_EdRi
       5894 1705 006E1000 _ZN16adaptiveElementsI16adaptiveTriangleE15addInViewForVTKEiP9PViewDataR7VTKDatabb
       5895 1706 006C6FE0 _ZN16adaptiveElementsI16adaptiveTriangleE4initEi
       5896 1707 006D9700 _ZN16adaptiveElementsI16adaptiveTriangleE5adaptEdiRNSt3__16vectorI7PCoordsNS2_9allocatorIS4_EEEERNS3_I7PValuesNS5_IS9_EEEERdSD_P15GMSH_PostPluginb
       5897 1708 006CE220 _ZN16adaptiveElementsI16adaptiveTriangleE9addInViewEdiP9PViewDataP13PViewDataListP15GMSH_PostPlugin
       5898 1709 006C4F80 _ZN16adaptiveElementsI16adaptiveTriangleED2Ev
       5899 170A 006F2E60 _ZN16adaptiveElementsI18adaptiveHexahedronE11adaptForVTKEdiRNSt3__16vectorI7PCoordsNS2_9allocatorIS4_EEEERNS3_I7PValuesNS5_IS9_EEEERdSD_
       5900 170B 006F4140 _ZN16adaptiveElementsI18adaptiveHexahedronE12buildMappingER6nodMapIS0_EdRi
       5901 170C 006E8340 _ZN16adaptiveElementsI18adaptiveHexahedronE15addInViewForVTKEiP9PViewDataR7VTKDatabb
       5902 170D 006CA550 _ZN16adaptiveElementsI18adaptiveHexahedronE4initEi
       5903 170E 006DE340 _ZN16adaptiveElementsI18adaptiveHexahedronE5adaptEdiRNSt3__16vectorI7PCoordsNS2_9allocatorIS4_EEEERNS3_I7PValuesNS5_IS9_EEEERdSD_P15GMSH_PostPluginb
       5904 170F 006D3F20 _ZN16adaptiveElementsI18adaptiveHexahedronE9addInViewEdiP9PViewDataP13PViewDataListP15GMSH_PostPlugin
       5905 1710 006C5400 _ZN16adaptiveElementsI18adaptiveHexahedronED2Ev
       5906 1711 006EE390 _ZN16adaptiveElementsI18adaptiveQuadrangleE11adaptForVTKEdiRNSt3__16vectorI7PCoordsNS2_9allocatorIS4_EEEERNS3_I7PValuesNS5_IS9_EEEERdSD_
       5907 1712 006EF670 _ZN16adaptiveElementsI18adaptiveQuadrangleE12buildMappingER6nodMapIS0_EdRi
       5908 1713 006E2CD0 _ZN16adaptiveElementsI18adaptiveQuadrangleE15addInViewForVTKEiP9PViewDataR7VTKDatabb
       5909 1714 006C7C90 _ZN16adaptiveElementsI18adaptiveQuadrangleE4initEi
       5910 1715 006DAA10 _ZN16adaptiveElementsI18adaptiveQuadrangleE5adaptEdiRNSt3__16vectorI7PCoordsNS2_9allocatorIS4_EEEERNS3_I7PValuesNS5_IS9_EEEERdSD_P15GMSH_PostPluginb
       5911 1716 006CF960 _ZN16adaptiveElementsI18adaptiveQuadrangleE9addInViewEdiP9PViewDataP13PViewDataListP15GMSH_PostPlugin
       5912 1717 006C50A0 _ZN16adaptiveElementsI18adaptiveQuadrangleED2Ev
       5913 1718 006EFC80 _ZN16adaptiveElementsI19adaptiveTetrahedronE11adaptForVTKEdiRNSt3__16vectorI7PCoordsNS2_9allocatorIS4_EEEERNS3_I7PValuesNS5_IS9_EEEERdSD_
       5914 1719 006F0F60 _ZN16adaptiveElementsI19adaptiveTetrahedronE12buildMappingER6nodMapIS0_EdRi
       5915 171A 006E49A0 _ZN16adaptiveElementsI19adaptiveTetrahedronE15addInViewForVTKEiP9PViewDataR7VTKDatabb
       5916 171B 006C8A50 _ZN16adaptiveElementsI19adaptiveTetrahedronE4initEi
       5917 171C 006DBD20 _ZN16adaptiveElementsI19adaptiveTetrahedronE5adaptEdiRNSt3__16vectorI7PCoordsNS2_9allocatorIS4_EEEERNS3_I7PValuesNS5_IS9_EEEERdSD_P15GMSH_PostPluginb
       5918 171D 006D10A0 _ZN16adaptiveElementsI19adaptiveTetrahedronE9addInViewEdiP9PViewDataP13PViewDataListP15GMSH_PostPlugin
       5919 171E 006C51C0 _ZN16adaptiveElementsI19adaptiveTetrahedronED2Ev
       5920 171F 006B87E0 _ZN16adaptiveTriangle10recurErrorEPS_dd
       5921 1720 013D3770 _ZN16adaptiveTriangle11allVerticesE
       5922 1721 006B8550 _ZN16adaptiveTriangle11recurCreateEPS_ii
       5923 1722 013D3830 _ZN16adaptiveTriangle3allE
       5924 1723 006B87C0 _ZN16adaptiveTriangle5errorEdd
       5925 1724 006B83F0 _ZN16adaptiveTriangle6createEi
       5926 1725 013C1994 _ZN16adaptiveTriangle8numEdgesE
       5927 1726 013C1978 _ZN16adaptiveTriangle8numNodesE
       5928 1727 00A2CA80 _ZN16backgroundMesh2D11endelementsEv
       5929 1728 00A2CA60 _ZN16backgroundMesh2D11endverticesEv
       5930 1729 00A28D00 _ZN16backgroundMesh2D11updateSizesEv
       5931 172A 00A2CA70 _ZN16backgroundMesh2D13beginelementsEv
       5932 172B 00A2CA50 _ZN16backgroundMesh2D13beginverticesEv
       5933 172C 00A264C0 _ZN16backgroundMesh2D15propagateValuesERNSt3__13mapIKPK7MVertexdNS0_4lessIS5_EENS0_9allocatorINS0_4pairIS5_dEEEEEER14simpleFunctionIdEb
       5934 172D 00A273D0 _ZN16backgroundMesh2D16computeSizeFieldEv
       5935 172E 00A28120 _ZN16backgroundMesh2D16create_face_meshEv
       5936 172F 00A283F0 _ZN16backgroundMesh2D16create_mesh_copyEv
       5937 1730 00A27CB0 _ZN16backgroundMesh2D5resetEb
       5938 1731 00A27F10 _ZN16backgroundMesh2D5unsetEv
       5939 1732 00A27C30 _ZN16backgroundMesh2D9getOctreeEv
       5940 1733 00A29370 _ZN16backgroundMesh2DC1EP5GFaceb
       5941 1734 00A29370 _ZN16backgroundMesh2DC2EP5GFaceb
       5942 1735 00A27C90 _ZN16backgroundMesh2DD0Ev
       5943 1736 00A294F0 _ZN16backgroundMesh2DD1Ev
       5944 1737 00A294F0 _ZN16backgroundMesh2DD2Ev
       5945 1738 00A2CB40 _ZN16backgroundMesh3D15propagateValuesERNSt3__13mapIKPK7MVertexdNS0_4lessIS5_EENS0_9allocatorINS0_4pairIS5_dEEEEEER14simpleFunctionIdEb
       5946 1739 00A2D5B0 _ZN16backgroundMesh3D16computeSizeFieldEv
       5947 173A 00A2E120 _ZN16backgroundMesh3D20get_nearest_neighborEPK7MVertex
       5948 173B 00A2E100 _ZN16backgroundMesh3D20get_nearest_neighborEPKd
       5949 173C 00A2DE30 _ZN16backgroundMesh3D20get_nearest_neighborEPKdRd
       5950 173D 00A2E150 _ZN16backgroundMesh3D20get_nearest_neighborEddd
       5951 173E 00A2E170 _ZN16backgroundMesh3D20get_nearest_neighborEdddRd
       5952 173F 00A2DC10 _ZN16backgroundMesh3D9getOctreeEv
       5953 1740 00A2E1C0 _ZN16backgroundMesh3DC1EP7GRegion
       5954 1741 00A2E1C0 _ZN16backgroundMesh3DC2EP7GRegion
       5955 1742 00A2DE10 _ZN16backgroundMesh3DD0Ev
       5956 1743 00A2E210 _ZN16backgroundMesh3DD1Ev
       5957 1744 00A2E210 _ZN16backgroundMesh3DD2Ev
       5958 1745 00665060 _ZN16elasticitySolver11changeLMTauEid
       5959 1746 006650B0 _ZN16elasticitySolver11setEdgeDispEiiP14simpleFunctionIdE
       5960 1747 00665770 _ZN16elasticitySolver12addNeumannBCEiNSt3__112basic_stringIcNS0_11char_traitsIcEENS0_9allocatorIcEEEENS0_6vectorIdNS4_IdEEEE
       5961 1748 00665540 _ZN16elasticitySolver12addNeumannBCEiiNSt3__16vectorIdNS0_9allocatorIdEEEE
       5962 1749 00667300 _ZN16elasticitySolver13computeL2NormEP14simpleFunctionIdES2_S2_
       5963 174A 00662E10 _ZN16elasticitySolver13readInputFileERKNSt3__112basic_stringIcNS0_11char_traitsIcEENS0_9allocatorIcEEEE
       5964 174B 006654F0 _ZN16elasticitySolver14addDirichletBCEiNSt3__112basic_stringIcNS0_11char_traitsIcEENS0_9allocatorIcEEEEid
       5965 174C 006652B0 _ZN16elasticitySolver14addDirichletBCEiiid
       5966 174D 00660EE0 _ZN16elasticitySolver14buildErrorViewENSt3__112basic_stringIcNS0_11char_traitsIcEENS0_9allocatorIcEEEEP14simpleFunctionIdES9_S9_
       5967 174E 00667760 _ZN16elasticitySolver14computeLagNormEiP14simpleFunctionIdE
       5968 174F 0065D180 _ZN16elasticitySolver15buildStrainViewENSt3__112basic_stringIcNS0_11char_traitsIcEENS0_9allocatorIcEEEE
       5969 1750 006604F0 _ZN16elasticitySolver15buildVolumeViewENSt3__112basic_stringIcNS0_11char_traitsIcEENS0_9allocatorIcEEEE
       5970 1751 00665A50 _ZN16elasticitySolver16addElasticDomainENSt3__112basic_stringIcNS0_11char_traitsIcEENS0_9allocatorIcEEEEdd
       5971 1752 00665870 _ZN16elasticitySolver16addElasticDomainEidd
       5972 1753 00664B70 _ZN16elasticitySolver16setElasticDomainEidd
       5973 1754 0065DB90 _ZN16elasticitySolver17buildStressesViewENSt3__112basic_stringIcNS0_11char_traitsIcEENS0_9allocatorIcEEEE
       5974 1755 0065FC70 _ZN16elasticitySolver17buildVonMisesViewENSt3__112basic_stringIcNS0_11char_traitsIcEENS0_9allocatorIcEEEE
       5975 1756 0065C430 _ZN16elasticitySolver21buildDisplacementViewENSt3__112basic_stringIcNS0_11char_traitsIcEENS0_9allocatorIcEEEE
       5976 1757 0065F310 _ZN16elasticitySolver22buildElasticEnergyViewENSt3__112basic_stringIcNS0_11char_traitsIcEENS0_9allocatorIcEEEE
       5977 1758 00666120 _ZN16elasticitySolver22computeEffectiveStrainENSt3__16vectorIdNS0_9allocatorIdEEEE
       5978 1759 00664D50 _ZN16elasticitySolver22setLagrangeMultipliersEidRK8SVector3iP14simpleFunctionIdE
       5979 175A 006666E0 _ZN16elasticitySolver24computeDisplacementErrorEP14simpleFunctionIdES2_S2_
       5980 175B 00665AA0 _ZN16elasticitySolver25computeEffectiveStiffnessENSt3__16vectorIdNS0_9allocatorIdEEEE
       5981 175C 0065EAB0 _ZN16elasticitySolver27buildLagrangeMultiplierViewERKNSt3__112basic_stringIcNS0_11char_traitsIcEENS0_9allocatorIcEEEEi
       5982 175D 00661EF0 _ZN16elasticitySolver5solveEv
       5983 175E 00664AB0 _ZN16elasticitySolver7cutMeshEP9gLevelset
       5984 175F 0065C140 _ZN16elasticitySolver7setMeshERKNSt3__112basic_stringIcNS0_11char_traitsIcEENS0_9allocatorIcEEEEi
       5985 1760 006622F0 _ZN16elasticitySolver8assembleEP12linearSystemIdE
       5986 1761 00661CC0 _ZN16elasticitySolver8exportKbEv
       5987 1762 00662BC0 _ZN16elasticitySolver9postSolveEv
       5988 1763 00661A70 _ZN16elasticitySolverC1EP6GModeli
       5989 1764 00661A70 _ZN16elasticitySolverC2EP6GModeli
       5990 1765 00667860 _ZN16elasticitySolverD0Ev
       5991 1766 00667770 _ZN16elasticitySolverD2Ev
       5992 1767 00352530 _ZN16gLevelsetPopcornC1Eddddddi
       5993 1768 00352530 _ZN16gLevelsetPopcornC2Eddddddi
       5994 1769 003598B0 _ZN16gLevelsetPopcornD0Ev
       5995 176A 00351CD0 _ZN16gLevelsetQuadric21computeRotationMatrixEPKdPA3_d
       5996 176B 00351E90 _ZN16gLevelsetQuadric21computeRotationMatrixEPKdS1_PA3_d
       5997 176C 00351420 _ZN16gLevelsetQuadric2AxEPKdPdd
       5998 176D 00351510 _ZN16gLevelsetQuadric3xAxEPKdRdd
       5999 176E 00352100 _ZN16gLevelsetQuadric4initEv
       6000 176F 003517A0 _ZN16gLevelsetQuadric6rotateEPA3_Kd
       6001 1770 003515A0 _ZN16gLevelsetQuadric9translateEPKd
       6002 1771 00351380 _ZN16gLevelsetQuadricC2ERKS_
       6003 1772 003598A0 _ZN16gLevelsetQuadricD0Ev
       6004 1773 007B8130 _ZN16gLevelsetReverseD0Ev
       6005 1774 001846A0 _ZN16gaussIntegration10getPyramidEiR10fullMatrixIdER10fullVectorIdE
       6006 1775 00184280 _ZN16gaussIntegration11getTriangleEiR10fullMatrixIdER10fullVectorIdE
       6007 1776 00184540 _ZN16gaussIntegration13getHexahedronEiR10fullMatrixIdER10fullVectorIdE
       6008 1777 00184490 _ZN16gaussIntegration14getTetrahedronEiR10fullMatrixIdER10fullVectorIdE
       6009 1778 00184750 _ZN16gaussIntegration3getEiiR10fullMatrixIdER10fullVectorIdEb
       6010 1779 00184330 _ZN16gaussIntegration7getLineEiR10fullMatrixIdER10fullVectorIdE
       6011 177A 001843E0 _ZN16gaussIntegration7getQuadEiR10fullMatrixIdER10fullVectorIdE
       6012 177B 001845F0 _ZN16gaussIntegration8getPrismEiR10fullMatrixIdER10fullVectorIdE
       6013 177C 0062E930 _ZN16linearSystemBase12setParameterERKNSt3__112basic_stringIcNS0_11char_traitsIcEENS0_9allocatorIcEEEES6_
       6014 177D 0029FBB0 _ZN16linearSystemBase18preAllocateEntriesEv
       6015 177E 0029FBC0 _ZN16linearSystemBase23insertInSparsityPatternEii
       6016 177F 0029F860 _ZN16linearSystemBase7matMultEv
       6017 1780 0029FBF0 _ZN16linearSystemBaseD0Ev
       6018 1781 0029FBD0 _ZN16linearSystemBaseD2Ev
       6019 1782 009D44C0 _ZN16listOfPointsFifo11erase_firstEv
       6020 1783 009D4420 _ZN16listOfPointsFifo14get_first_sizeEv
       6021 1784 009D4450 _ZN16listOfPointsFifo15get_first_layerEv
       6022 1785 009D43A0 _ZN16listOfPointsFifo16get_first_vertexEv
       6023 1786 009D4480 _ZN16listOfPointsFifo19get_first_directionEv
       6024 1787 009D43D0 _ZN16listOfPointsFifo20get_first_crossfieldEv
       6025 1788 009D4390 _ZN16listOfPointsFifo4sizeEv
       6026 1789 009D4540 _ZN16listOfPointsFifo5emptyEv
       6027 178A 009D4310 _ZN16listOfPointsFifo6insertEP22smoothness_vertex_pair
       6028 178B 009D42A0 _ZN16listOfPointsFifoD0Ev
       6029 178C 009D4230 _ZN16listOfPointsFifoD2Ev
       6030 178D 0008A100 _ZN16onelabGmshServer12LaunchClientEv
       6031 178E 0008B1A0 _ZN16onelabGmshServer15NonBlockingWaitEddi
       6032 178F 0008B190 _ZN16onelabGmshServer21NonBlockingSystemCallERKNSt3__112basic_stringIcNS0_11char_traitsIcEENS0_9allocatorIcEEEES8_
       6033 1790 0008B140 _ZN16onelabGmshServerD0Ev
       6034 1791 00191340 _ZN16robustPredicates12incirclefastEPdS0_S0_S0_
       6035 1792 001922A0 _ZN16robustPredicates12incircleslowEPdS0_S0_S0_
       6036 1793 00198050 _ZN16robustPredicates12inspherefastEPdS0_S0_S0_S0_
       6037 1794 0019A440 _ZN16robustPredicates12insphereslowEPdS0_S0_S0_S0_
       6038 1795 00189830 _ZN16robustPredicates12orient2dfastEPdS0_S0_
       6039 1796 00189D90 _ZN16robustPredicates12orient2dslowEPdS0_S0_
       6040 1797 0018B1B0 _ZN16robustPredicates12orient3dfastEPdS0_S0_S0_
       6041 1798 0018BF70 _ZN16robustPredicates12orient3dslowEPdS0_S0_S0_
       6042 1799 00188640 _ZN16robustPredicates13expansion_sumEiPdiS0_S0_
       6043 179A 00194510 _ZN16robustPredicates13incircleadaptEPdS0_S0_S0_d
       6044 179B 00191430 _ZN16robustPredicates13incircleexactEPdS0_S0_S0_
       6045 179C 0019EE90 _ZN16robustPredicates13insphereadaptEPdS0_S0_S0_S0_d
       6046 179D 00198370 _ZN16robustPredicates13insphereexactEPdS0_S0_S0_S0_
       6047 179E 0018A760 _ZN16robustPredicates13orient2dadaptEPdS0_S0_d
       6048 179F 00189870 _ZN16robustPredicates13orient2dexactEPdS0_S0_
       6049 17A0 0018DC50 _ZN16robustPredicates13orient3dadaptEPdS0_S0_S0_d
       6050 17A1 0018B290 _ZN16robustPredicates13orient3dexactEPdS0_S0_S0_
       6051 17A2 001A3080 _ZN16robustPredicates13orient4dadaptEPdS0_S0_S0_S0_dddddd
       6052 17A3 001A13C0 _ZN16robustPredicates13orient4dexactEPdS0_S0_S0_S0_ddddd
       6053 17A4 00188540 _ZN16robustPredicates14grow_expansionEiPddS0_
       6054 17A5 00189370 _ZN16robustPredicates15scale_expansionEiPddS0_
       6055 17A6 001889D0 _ZN16robustPredicates18fast_expansion_sumEiPdiS0_S0_
       6056 17A7 00188F40 _ZN16robustPredicates20linear_expansion_sumEiPdiS0_S0_
       6057 17A8 00188750 _ZN16robustPredicates23expansion_sum_zeroelim1EiPdiS0_S0_
       6058 17A9 001888A0 _ZN16robustPredicates23expansion_sum_zeroelim2EiPdiS0_S0_
       6059 17AA 001885A0 _ZN16robustPredicates23grow_expansion_zeroelimEiPddS0_
       6060 17AB 00189510 _ZN16robustPredicates24scale_expansion_zeroelimEiPddS0_
       6061 17AC 00188C60 _ZN16robustPredicates27fast_expansion_sum_zeroelimEiPdiS0_S0_
       6062 17AD 00189120 _ZN16robustPredicates29linear_expansion_sum_zeroelimEiPdiS0_S0_
       6063 17AE 00189710 _ZN16robustPredicates8compressEiPdS0_
       6064 17AF 00189810 _ZN16robustPredicates8estimateEiPd
       6065 17B0 00197E10 _ZN16robustPredicates8incircleEPdS0_S0_S0_
       6066 17B1 001A0C00 _ZN16robustPredicates8insphereEPdS0_S0_S0_S0_
       6067 17B2 0018B100 _ZN16robustPredicates8orient2dEPdS0_S0_
       6068 17B3 00191080 _ZN16robustPredicates8orient3dEPdS0_S0_S0_
       6069 17B4 001A4B10 _ZN16robustPredicates8orient4dEPdS0_S0_S0_S0_ddddd
       6070 17B5 00188250 _ZN16robustPredicates9exactinitEiddd
       6071 17B6 000051D0 _ZN17FieldOptionDouble14numericalValueEd
       6072 17B7 00005030 _ZN17FieldOptionDouble21getTextRepresentationERNSt3__112basic_stringIcNS0_11char_traitsIcEENS0_9allocatorIcEEEE
       6073 17B8 00005020 _ZN17FieldOptionDouble7getTypeEv
       6074 17B9 00004FF0 _ZN17FieldOptionDoubleD0Ev
       6075 17BA 00003CB0 _ZN17FieldOptionString21getTextRepresentationERNSt3__112basic_stringIcNS0_11char_traitsIcEENS0_9allocatorIcEEEE
       6076 17BB 00003FE0 _ZN17FieldOptionString6stringENSt3__112basic_stringIcNS0_11char_traitsIcEENS0_9allocatorIcEEEE
       6077 17BC 00003CA0 _ZN17FieldOptionString7getTypeEv
       6078 17BD 00003C70 _ZN17FieldOptionStringD0Ev
       6079 17BE 00669FA0 _ZN17FunctionSpaceBaseD2Ev
       6080 17BF 007196D0 _ZN17GMSH_CutBoxPlugin10callbackX0Eiid
       6081 17C0 007198B0 _ZN17GMSH_CutBoxPlugin10callbackX1Eiid
       6082 17C1 00719A90 _ZN17GMSH_CutBoxPlugin10callbackX2Eiid
       6083 17C2 00719C70 _ZN17GMSH_CutBoxPlugin10callbackX3Eiid
       6084 17C3 00719770 _ZN17GMSH_CutBoxPlugin10callbackY0Eiid
       6085 17C4 00719950 _ZN17GMSH_CutBoxPlugin10callbackY1Eiid
       6086 17C5 00719B30 _ZN17GMSH_CutBoxPlugin10callbackY2Eiid
       6087 17C6 00719D10 _ZN17GMSH_CutBoxPlugin10callbackY3Eiid
       6088 17C7 00719810 _ZN17GMSH_CutBoxPlugin10callbackZ0Eiid
       6089 17C8 007199F0 _ZN17GMSH_CutBoxPlugin10callbackZ1Eiid
       6090 17C9 00719BD0 _ZN17GMSH_CutBoxPlugin10callbackZ2Eiid
       6091 17CA 00719DB0 _ZN17GMSH_CutBoxPlugin10callbackZ3Eiid
       6092 17CB 00736190 _ZN17GMSH_CutBoxPlugin12GenerateViewEP5PViewii
       6093 17CC 00719F10 _ZN17GMSH_CutBoxPlugin15callbackConnectEiid
       6094 17CD 00719F50 _ZN17GMSH_CutBoxPlugin16callbackBoundaryEiid
       6095 17CE 00719FC0 _ZN17GMSH_CutBoxPlugin4drawEPv
       6096 17CF 0071A020 _ZN17GMSH_CutBoxPlugin6getNbUEv
       6097 17D0 0071A030 _ZN17GMSH_CutBoxPlugin6getNbVEv
       6098 17D1 0071A040 _ZN17GMSH_CutBoxPlugin6getNbWEv
       6099 17D2 00719650 _ZN17GMSH_CutBoxPlugin7executeEP5PView
       6100 17D3 00719FD0 _ZN17GMSH_CutBoxPlugin8callbackEiidPdddd
       6101 17D4 0071A050 _ZN17GMSH_CutBoxPlugin8getPointEiiiPd
       6102 17D5 0071A1E0 _ZN17GMSH_CutBoxPlugin9addInViewEiiiiPPPPdS3_RNSt3__16vectorIdNS4_9allocatorIdEEEEPiS9_SA_S9_SA_S9_SA_
       6103 17D6 00719E50 _ZN17GMSH_CutBoxPlugin9callbackUEiid
       6104 17D7 00719E90 _ZN17GMSH_CutBoxPlugin9callbackVEiid
       6105 17D8 00719ED0 _ZN17GMSH_CutBoxPlugin9callbackWEiid
       6106 17D9 00719630 _ZN17GMSH_CutBoxPlugin9getOptionEi
       6107 17DA 00736E60 _ZN17GMSH_CutBoxPluginD0Ev
       6108 17DB 00752080 _ZN17GMSH_MinMaxPlugin7executeEP5PView
       6109 17DC 00752060 _ZN17GMSH_MinMaxPlugin9getOptionEi
       6110 17DD 00754100 _ZN17GMSH_MinMaxPluginD0Ev
       6111 17DE 0074FFB0 _ZN17GMSH_RemovePlugin7executeEP5PView
       6112 17DF 0074FF90 _ZN17GMSH_RemovePlugin9getOptionEi
       6113 17E0 00750440 _ZN17GMSH_RemovePluginD0Ev
       6114 17E1 00708B80 _ZN17GMSH_SmoothPlugin7executeEP5PView
       6115 17E2 00708B60 _ZN17GMSH_SmoothPlugin9getOptionEi
       6116 17E3 00708C10 _ZN17GMSH_SmoothPluginD0Ev
       6117 17E4 00CAEFA0 _ZN17GeometryOptimizer10initializeER14GFaceMeshPatchP16SurfaceProjector
       6118 17E5 00CB2440 _ZN17GeometryOptimizer16smoothWithKernelE15SmoothingKernelS0_didbddbbb
       6119 17E6 00CAF1F0 _ZN17GeometryOptimizer26smoothWithWinslowUntanglerENS_12PlanarMethodEidbd
       6120 17E7 00CBB050 _ZN17GeometryOptimizerD2Ev
       6121 17E8 001C4AB0 _ZN17HierarchicalBasisD0Ev
       6122 17E9 001C4AA0 _ZN17HierarchicalBasisD1Ev
       6123 17EA 001C4AA0 _ZN17HierarchicalBasisD2Ev
       6124 17EB 001428B0 _ZN17JacobiPolynomials1fEidddPd
       6125 17EC 00143470 _ZN17JacobiPolynomials2dfEidddPd
       6126 17ED 00961E80 _ZN17MeshOptParametersD2Ev
       6127 17EE 00012550 _ZN17MsgProgressStatus4nextEv
       6128 17EF 000124A0 _ZN17MsgProgressStatusC1Ei
       6129 17F0 000124A0 _ZN17MsgProgressStatusC2Ei
       6130 17F1 00012500 _ZN17MsgProgressStatusD1Ev
       6131 17F2 00012500 _ZN17MsgProgressStatusD2Ev
       6132 17F3 009A6720 _ZN17ObjectiveFunction10initializeEP5Patch
       6133 17F4 009A6760 _ZN17ObjectiveFunction12contribNamesEv
       6134 17F5 009A6F30 _ZN17ObjectiveFunction12failMeasuresEv
       6135 17F6 009A6DD0 _ZN17ObjectiveFunction12updateMinMaxEv
       6136 17F7 009A6EE0 _ZN17ObjectiveFunction13targetReachedEv
       6137 17F8 009A6E50 _ZN17ObjectiveFunction13updateResultsEv
       6138 17F9 009A6E10 _ZN17ObjectiveFunction16updateParametersEv
       6139 17FA 009A7060 _ZN17ObjectiveFunction17targetsNotReachedEv
       6140 17FB 009A6D00 _ZN17ObjectiveFunction5namesEv
       6141 17FC 009A6B60 _ZN17ObjectiveFunction6minMaxEv
       6142 17FD 009A7190 _ZN17ObjectiveFunction7computeERdRNSt3__16vectorIdNS1_9allocatorIdEEEE
       6143 17FE 009A6860 _ZN17ObjectiveFunction9minMaxStrEv
       6144 17FF 009A6E90 _ZN17ObjectiveFunction9stagnatedEv
       6145 1800 00448030 _ZN17RecombineTriangleC1ERK5MEdgeP8MElementS4_P5Field
       6146 1801 00448030 _ZN17RecombineTriangleC2ERK5MEdgeP8MElementS4_P5Field
       6147 1802 009A8610 _ZN17VertexCoordParent17exportVertexCoordERK7SPoint3
       6148 1803 009A8680 _ZN17VertexCoordParentD0Ev
       6149 1804 009A6420 _ZN17VertexCoordPhys3DD0Ev
       6150 1805 00145030 _ZN17bezierBasisRaiser15_fillRaiserDataEv
       6151 1806 001471C0 _ZN17bezierBasisRaiser18_fillRaiserDataPyrEv
       6152 1807 00358170 _ZN17gLevelsetCylinderC1EPKdS1_RS0_S2_S2_i
       6153 1808 00357D80 _ZN17gLevelsetCylinderC1EPKdS1_RS0_S2_i
       6154 1809 00357930 _ZN17gLevelsetCylinderC1ERKNSt3__16vectorIdNS0_9allocatorIdEEEES6_RKdS8_i
       6155 180A 00358710 _ZN17gLevelsetCylinderC1ERKS_
       6156 180B 00358170 _ZN17gLevelsetCylinderC2EPKdS1_RS0_S2_S2_i
       6157 180C 00357D80 _ZN17gLevelsetCylinderC2EPKdS1_RS0_S2_i
       6158 180D 00357930 _ZN17gLevelsetCylinderC2ERKNSt3__16vectorIdNS0_9allocatorIdEEEES6_RKdS8_i
       6159 180E 00358710 _ZN17gLevelsetCylinderC2ERKS_
       6160 180F 0035B330 _ZN17gLevelsetCylinderD0Ev
       6161 1810 003529D0 _ZN17gLevelsetDistMeshC1EP6GModelRKNSt3__112basic_stringIcNS2_11char_traitsIcEENS2_9allocatorIcEEEEii
       6162 1811 003529D0 _ZN17gLevelsetDistMeshC2EP6GModelRKNSt3__112basic_stringIcNS2_11char_traitsIcEENS2_9allocatorIcEEEEii
       6163 1812 0034AA80 _ZN17gLevelsetDistMeshD0Ev
       6164 1813 003535E0 _ZN17gLevelsetDistMeshD1Ev
       6165 1814 003535E0 _ZN17gLevelsetDistMeshD2Ev
       6166 1815 00354E50 _ZN17gLevelsetImprovedC2ERKS_
       6167 1816 0035AFF0 _ZN17gLevelsetImprovedD0Ev
       6168 1817 003525A0 _ZN17gLevelsetMathEvalC1ERKNSt3__112basic_stringIcNS0_11char_traitsIcEENS0_9allocatorIcEEEEi
       6169 1818 003525A0 _ZN17gLevelsetMathEvalC2ERKNSt3__112basic_stringIcNS0_11char_traitsIcEENS0_9allocatorIcEEEEi
       6170 1819 0034A2F0 _ZN17gLevelsetMathEvalD0Ev
       6171 181A 003527D0 _ZN17gLevelsetMathEvalD1Ev
       6172 181B 003527D0 _ZN17gLevelsetMathEvalD2Ev
       6173 181C 00353690 _ZN17gLevelsetPostViewC1Eii
       6174 181D 00353690 _ZN17gLevelsetPostViewC2Eii
       6175 181E 003599F0 _ZN17gLevelsetPostViewD0Ev
       6176 181F 003599B0 _ZN17gLevelsetPostViewD2Ev
       6177 1820 00352130 _ZN17gLevelsetShamrockC1Edddddii
       6178 1821 00352130 _ZN17gLevelsetShamrockC2Edddddii
       6179 1822 00359920 _ZN17gLevelsetShamrockD0Ev
       6180 1823 003598D0 _ZN17gLevelsetShamrockD2Ev
       6181 1824 00634FD0 _ZN17linearSystemEigenIdE10zeroMatrixEv
       6182 1825 00635EA0 _ZN17linearSystemEigenIdE11addToMatrixEiiRKd
       6183 1826 006350B0 _ZN17linearSystemEigenIdE11systemSolveEv
       6184 1827 00635080 _ZN17linearSystemEigenIdE12zeroSolutionEv
       6185 1828 006360E0 _ZN17linearSystemEigenIdE13addToSolutionEiRKd
       6186 1829 00636240 _ZN17linearSystemEigenIdE13setSolverTypeE23linearSystemEigenSolver
       6187 182A 00635050 _ZN17linearSystemEigenIdE17zeroRightHandSideEv
       6188 182B 00635FF0 _ZN17linearSystemEigenIdE18addToRightHandSideEiRKdi
       6189 182C 00635CB0 _ZN17linearSystemEigenIdE23insertInSparsityPatternEii
       6190 182D 00634F50 _ZN17linearSystemEigenIdE5clearEv
       6191 182E 00634E40 _ZN17linearSystemEigenIdE8allocateEi
       6192 182F 00636190 _ZN17linearSystemEigenIdEC1Ev
       6193 1830 00636190 _ZN17linearSystemEigenIdEC2Ev
       6194 1831 00637890 _ZN17linearSystemEigenIdED0Ev
       6195 1832 00637810 _ZN17linearSystemEigenIdED2Ev
       6196 1833 007CC700 _ZN17localSolverClient11FixExecPathERKNSt3__112basic_stringIcNS0_11char_traitsIcEENS0_9allocatorIcEEEE
       6197 1834 007E2560 _ZN17localSolverClient11modify_tagsENSt3__112basic_stringIcNS0_11char_traitsIcEENS0_9allocatorIcEEEES6_
       6198 1835 007E53E0 _ZN17localSolverClient11parse_blockERNSt3__114basic_ifstreamIcNS0_11char_traitsIcEEEE
       6199 1836 007DE300 _ZN17localSolverClient12resolveRangeERKNSt3__112basic_stringIcNS0_11char_traitsIcEENS0_9allocatorIcEEEERNS0_6vectorIdNS4_IdEEEE
       6200 1837 007E5C60 _ZN17localSolverClient13parse_onefileENSt3__112basic_stringIcNS0_11char_traitsIcEENS0_9allocatorIcEEEEb
       6201 1838 007E34D0 _ZN17localSolverClient13parse_onelineENSt3__112basic_stringIcNS0_11char_traitsIcEENS0_9allocatorIcEEEERNS0_14basic_ifstreamIcS3_EE
       6202 1839 007DC640 _ZN17localSolverClient13resolveGetValENSt3__112basic_stringIcNS0_11char_traitsIcEENS0_9allocatorIcEEEE
       6203 183A 007DC160 _ZN17localSolverClient13resolveStringERKNSt3__112basic_stringIcNS0_11char_traitsIcEENS0_9allocatorIcEEEE
       6204 183B 007D2090 _ZN17localSolverClient13setWorkingDirERKNSt3__112basic_stringIcNS0_11char_traitsIcEENS0_9allocatorIcEEEE
       6205 183C 007CCA00 _ZN17localSolverClient14buildRmCommandERNSt3__112basic_stringIcNS0_11char_traitsIcEENS0_9allocatorIcEEEE
       6206 183D 007DECC0 _ZN17localSolverClient14parse_sentenceENSt3__112basic_stringIcNS0_11char_traitsIcEENS0_9allocatorIcEEEE
       6207 183E 007D2080 _ZN17localSolverClient14setCommandLineERKNSt3__112basic_stringIcNS0_11char_traitsIcEENS0_9allocatorIcEEEE
       6208 183F 007CD0E0 _ZN17localSolverClient15addNumberChoiceENSt3__112basic_stringIcNS0_11char_traitsIcEENS0_9allocatorIcEEEEdb
       6209 1840 007D5820 _ZN17localSolverClient15client_sentenceERKNSt3__112basic_stringIcNS0_11char_traitsIcEENS0_9allocatorIcEEEES8_RKNS0_6vectorIS6_NS4_IS6_EEEE
       6210 1841 007E7D10 _ZN17localSolverClient15convert_onefileENSt3__112basic_stringIcNS0_11char_traitsIcEENS0_9allocatorIcEEEERNS0_14basic_ofstreamIcS3_EE
       6211 1842 007E6630 _ZN17localSolverClient15convert_onelineENSt3__112basic_stringIcNS0_11char_traitsIcEENS0_9allocatorIcEEEERNS0_14basic_ifstreamIcS3_EERNS0_14basic_ofstreamIcS3_EE
       6212 1843 007C25D0 _ZN17localSolverClient16checkCommandLineEv
       6213 1844 007DDC90 _ZN17localSolverClient16resolveLogicExprENSt3__16vectorINS0_12basic_stringIcNS0_11char_traitsIcEENS0_9allocatorIcEEEENS5_IS7_EEEE
       6214 1845 007E5690 _ZN17localSolverClient17parse_ifstatementERNSt3__114basic_ifstreamIcNS0_11char_traitsIcEEEEb
       6215 1846 007E6040 _ZN17localSolverClient19convert_ifstatementERNSt3__114basic_ifstreamIcNS0_11char_traitsIcEEEERNS0_14basic_ofstreamIcS3_EEb
       6216 1847 007D52C0 _ZN17localSolverClient6toCharEv
       6217 1848 007CC490 _ZN17localSolverClient7getListENSt3__112basic_stringIcNS0_11char_traitsIcEENS0_9allocatorIcEEEERNS0_6vectorIS6_NS4_IS6_EEEE
       6218 1849 007D2160 _ZN17localSolverClient8isNativeEv
       6219 184A 007DBFC0 _ZN17localSolverClient8longNameENSt3__112basic_stringIcNS0_11char_traitsIcEENS0_9allocatorIcEEEE
       6220 184B 007CDF40 _ZN17localSolverClient9GmshMergeENSt3__16vectorINS0_12basic_stringIcNS0_11char_traitsIcEENS0_9allocatorIcEEEENS5_IS7_EEEE
       6221 184C 007CD3C0 _ZN17localSolverClient9PostArrayENSt3__16vectorINS0_12basic_stringIcNS0_11char_traitsIcEENS0_9allocatorIcEEEENS5_IS7_EEEE
       6222 184D 007CA970 _ZN17localSolverClient9getStringENSt3__112basic_stringIcNS0_11char_traitsIcEENS0_9allocatorIcEEEE
       6223 184E 007CC300 _ZN17localSolverClient9setActionENSt3__112basic_stringIcNS0_11char_traitsIcEENS0_9allocatorIcEEEE
       6224 184F 007D25E0 _ZN17localSolverClientC2ERKNSt3__112basic_stringIcNS0_11char_traitsIcEENS0_9allocatorIcEEEES8_S8_
       6225 1850 007E9960 _ZN17localSolverClientD0Ev
       6226 1851 007D20B0 _ZN17localSolverClientD2Ev
       6227 1852 00461570 _ZN17splitQuadRecovery13buildPyramidsEP6GModel
       6228 1853 00461360 _ZN17splitQuadRecovery3addERK5MFaceP7MVertexP5GFace
       6229 1854 004644D0 _ZN17splitQuadRecoveryD2Ev
       6230 1855 013D1200 _ZN18BarycenterLessThan9toleranceE
       6231 1856 005A2240 _ZN18BoundaryLayerField10setupFor1dEi
       6232 1857 005A2640 _ZN18BoundaryLayerField10setupFor2dEi
       6233 1858 0059F170 _ZN18BoundaryLayerField14getDescriptionEv
       6234 1859 005A2CE0 _ZN18BoundaryLayerField16computeFor1dMeshEdddR8SMetric3
       6235 185A 005A21B0 _ZN18BoundaryLayerField16removeAttractorsEv
       6236 185B 0059F160 _ZN18BoundaryLayerField7getNameEv
       6237 185C 0059F8D0 _ZN18BoundaryLayerFieldC1Ev
       6238 185D 0059F8D0 _ZN18BoundaryLayerFieldC2Ev
       6239 185E 005A6D60 _ZN18BoundaryLayerFieldD0Ev
       6240 185F 005A69A0 _ZN18BoundaryLayerFieldD2Ev
       6241 1860 005A3040 _ZN18BoundaryLayerFieldclEP13DistanceFieldddddR8SMetric3P7GEntity
       6242 1861 0059E7D0 _ZN18BoundaryLayerFieldclEdddP7GEntity
       6243 1862 0059EAB0 _ZN18BoundaryLayerFieldclEdddR8SMetric3P7GEntity
       6244 1863 013C50E0 _ZN18DI_ElementLessThan9toleranceE
       6245 1864 007C5F40 _ZN18EncapsulatedClient16buildCommandLineEv
       6246 1865 007C4B60 _ZN18EncapsulatedClient7analyzeEv
       6247 1866 007C51B0 _ZN18EncapsulatedClient7computeEv
       6248 1867 007D0B90 _ZN18EncapsulatedClient7convertEv
       6249 1868 007D2CE0 _ZN18EncapsulatedClientC2ERKNSt3__112basic_stringIcNS0_11char_traitsIcEENS0_9allocatorIcEEEES8_S8_
       6250 1869 007D21F0 _ZN18EncapsulatedClientD0Ev
       6251 186A 0066C5E0 _ZN18FilterDofComponentD0Ev
       6252 186B 0066C5F0 _ZN18FilterDofComponentclE3Dof
       6253 186C 00764EC0 _ZN18GMSH_BubblesPlugin12getOptionStrEi
       6254 186D 00764EE0 _ZN18GMSH_BubblesPlugin7executeEP5PView
       6255 186E 00764E90 _ZN18GMSH_BubblesPlugin9getOptionEi
       6256 186F 00766050 _ZN18GMSH_BubblesPluginD0Ev
       6257 1870 00715430 _ZN18GMSH_CutGridPlugin10callbackX0Eiid
       6258 1871 00715610 _ZN18GMSH_CutGridPlugin10callbackX1Eiid
       6259 1872 007157F0 _ZN18GMSH_CutGridPlugin10callbackX2Eiid
       6260 1873 007154D0 _ZN18GMSH_CutGridPlugin10callbackY0Eiid
       6261 1874 007156B0 _ZN18GMSH_CutGridPlugin10callbackY1Eiid
       6262 1875 00715890 _ZN18GMSH_CutGridPlugin10callbackY2Eiid
       6263 1876 00715570 _ZN18GMSH_CutGridPlugin10callbackZ0Eiid
       6264 1877 00715750 _ZN18GMSH_CutGridPlugin10callbackZ1Eiid
       6265 1878 00715930 _ZN18GMSH_CutGridPlugin10callbackZ2Eiid
       6266 1879 00718B20 _ZN18GMSH_CutGridPlugin12GenerateViewEP5PViewi
       6267 187A 00715A50 _ZN18GMSH_CutGridPlugin15callbackConnectEiid
       6268 187B 00715AC0 _ZN18GMSH_CutGridPlugin4drawEPv
       6269 187C 00715B20 _ZN18GMSH_CutGridPlugin6getNbUEv
       6270 187D 00715B30 _ZN18GMSH_CutGridPlugin6getNbVEv
       6271 187E 007153D0 _ZN18GMSH_CutGridPlugin7executeEP5PView
       6272 187F 00715AD0 _ZN18GMSH_CutGridPlugin8callbackEiidPdddd
       6273 1880 00715B40 _ZN18GMSH_CutGridPlugin8getPointEiiPd
       6274 1881 00715C40 _ZN18GMSH_CutGridPlugin9addInViewEiiiPPPdS2_RNSt3__16vectorIdNS3_9allocatorIdEEEEPiS8_S9_S8_S9_
       6275 1882 007159D0 _ZN18GMSH_CutGridPlugin9callbackUEiid
       6276 1883 00715A10 _ZN18GMSH_CutGridPlugin9callbackVEiid
       6277 1884 007153B0 _ZN18GMSH_CutGridPlugin9getOptionEi
       6278 1885 00719550 _ZN18GMSH_CutGridPluginD0Ev
       6279 1886 007732B0 _ZN18GMSH_CutMeshPlugin3runEv
       6280 1887 00773290 _ZN18GMSH_CutMeshPlugin9getOptionEi
       6281 1888 00773380 _ZN18GMSH_CutMeshPluginD0Ev
       6282 1889 0070C950 _ZN18GMSH_Lambda2Plugin7executeEP5PView
       6283 188A 0070C930 _ZN18GMSH_Lambda2Plugin9getOptionEi
       6284 188B 0070E070 _ZN18GMSH_Lambda2PluginD0Ev
       6285 188C 00776490 _ZN18GMSH_NewViewPlugin11elementDataEidRNSt3__13mapIiNS0_6vectorIdNS0_9allocatorIdEEEENS0_4lessIiEENS3_INS0_4pairIKiS5_EEEEEEi
       6286 188D 00775B00 _ZN18GMSH_NewViewPlugin12getOptionStrEi
       6287 188E 00775B20 _ZN18GMSH_NewViewPlugin7executeEP5PView
       6288 188F 00775EA0 _ZN18GMSH_NewViewPlugin8nodeDataEidRNSt3__13mapIiNS0_6vectorIdNS0_9allocatorIdEEEENS0_4lessIiEENS3_INS0_4pairIKiS5_EEEEEE
       6289 1890 00775AD0 _ZN18GMSH_NewViewPlugin9getOptionEi
       6290 1891 00776C50 _ZN18GMSH_NewViewPluginD0Ev
       6291 1892 005C0050 _ZN18MathEvalExpression12set_functionERKNSt3__112basic_stringIcNS0_11char_traitsIcEENS0_9allocatorIcEEEE
       6292 1893 005C07F0 _ZN18MathEvalExpression8evaluateEddd
       6293 1894 005BFC60 _ZN18MathEvalExpressionD2Ev
       6294 1895 005C31A0 _ZN18MathEvalFieldAniso14getDescriptionEv
       6295 1896 005C3190 _ZN18MathEvalFieldAniso7getNameEv
       6296 1897 005C1790 _ZN18MathEvalFieldAnisoC2Ev
       6297 1898 005C2C60 _ZN18MathEvalFieldAnisoD0Ev
       6298 1899 005C2B80 _ZN18MathEvalFieldAnisoD2Ev
       6299 189A 005C2C90 _ZN18MathEvalFieldAnisoclEdddP7GEntity
       6300 189B 005C2F30 _ZN18MathEvalFieldAnisoclEdddR8SMetric3P7GEntity
       6301 189C 009B41E0 _ZN18ObjContribIdealJacI27ObjContribFuncBarrierMovMinE10addContribERdRNSt3__16vectorIdNS3_9allocatorIdEEEE
       6302 189D 009B41A0 _ZN18ObjContribIdealJacI27ObjContribFuncBarrierMovMinE10initializeEP5Patch
       6303 189E 009B4650 _ZN18ObjContribIdealJacI27ObjContribFuncBarrierMovMinE12updateMinMaxEv
       6304 189F 009B4620 _ZN18ObjContribIdealJacI27ObjContribFuncBarrierMovMinE13targetReachedEv
       6305 18A0 009B4600 _ZN18ObjContribIdealJacI27ObjContribFuncBarrierMovMinE16updateParametersEv
       6306 18A1 009B41D0 _ZN18ObjContribIdealJacI27ObjContribFuncBarrierMovMinE4failEv
       6307 18A2 009B4630 _ZN18ObjContribIdealJacI27ObjContribFuncBarrierMovMinE9stagnatedEv
       6308 18A3 009B3DA0 _ZN18ObjContribIdealJacI27ObjContribFuncBarrierMovMinEC2Ed
       6309 18A4 009B40B0 _ZN18ObjContribIdealJacI27ObjContribFuncBarrierMovMinED0Ev
       6310 18A5 00A03620 _ZN18Recombinator_Graph11export_tetsERNSt3__13setIP8MElementNS0_4lessIS3_EENS0_9allocatorIS3_EEEEP3HexRKNS0_12basic_stringIcNS0_11char_traitsIcEENS6_IcEEEE
       6311 18A6 00A0D5E0 _ZN18Recombinator_Graph12get_triangleEP7MVertexS1_S1_
       6312 18A7 00A02950 _ZN18Recombinator_Graph12get_triangleEP8MElementiii
       6313 18A8 00A02FC0 _ZN18Recombinator_Graph12merge_cliqueEP7GRegionR20cliques_losses_graphIP3HexEi
       6314 18A9 00A08510 _ZN18Recombinator_Graph13find_the_lineEP6PELineRKNSt3__18multimapIyS1_NS2_4lessIyEENS2_9allocatorINS2_4pairIKyS1_EEEEEE
       6315 18AA 009D6A30 _ZN18Recombinator_Graph14buildGraphOnlyEP7GRegionjNSt3__112basic_stringIcNS2_11char_traitsIcEENS2_9allocatorIcEEEE
       6316 18AB 009D6910 _ZN18Recombinator_Graph14buildGraphOnlyEjNSt3__112basic_stringIcNS0_11char_traitsIcEENS0_9allocatorIcEEEE
       6317 18AC 00A06800 _ZN18Recombinator_Graph14export_all_hexERiP7GRegion
       6318 18AD 00A0B3F0 _ZN18Recombinator_Graph15add_graph_entryEP3HexS1_
       6319 18AE 009D6D10 _ZN18Recombinator_Graph15execute_blossomEP7GRegionjRKNSt3__112basic_stringIcNS2_11char_traitsIcEENS2_9allocatorIcEEEE
       6320 18AF 009D6BC0 _ZN18Recombinator_Graph15execute_blossomEjRKNSt3__112basic_stringIcNS0_11char_traitsIcEENS0_9allocatorIcEEEE
       6321 18B0 00A0D730 _ZN18Recombinator_Graph15is_blossom_pairEP10PETriangleS1_
       6322 18B1 00A0B880 _ZN18Recombinator_Graph16fill_edges_tableERKNSt3__16vectorIP7MVertexNS0_9allocatorIS3_EEEEP3Hex
       6323 18B2 00A02100 _ZN18Recombinator_Graph17compute_hex_ranksEv
       6324 18B3 00A02940 _ZN18Recombinator_Graph17createBlossomInfoEP7GRegion
       6325 18B4 009D6D20 _ZN18Recombinator_Graph17createBlossomInfoEv
       6326 18B5 00A046A0 _ZN18Recombinator_Graph17export_single_hexEP3HexRKNSt3__112basic_stringIcNS2_11char_traitsIcEENS2_9allocatorIcEEEE
       6327 18B6 00A08090 _ZN18Recombinator_Graph17find_hex_in_graphEP3Hex
       6328 18B7 00A02B70 _ZN18Recombinator_Graph17find_the_triangleEP10PETriangleRKNSt3__18multimapIyS1_NS2_4lessIyEENS2_9allocatorINS2_4pairIKyS1_EEEEEE
       6329 18B8 00A083A0 _ZN18Recombinator_Graph17find_the_triangleEP10PETriangleRNSt3__18multimapIyNS2_4pairIS1_iEENS2_4lessIyEENS2_9allocatorINS4_IKyS5_EEEEEE
       6330 18B9 00A072E0 _ZN18Recombinator_Graph18is_not_good_enoughEP3Hex
       6331 18BA 00A020A0 _ZN18Recombinator_Graph19create_losses_graphEP7GRegion
       6332 18BB 00A0B2E0 _ZN18Recombinator_Graph19evaluate_hex_coupleEP3HexS1_
       6333 18BC 00A0C6D0 _ZN18Recombinator_Graph20find_hex_in_graphrowEP3HexRNSt3__18multimapIyS1_NS2_4lessIyEENS2_9allocatorINS2_4pairIKyS1_EEEEEE
       6334 18BD 00A0C940 _ZN18Recombinator_Graph21add_face_connectivityEP8MElementiii
       6335 18BE 00A06220 _ZN18Recombinator_Graph21export_hexmesh_so_farERi
       6336 18BF 00A04660 _ZN18Recombinator_Graph21export_single_hex_allEP3HexRKNSt3__112basic_stringIcNS2_11char_traitsIcEENS2_9allocatorIcEEEE
       6337 18C0 00A03D60 _ZN18Recombinator_Graph21export_single_hex_tetEP3HexRKNSt3__112basic_stringIcNS2_11char_traitsIcEENS2_9allocatorIcEEEE
       6338 18C1 00A00930 _ZN18Recombinator_Graph21fill_tet_to_hex_tableEP3Hex
       6339 18C2 00A0D830 _ZN18Recombinator_Graph21initialize_structuresEP7GRegion
       6340 18C3 00A035D0 _ZN18Recombinator_Graph21post_check_validationEP3Hex
       6341 18C4 00A05910 _ZN18Recombinator_Graph22export_hex_init_degreeEP7GRegionRKNSt3__13mapIP3HexiNS2_4lessIS5_EENS2_9allocatorINS2_4pairIKS5_iEEEEEERKNS2_6vectorIS5_NS8_IS5_EEEE
       6342 18C5 00A05020 _ZN18Recombinator_Graph23export_single_hex_facesEP3HexRKNSt3__112basic_stringIcNS2_11char_traitsIcEENS2_9allocatorIcEEEE
       6343 18C6 00A0D8C0 _ZN18Recombinator_Graph24clear_potential_hex_infoEv
       6344 18C7 00A0B3A0 _ZN18Recombinator_Graph24find_hex_couple_in_graphEP3HexS1_
       6345 18C8 00A0D960 _ZN18Recombinator_Graph25add_or_free_potential_hexEP3Hex
       6346 18C9 00A0CBB0 _ZN18Recombinator_Graph25compute_hex_ranks_blossomEv
       6347 18CA 00A0C830 _ZN18Recombinator_Graph25create_faces_connectivityEv
       6348 18CB 00A0D4E0 _ZN18Recombinator_Graph25find_face_in_blossom_infoEP7MVertexS1_S1_S1_
       6349 18CC 00A08680 _ZN18Recombinator_Graph28export_direct_neighbor_tableEi
       6350 18CD 00A08210 _ZN18Recombinator_Graph30find_the_created_potential_hexEP3HexRKNSt3__18multimapIyS1_NS2_4lessIyEENS2_9allocatorINS2_4pairIKyS1_EEEEEE
       6351 18CE 00A07300 _ZN18Recombinator_Graph31create_indirect_neighbors_graphEv
       6352 18CF 00A09650 _ZN18Recombinator_Graph45create_direct_neighbors_incompatibility_graphEv
       6353 18D0 009D6900 _ZN18Recombinator_Graph5mergeEP7GRegion
       6354 18D1 009D6650 _ZN18Recombinator_Graph7executeEP7GRegion
       6355 18D2 00A018E0 _ZN18Recombinator_Graph8add_faceEP7MVertexS1_S1_P3Hex
       6356 18D3 00A016E0 _ZN18Recombinator_Graph8add_faceEP7MVertexS1_S1_RNSt3__18multimapIyNS2_4pairIP10PETriangleiEENS2_4lessIyEENS2_9allocatorINS4_IKyS7_EEEEEE
       6357 18D4 00A01E10 _ZN18Recombinator_Graph9add_edgesEP3Hex
       6358 18D5 00A03210 _ZN18Recombinator_Graph9merge_hexEP7GRegionP3Hex
       6359 18D6 00A02CE0 _ZN18Recombinator_GraphC1EjRKNSt3__112basic_stringIcNS0_11char_traitsIcEENS0_9allocatorIcEEEE
       6360 18D7 00A02CE0 _ZN18Recombinator_GraphC2EjRKNSt3__112basic_stringIcNS0_11char_traitsIcEENS0_9allocatorIcEEEE
       6361 18D8 009D6630 _ZN18Recombinator_GraphD0Ev
       6362 18D9 00A02620 _ZN18Recombinator_GraphD1Ev
       6363 18DA 00A02620 _ZN18Recombinator_GraphD2Ev
       6364 18DB 007C8180 _ZN18RemoteNativeClient16buildCommandLineEv
       6365 18DC 007C70F0 _ZN18RemoteNativeClient16checkCommandLineEv
       6366 18DD 007C7400 _ZN18RemoteNativeClient7analyzeEv
       6367 18DE 007C7810 _ZN18RemoteNativeClient7computeEv
       6368 18DF 007D2370 _ZN18RemoteNativeClientD0Ev
       6369 18E0 007D2330 _ZN18RemoteNativeClientD2Ev
       6370 18E1 006BB7C0 _ZN18adaptiveHexahedron10recurErrorEPS_dd
       6371 18E2 013D37B8 _ZN18adaptiveHexahedron11allVerticesE
       6372 18E3 006BAC50 _ZN18adaptiveHexahedron11recurCreateEPS_ii
       6373 18E4 013D3878 _ZN18adaptiveHexahedron3allE
       6374 18E5 006BB7A0 _ZN18adaptiveHexahedron5errorEdd
       6375 18E6 006BAA40 _ZN18adaptiveHexahedron6createEi
       6376 18E7 013C19A4 _ZN18adaptiveHexahedron8numEdgesE
       6377 18E8 013C1988 _ZN18adaptiveHexahedron8numNodesE
       6378 18E9 006B9320 _ZN18adaptiveQuadrangle10recurErrorEPS_dd
       6379 18EA 013D3788 _ZN18adaptiveQuadrangle11allVerticesE
       6380 18EB 006B8FB0 _ZN18adaptiveQuadrangle11recurCreateEPS_ii
       6381 18EC 013D3848 _ZN18adaptiveQuadrangle3allE
       6382 18ED 006B9300 _ZN18adaptiveQuadrangle5errorEdd
       6383 18EE 006B8E30 _ZN18adaptiveQuadrangle6createEi
       6384 18EF 013C1998 _ZN18adaptiveQuadrangle8numEdgesE
       6385 18F0 013C197C _ZN18adaptiveQuadrangle8numNodesE
       6386 18F1 001F9880 _ZN18closestPointFinderC1EP7GEntityd
       6387 18F2 001F9880 _ZN18closestPointFinderC2EP7GEntityd
       6388 18F3 001F9F70 _ZN18closestPointFinderD1Ev
       6389 18F4 001F9F70 _ZN18closestPointFinderD2Ev
       6390 18F5 001F9FD0 _ZN18closestPointFinderclERK7SPoint3
       6391 18F6 00525A20 _ZN18constantPerElementIdED0Ev
       6392 18F7 00525A00 _ZN18constantPerElementIdED2Ev
       6393 18F8 00446D70 _ZN18curveFunctorCircleD0Ev
       6394 18F9 00446D60 _ZN18curveFunctorCircleD2Ev
       6395 18FA 004560D0 _ZN18equivalentTriangleC2EP9MTrianglePNSt3__13mapIP7MVertexS5_NS2_4lessIS5_EENS2_9allocatorINS2_4pairIKS5_S5_EEEEEE
       6396 18FB 00353C30 _ZN18gLevelsetEllipsoidC1EPKdS1_RS0_S2_S2_i
       6397 18FC 003540B0 _ZN18gLevelsetEllipsoidC1ERKS_
       6398 18FD 00353C30 _ZN18gLevelsetEllipsoidC2EPKdS1_RS0_S2_S2_i
       6399 18FE 003540B0 _ZN18gLevelsetEllipsoidC2ERKS_
       6400 18FF 0035AAC0 _ZN18gLevelsetEllipsoidD0Ev
       6401 1900 0062F630 _ZN18linearSystemCSRGmmIdE11systemSolveEv
       6402 1901 0029F6F0 _ZN18linearSystemCSRGmmIdED0Ev
       6403 1902 0029F6B0 _ZN18linearSystemCSRGmmIdED2Ev
       6404 1903 0097E830 _ZN19BoundaryLayerCurver12EdgeCurver2D14_reduceCurvingEP6MEdgeNdPK5GFace
       6405 1904 0097EA40 _ZN19BoundaryLayerCurver12EdgeCurver2D17_reduceOrderCurveEP6MEdgeNiPK5GFace
       6406 1905 0097D6F0 _ZN19BoundaryLayerCurver12EdgeCurver2D18_computeParametersEPK6MEdgeNS3_RKNS0_6_FrameEPA3_d
       6407 1906 0097D980 _ZN19BoundaryLayerCurver12EdgeCurver2D18_idealPositionEdgeEPK6MEdgeNRKNS0_6_FrameEPA3_diPK5IntPtR10fullMatrixIdE
       6408 1907 0097DC30 _ZN19BoundaryLayerCurver12EdgeCurver2D22_drawIdealPositionEdgeEPK6MEdgeNRKNS0_6_FrameEPA3_dP5GEdge
       6409 1908 0097F340 _ZN19BoundaryLayerCurver12EdgeCurver2D22recoverQualityElementsERNSt3__16vectorI6MEdgeNNS1_9allocatorIS3_EEEERNS2_I6MFaceNNS4_IS8_EEEERNS2_IP8MElementNS4_ISD_EEEEiiPK5GFace
       6410 1909 0097D0D0 _ZN19BoundaryLayerCurver12EdgeCurver2D6_FrameC1EPK6MEdgeNPK5GFacePK5GEdgeRK8SVector3
       6411 190A 0097D0D0 _ZN19BoundaryLayerCurver12EdgeCurver2D6_FrameC2EPK6MEdgeNPK5GFacePK5GEdgeRK8SVector3
       6412 190B 0097DFB0 _ZN19BoundaryLayerCurver12EdgeCurver2D9curveEdgeEPK6MEdgeNPS1_PK5GFacePK5GEdgeRK8SVector3
       6413 190C 00989760 _ZN19BoundaryLayerCurver12areSameFacesER5MFaceS1_
       6414 190D 0098D2A0 _ZN19BoundaryLayerCurver12curveColumnsERNSt3__16vectorINS0_4pairIP8MElementNS1_IS4_NS0_9allocatorIS4_EEEEEENS5_IS8_EEEEPK5GFace
       6415 190E 00986FF0 _ZN19BoundaryLayerCurver13curve2DcolumnERNSt3__14pairIP8MElementNS0_6vectorIS3_NS0_9allocatorIS3_EEEEEEPK5GFacePK5GEdgeRK8SVector3
       6416 190F 0098C030 _ZN19BoundaryLayerCurver14curveInterfaceERNSt3__16vectorI6MFaceNNS0_9allocatorIS2_EEEEPK8MElementS9_RK6MEdgeNRSA_dPK5GFaceb
       6417 1910 0098C100 _ZN19BoundaryLayerCurver15curveInterfacesERNSt3__16vectorINS0_4pairIP8MElementNS1_IS4_NS0_9allocatorIS4_EEEEEENS5_IS8_EEEERNS1_INS2_IiiEENS5_ISC_EEEEPK5GFace
       6418 1911 0098A0B0 _ZN19BoundaryLayerCurver16computeInterfaceERKNSt3__14pairIP8MElementNS0_6vectorIS3_NS0_9allocatorIS3_EEEEEESA_RNS4_I6MFaceNNS5_ISB_EEEER6MEdgeNSG_
       6419 1912 00986FC0 _ZN19BoundaryLayerCurver16edgesShareVertexEP6MEdgeNS1_
       6420 1913 00989B50 _ZN19BoundaryLayerCurver16faceContainsEdgeERK5MFaceRK5MEdge
       6421 1914 009865B0 _ZN19BoundaryLayerCurver17computeCommonEdgeEP8MElementS1_R5MEdge
       6422 1915 00989860 _ZN19BoundaryLayerCurver17computeCommonFaceEP8MElementS1_R5MFace
       6423 1916 0098AD00 _ZN19BoundaryLayerCurver17idealPositionEdgeEPK8MElementS2_RK6MEdgeNRKNS_17Parameters3DCurveEiPK5IntPtR10fullMatrixIdEiPK5GFace
       6424 1917 0098C6B0 _ZN19BoundaryLayerCurver17idealPositionFaceERK6MFaceNRKNS_19Parameters3DSurfaceEiPK5IntPtR10fullMatrixIdE
       6425 1918 009812B0 _ZN19BoundaryLayerCurver18InteriorEdgeCurver10_linearizeERK10fullMatrixIdERS2_
       6426 1919 0097FA00 _ZN19BoundaryLayerCurver18InteriorEdgeCurver10curveEdgesERNSt3__16vectorI6MEdgeNNS1_9allocatorIS3_EEEEiiPK5GFace
       6427 191A 009835E0 _ZN19BoundaryLayerCurver18InteriorEdgeCurver11_generalTFIERNSt3__16vectorI6MEdgeNNS1_9allocatorIS3_EEEEiRKNS2_INS1_4pairIddEENS4_IS9_EEEEPK10fullMatrixIdEdPK5GFace
       6428 191B 00981140 _ZN19BoundaryLayerCurver18InteriorEdgeCurver11_getTFIDataEii
       6429 191C 009813E0 _ZN19BoundaryLayerCurver18InteriorEdgeCurver12_computeEtasERKNSt3__16vectorI6MEdgeNNS1_9allocatorIS3_EEEERNS2_INS1_4pairIddEENS4_ISA_EEEE
       6430 191D 009825E0 _ZN19BoundaryLayerCurver18InteriorEdgeCurver13_computeTermsERK10fullMatrixIdES4_S4_dPS2_
       6431 191E 00980080 _ZN19BoundaryLayerCurver18InteriorEdgeCurver17_constructTFIDataEii
       6432 191F 009816A0 _ZN19BoundaryLayerCurver18InteriorEdgeCurver19_computeDeltaForTFIERKNSt3__16vectorI6MEdgeNNS1_9allocatorIS3_EEEEiiR10fullMatrixIdESB_SB_
       6433 1920 009840C0 _ZN19BoundaryLayerCurver18InteriorEdgeCurver19_computeEtaAndTermsERNSt3__16vectorI6MEdgeNNS1_9allocatorIS3_EEEEiiRNS2_INS1_4pairIddEENS4_IS9_EEEEP10fullMatrixIdE
       6434 1921 00984220 _ZN19BoundaryLayerCurver18InteriorEdgeCurver28curveEdgesAndPreserveQualityERNSt3__16vectorI6MEdgeNNS1_9allocatorIS3_EEEERNS2_I6MFaceNNS4_IS8_EEEERNS2_IP8MElementNS4_ISD_EEEEiiPK5GFace
       6435 1922 00989170 _ZN19BoundaryLayerCurver18computeAdjacenciesERNSt3__16vectorINS0_4pairIP8MElementNS1_IS4_NS0_9allocatorIS4_EEEEEENS5_IS8_EEEERNS1_INS2_IiiEENS5_ISC_EEEE
       6436 1923 00989B00 _ZN19BoundaryLayerCurver18faceContainsVertexERK5MFacePK7MVertex
       6437 1924 0097E4C0 _ZN19BoundaryLayerCurver18getLeastSquareDataEiii
       6438 1925 00988B30 _ZN19BoundaryLayerCurver19Parameters3DSurface17computeParametersERK6MFaceNS3_
       6439 1926 0098D9A0 _ZN19BoundaryLayerCurver19Parameters3DSurfaceD2Ev
       6440 1927 0097F8F0 _ZN19BoundaryLayerCurver20createPrimaryElementEP8MElement
       6441 1928 0098B470 _ZN19BoundaryLayerCurver21computePosition3DEdgeEPK8MElementS2_RK6MEdgeNRS3_RKNS_17Parameters3DCurveEidPK5GFace
       6442 1929 0098C760 _ZN19BoundaryLayerCurver21computePosition3DFaceERK6MFaceNRS0_RKNS_19Parameters3DSurfaceEPK5GFace
       6443 192A 00987690 _ZN19BoundaryLayerCurver21computeThicknessPViewEP8MElementR8SVector3RNSt3__13mapIiNS4_6vectorIdNS4_9allocatorIdEEEENS4_4lessIiEENS7_INS4_4pairIKiS9_EEEEEE
       6444 192B 0097CE50 _ZN19BoundaryLayerCurver22projectVertexIntoGFaceEP7MVertexPK5GFace
       6445 192C 00987200 _ZN19BoundaryLayerCurver23computeThicknessQualityERNSt3__16vectorIP7MVertexNS0_9allocatorIS3_EEEES7_RNS1_IdNS4_IdEEEER8SVector3
       6446 192D 0097FD40 _ZN19BoundaryLayerCurver23repositionInnerVerticesERKNSt3__16vectorI6MFaceNNS0_9allocatorIS2_EEEEPK5GFace
       6447 192E 0098CDF0 _ZN19BoundaryLayerCurver23repositionInteriorNodesEP8MElementRK10fullMatrixIdE
       6448 192F 0098CF10 _ZN19BoundaryLayerCurver23repositionInteriorNodesERKNSt3__16vectorI6MFaceNNS0_9allocatorIS2_EEEERKNS1_IP8MElementNS3_IS9_EEEE
       6449 1930 0098BFC0 _ZN19BoundaryLayerCurver23repositionInteriorNodesERNSt3__16vectorI6MFaceNNS0_9allocatorIS2_EEEE
       6450 1931 00986A40 _ZN19BoundaryLayerCurver24computeStackHOEdgesFacesERKNSt3__14pairIP8MElementNS0_6vectorIS3_NS0_9allocatorIS3_EEEEEERNS4_I6MEdgeNNS5_ISB_EEEERNS4_I6MFaceNNS5_ISF_EEEE
       6451 1932 00984770 _ZN19BoundaryLayerCurver24constructLeastSquareDataEiii
       6452 1933 0097CEE0 _ZN19BoundaryLayerCurver24projectVerticesIntoGFaceEPK6MEdgeNPK5GFaceb
       6453 1934 0097CFD0 _ZN19BoundaryLayerCurver24projectVerticesIntoGFaceEPK6MFaceNPK5GFaceb
       6454 1935 013D7BF0 _ZN19BoundaryLayerCurver26InnerVertPlacementMatrices10_linearTetE
       6455 1936 009888D0 _ZN19BoundaryLayerCurver26InnerVertPlacementMatrices10hexahedronEibi
       6456 1937 009886A0 _ZN19BoundaryLayerCurver26InnerVertPlacementMatrices10quadrangleEib
       6457 1938 013D78D0 _ZN19BoundaryLayerCurver26InnerVertPlacementMatrices11_hexahedronE
       6458 1939 013D7790 _ZN19BoundaryLayerCurver26InnerVertPlacementMatrices11_quadrangleE
       6459 193A 009887A0 _ZN19BoundaryLayerCurver26InnerVertPlacementMatrices11tetrahedronEibii
       6460 193B 013D7A60 _ZN19BoundaryLayerCurver26InnerVertPlacementMatrices12_linearPrismE
       6461 193C 013D7BA0 _ZN19BoundaryLayerCurver26InnerVertPlacementMatrices12_tetrahedronE
       6462 193D 013D77E0 _ZN19BoundaryLayerCurver26InnerVertPlacementMatrices16_linearTriangle0E
       6463 193E 013D7830 _ZN19BoundaryLayerCurver26InnerVertPlacementMatrices16_linearTriangle2E
       6464 193F 013D7920 _ZN19BoundaryLayerCurver26InnerVertPlacementMatrices17_linearHexahedronE
       6465 1940 013D7880 _ZN19BoundaryLayerCurver26InnerVertPlacementMatrices17_linearQuadrangleE
       6466 1941 00988A00 _ZN19BoundaryLayerCurver26InnerVertPlacementMatrices5prismEibi
       6467 1942 013D7A10 _ZN19BoundaryLayerCurver26InnerVertPlacementMatrices6_prismE
       6468 1943 00988540 _ZN19BoundaryLayerCurver26InnerVertPlacementMatrices8triangleEibi
       6469 1944 013D7740 _ZN19BoundaryLayerCurver26InnerVertPlacementMatrices9_triangleE
       6470 1945 0098C2D0 _ZN19BoundaryLayerCurver26computeStackHighOrderFacesERKNSt3__14pairIP8MElementNS0_6vectorIS3_NS0_9allocatorIS3_EEEEEERNS4_I6MFaceNNS5_ISB_EEEE
       6471 1946 00989BC0 _ZN19BoundaryLayerCurver27computeStackPrimaryVerticesERKNSt3__14pairIP8MElementNS0_6vectorIS3_NS0_9allocatorIS3_EEEEEERNS4_IP7MVertexNS5_ISC_EEEE
       6472 1947 0098A8A0 _ZN19BoundaryLayerCurver27getBisectorsAtCommonCornersEPK8MElementS2_RK6MEdgeNR8SVector3S7_
       6473 1948 0098BA50 _ZN19BoundaryLayerCurver28computeExtremityCoefficientsEPK8MElementS2_RK6MEdgeNS5_RNS_17Parameters3DCurveE
       6474 1949 009866A0 _ZN19BoundaryLayerCurver29compute2DstackPrimaryVerticesERKNSt3__14pairIP8MElementNS0_6vectorIS3_NS0_9allocatorIS3_EEEEEERNS4_IP7MVertexNS5_ISC_EEEE
       6475 194A 0098BD30 _ZN19BoundaryLayerCurver37computePositionInteriorEdgesLinearTFIERNSt3__16vectorI6MFaceNNS0_9allocatorIS2_EEEERK6MEdgeNS9_
       6476 194B 0098CBE0 _ZN19BoundaryLayerCurver37computePositionInteriorFacesLinearTFIERNSt3__16vectorI6MFaceNNS0_9allocatorIS2_EEEERKS2_S8_
       6477 194C 008990C0 _ZN19DI_IntegrationPoint9computeLsEPK10DI_ElementRKNSt3__16vectorIP9gLevelsetNS3_9allocatorIS6_EEEE
       6478 194D 013ED8E8 _ZN19ElementDataLessThanILi3EE9toleranceE
       6479 194E 0074FB60 _ZN19GMSH_AnnotatePlugin10callback3DEiid
       6480 194F 0074FD90 _ZN19GMSH_AnnotatePlugin11callbackStrEiiRKNSt3__112basic_stringIcNS0_11char_traitsIcEENS0_9allocatorIcEEEERS6_
       6481 1950 0074FC20 _ZN19GMSH_AnnotatePlugin12callbackFontEiiRKNSt3__112basic_stringIcNS0_11char_traitsIcEENS0_9allocatorIcEEEE
       6482 1951 0074FBE0 _ZN19GMSH_AnnotatePlugin12callbackTextEiiRKNSt3__112basic_stringIcNS0_11char_traitsIcEENS0_9allocatorIcEEEE
       6483 1952 0074E590 _ZN19GMSH_AnnotatePlugin12getOptionStrEi
       6484 1953 0074FC60 _ZN19GMSH_AnnotatePlugin13callbackAlignEiiRKNSt3__112basic_stringIcNS0_11char_traitsIcEENS0_9allocatorIcEEEE
       6485 1954 0074FBA0 _ZN19GMSH_AnnotatePlugin16callbackFontSizeEiid
       6486 1955 0074FD30 _ZN19GMSH_AnnotatePlugin4drawEPv
       6487 1956 0074E5B0 _ZN19GMSH_AnnotatePlugin7executeEP5PView
       6488 1957 0074FD40 _ZN19GMSH_AnnotatePlugin8callbackEiidPdddd
       6489 1958 0074F8F0 _ZN19GMSH_AnnotatePlugin9callbackXEiid
       6490 1959 0074F9C0 _ZN19GMSH_AnnotatePlugin9callbackYEiid
       6491 195A 0074FA90 _ZN19GMSH_AnnotatePlugin9callbackZEiid
       6492 195B 0074E560 _ZN19GMSH_AnnotatePlugin9getOptionEi
       6493 195C 0074FED0 _ZN19GMSH_AnnotatePluginD0Ev
       6494 195D 00707F90 _ZN19GMSH_CutPlanePlugin11callbackVolEiid
       6495 195E 00707FE0 _ZN19GMSH_CutPlanePlugin13callbackRecurEiid
       6496 195F 00708030 _ZN19GMSH_CutPlanePlugin14callbackTargetEiid
       6497 1960 007080D0 _ZN19GMSH_CutPlanePlugin4drawEPv
       6498 1961 013D49C8 _ZN19GMSH_CutPlanePlugin5iviewE
       6499 1962 00707C40 _ZN19GMSH_CutPlanePlugin7executeEP5PView
       6500 1963 007080E0 _ZN19GMSH_CutPlanePlugin8callbackEiidPdddd
       6501 1964 00707DF0 _ZN19GMSH_CutPlanePlugin9callbackAEiid
       6502 1965 00707E40 _ZN19GMSH_CutPlanePlugin9callbackBEiid
       6503 1966 00707E90 _ZN19GMSH_CutPlanePlugin9callbackCEiid
       6504 1967 00707EE0 _ZN19GMSH_CutPlanePlugin9callbackDEiid
       6505 1968 00707C20 _ZN19GMSH_CutPlanePlugin9getOptionEi
       6506 1969 00708140 _ZN19GMSH_CutPlanePluginD0Ev
       6507 196A 0075AAA0 _ZN19GMSH_DistancePlugin7executeEP5PView
       6508 196B 0075AA80 _ZN19GMSH_DistancePlugin9getOptionEi
       6509 196C 0075C610 _ZN19GMSH_DistancePlugin9printViewERNSt3__16vectorIP7GEntityNS0_9allocatorIS3_EEEERNS0_3mapIP7MVertexdNS0_4lessISA_EENS4_INS0_4pairIKSA_dEEEEEE
       6510 196D 0075C5E0 _ZN19GMSH_DistancePluginC1Ev
       6511 196E 0075C5E0 _ZN19GMSH_DistancePluginC2Ev
       6512 196F 0075D660 _ZN19GMSH_DistancePluginD0Ev
       6513 1970 0074B070 _ZN19GMSH_GradientPlugin7executeEP5PView
       6514 1971 0074B050 _ZN19GMSH_GradientPlugin9getOptionEi
       6515 1972 0074C0E0 _ZN19GMSH_GradientPluginD0Ev
       6516 1973 00703770 _ZN19GMSH_LevelsetPlugin11_addElementEiiiPdS0_S0_PA9_dP13PViewDataListb
       6517 1974 00704110 _ZN19GMSH_LevelsetPlugin18_cutAndAddElementsEP9PViewDataS1_iiiiPdS2_S2_S2_S2_P13PViewDataList
       6518 1975 00702A60 _ZN19GMSH_LevelsetPlugin7executeEP5PView
       6519 1976 00703730 _ZN19GMSH_LevelsetPluginC2Ev
       6520 1977 00707BB0 _ZN19GMSH_LevelsetPluginD0Ev
       6521 1978 00740E40 _ZN19GMSH_MathEvalPlugin12getOptionStrEi
       6522 1979 00740E60 _ZN19GMSH_MathEvalPlugin7executeEP5PView
       6523 197A 00740E10 _ZN19GMSH_MathEvalPlugin9getOptionEi
       6524 197B 00743500 _ZN19GMSH_MathEvalPluginD0Ev
       6525 197C 00772240 _ZN19GMSH_Scal2VecPlugin12getOptionStrEi
       6526 197D 00772260 _ZN19GMSH_Scal2VecPlugin7executeEP5PView
       6527 197E 00772210 _ZN19GMSH_Scal2VecPlugin9getOptionEi
       6528 197F 007731B0 _ZN19GMSH_Scal2VecPluginD0Ev
       6529 1980 001AC780 _ZN19HierarchicalBasisH127addAllOrientedFaceFunctionsERKdS1_S1_RKNSt3__16vectorINS3_IdNS2_9allocatorIdEEEENS4_IS6_EEEERS8_SB_NS2_12basic_stringIcNS2_11char_traitsIcEENS4_IcEEEE
       6530 1981 001ABF80 _ZN19HierarchicalBasisH127addAllOrientedFaceFunctionsERKdS1_S1_RKNSt3__16vectorIdNS2_9allocatorIdEEEERS6_S9_
       6531 1982 001AD220 _ZN19HierarchicalBasisH1D0Ev
       6532 1983 001AD210 _ZN19HierarchicalBasisH1D1Ev
       6533 1984 001AD210 _ZN19HierarchicalBasisH1D2Ev
       6534 1985 005BC8C0 _ZN19IntersectAnisoField14getDescriptionEv
       6535 1986 005BC8B0 _ZN19IntersectAnisoField7getNameEv
       6536 1987 005BBE40 _ZN19IntersectAnisoFieldC2Ev
       6537 1988 005BC0C0 _ZN19IntersectAnisoFieldD0Ev
       6538 1989 005BC050 _ZN19IntersectAnisoFieldD2Ev
       6539 198A 005BC150 _ZN19IntersectAnisoFieldclEdddP7GEntity
       6540 198B 005BC5F0 _ZN19IntersectAnisoFieldclEdddR8SMetric3P7GEntity
       6541 198C 00142800 _ZN19LegendrePolynomials1fEidPd
       6542 198D 00143020 _ZN19LegendrePolynomials2dfEidPd
       6543 198E 00142E20 _ZN19LegendrePolynomials2fcEidPd
       6544 198F 009635E0 _ZN19ObjContribCADDistSqI27ObjContribFuncBarrierMovMaxE10addContribERdRNSt3__16vectorIdNS3_9allocatorIdEEEE
       6545 1990 009635A0 _ZN19ObjContribCADDistSqI27ObjContribFuncBarrierMovMaxE10initializeEP5Patch
       6546 1991 009639E0 _ZN19ObjContribCADDistSqI27ObjContribFuncBarrierMovMaxE12updateMinMaxEv
       6547 1992 009639B0 _ZN19ObjContribCADDistSqI27ObjContribFuncBarrierMovMaxE13targetReachedEv
       6548 1993 00963990 _ZN19ObjContribCADDistSqI27ObjContribFuncBarrierMovMaxE16updateParametersEv
       6549 1994 009635D0 _ZN19ObjContribCADDistSqI27ObjContribFuncBarrierMovMaxE4failEv
       6550 1995 009639C0 _ZN19ObjContribCADDistSqI27ObjContribFuncBarrierMovMaxE9stagnatedEv
       6551 1996 00961B10 _ZN19ObjContribCADDistSqI27ObjContribFuncBarrierMovMaxEC2Edd
       6552 1997 009634A0 _ZN19ObjContribCADDistSqI27ObjContribFuncBarrierMovMaxED0Ev
       6553 1998 00963CC0 _ZN19ObjContribScaledJacI27ObjContribFuncBarrierFixMinE10addContribERdRNSt3__16vectorIdNS3_9allocatorIdEEEE
       6554 1999 00963C70 _ZN19ObjContribScaledJacI27ObjContribFuncBarrierFixMinE10initializeEP5Patch
       6555 199A 00964110 _ZN19ObjContribScaledJacI27ObjContribFuncBarrierFixMinE12updateMinMaxEv
       6556 199B 009640F0 _ZN19ObjContribScaledJacI27ObjContribFuncBarrierFixMinE13targetReachedEv
       6557 199C 009640E0 _ZN19ObjContribScaledJacI27ObjContribFuncBarrierFixMinE16updateParametersEv
       6558 199D 00963CB0 _ZN19ObjContribScaledJacI27ObjContribFuncBarrierFixMinE4failEv
       6559 199E 00964100 _ZN19ObjContribScaledJacI27ObjContribFuncBarrierFixMinE9stagnatedEv
       6560 199F 00961CC0 _ZN19ObjContribScaledJacI27ObjContribFuncBarrierFixMinEC2Ed
       6561 19A0 00963B80 _ZN19ObjContribScaledJacI27ObjContribFuncBarrierFixMinED0Ev
       6562 19A1 00962480 _ZN19ObjContribScaledJacI27ObjContribFuncBarrierMovMinE10addContribERdRNSt3__16vectorIdNS3_9allocatorIdEEEE
       6563 19A2 00962440 _ZN19ObjContribScaledJacI27ObjContribFuncBarrierMovMinE10initializeEP5Patch
       6564 19A3 009628F0 _ZN19ObjContribScaledJacI27ObjContribFuncBarrierMovMinE12updateMinMaxEv
       6565 19A4 009628C0 _ZN19ObjContribScaledJacI27ObjContribFuncBarrierMovMinE13targetReachedEv
       6566 19A5 009628A0 _ZN19ObjContribScaledJacI27ObjContribFuncBarrierMovMinE16updateParametersEv
       6567 19A6 00962470 _ZN19ObjContribScaledJacI27ObjContribFuncBarrierMovMinE4failEv
       6568 19A7 009628D0 _ZN19ObjContribScaledJacI27ObjContribFuncBarrierMovMinE9stagnatedEv
       6569 19A8 00961810 _ZN19ObjContribScaledJacI27ObjContribFuncBarrierMovMinEC2Ed
       6570 19A9 00962350 _ZN19ObjContribScaledJacI27ObjContribFuncBarrierMovMinED0Ev
       6571 19AA 00962CA0 _ZN19ObjContribScaledJacI33ObjContribFuncBarrierFixMinMovMaxE10addContribERdRNSt3__16vectorIdNS3_9allocatorIdEEEE
       6572 19AB 00962C50 _ZN19ObjContribScaledJacI33ObjContribFuncBarrierFixMinMovMaxE10initializeEP5Patch
       6573 19AC 00963230 _ZN19ObjContribScaledJacI33ObjContribFuncBarrierFixMinMovMaxE12updateMinMaxEv
       6574 19AD 00963200 _ZN19ObjContribScaledJacI33ObjContribFuncBarrierFixMinMovMaxE13targetReachedEv
       6575 19AE 009631E0 _ZN19ObjContribScaledJacI33ObjContribFuncBarrierFixMinMovMaxE16updateParametersEv
       6576 19AF 00962C90 _ZN19ObjContribScaledJacI33ObjContribFuncBarrierFixMinMovMaxE4failEv
       6577 19B0 00963210 _ZN19ObjContribScaledJacI33ObjContribFuncBarrierFixMinMovMaxE9stagnatedEv
       6578 19B1 00961990 _ZN19ObjContribScaledJacI33ObjContribFuncBarrierFixMinMovMaxEC2Ed
       6579 19B2 00962B50 _ZN19ObjContribScaledJacI33ObjContribFuncBarrierFixMinMovMaxED0Ev
       6580 19B3 00D122F0 _ZN19PatchGeometryBackup7restoreEv
       6581 19B4 00D11F60 _ZN19PatchGeometryBackupC1ER14GFaceMeshPatchb
       6582 19B5 00D11F60 _ZN19PatchGeometryBackupC2ER14GFaceMeshPatchb
       6583 19B6 006264F0 _ZN19PatchGeometryBackupD2Ev
       6584 19B7 00A0EBC0 _ZN19TetMeshConnectivity20are_vertex_neighborsEP7MVertexS1_
